---
triple:          'x86_64-apple-darwin'
binary-path:     ciphers_tests
relocations:
  - { offset: 0x3B, size: 0x8, addend: 0x0, symName: _.str, symObjAddr: 0x1A4160, symBinAddr: 0x100383C20, symSize: 0x0 }
  - { offset: 0x6B, size: 0x8, addend: 0x0, symName: _.str.1, symObjAddr: 0x1A41A0, symBinAddr: 0x100383C60, symSize: 0x0 }
  - { offset: 0x93, size: 0x8, addend: 0x0, symName: __ZN12_GLOBAL__N_127CaesarDec_RotVec_Empty_Test10test_info_E, symObjAddr: 0x76ACE0, symBinAddr: 0x100490C40, symSize: 0x0 }
  - { offset: 0x15F, size: 0x8, addend: 0x0, symName: __ZN12_GLOBAL__N_129CaesarDec_RotVec_OneElem_Test10test_info_E, symObjAddr: 0x76AD00, symBinAddr: 0x100490C60, symSize: 0x0 }
  - { offset: 0x22B, size: 0x8, addend: 0x0, symName: __ZN12_GLOBAL__N_135CaesarDec_RotVec_MultipleElems_Test10test_info_E, symObjAddr: 0x76AD20, symBinAddr: 0x100490C80, symSize: 0x0 }
  - { offset: 0x2F7, size: 0x8, addend: 0x0, symName: __ZN12_GLOBAL__N_125CaesarDec_Clean_Case_Test24gtest_registering_dummy_E, symObjAddr: 0x76AD40, symBinAddr: 0x100490CA0, symSize: 0x0 }
  - { offset: 0x3B6, size: 0x8, addend: 0x0, symName: __ZN12_GLOBAL__N_128gtest_CaesarDec_Clean_dummy_E, symObjAddr: 0x76AD60, symBinAddr: 0x100490CC0, symSize: 0x0 }
  - { offset: 0x3C9, size: 0x8, addend: 0x0, symName: __ZN12_GLOBAL__N_131CaesarDec_SplitSpaces_Case_Test24gtest_registering_dummy_E, symObjAddr: 0x76AD80, symBinAddr: 0x100490CE0, symSize: 0x0 }
  - { offset: 0x488, size: 0x8, addend: 0x0, symName: __ZN12_GLOBAL__N_134gtest_CaesarDec_SplitSpaces_dummy_E, symObjAddr: 0x76ADA0, symBinAddr: 0x100490D00, symSize: 0x0 }
  - { offset: 0x49B, size: 0x8, addend: 0x0, symName: __ZN12_GLOBAL__N_134CaesarDec_JoinWithSpaces_Case_Test24gtest_registering_dummy_E, symObjAddr: 0x76ADC0, symBinAddr: 0x100490D20, symSize: 0x0 }
  - { offset: 0x55A, size: 0x8, addend: 0x0, symName: __ZN12_GLOBAL__N_137gtest_CaesarDec_JoinWithSpaces_dummy_E, symObjAddr: 0x76ADE0, symBinAddr: 0x100490D40, symSize: 0x0 }
  - { offset: 0x56D, size: 0x8, addend: 0x0, symName: __ZN12_GLOBAL__N_130CaesarDec_NumWordsIn_Case_Test24gtest_registering_dummy_E, symObjAddr: 0x76AE00, symBinAddr: 0x100490D60, symSize: 0x0 }
  - { offset: 0x62C, size: 0x8, addend: 0x0, symName: __ZN12_GLOBAL__N_133gtest_CaesarDec_NumWordsIn_dummy_E, symObjAddr: 0x76AE20, symBinAddr: 0x100490D80, symSize: 0x0 }
  - { offset: 0x645, size: 0x8, addend: 0x0, symName: __ZN12_GLOBAL__N_111TEXT_PROMPTE, symObjAddr: 0x76AE40, symBinAddr: 0x100490DA0, symSize: 0x0 }
  - { offset: 0x65E, size: 0x8, addend: 0x0, symName: __ZN12_GLOBAL__N_111NO_GOOD_DECE, symObjAddr: 0x76AE80, symBinAddr: 0x100490DE0, symSize: 0x0 }
  - { offset: 0x671, size: 0x8, addend: 0x0, symName: __ZN12_GLOBAL__N_137CaesarDec_CommandCustomDict_Case_Test24gtest_registering_dummy_E, symObjAddr: 0x76AEC0, symBinAddr: 0x100490E20, symSize: 0x0 }
  - { offset: 0x739, size: 0x8, addend: 0x0, symName: __ZN12_GLOBAL__N_140gtest_CaesarDec_CommandCustomDict_dummy_E, symObjAddr: 0x76AEE0, symBinAddr: 0x100490E40, symSize: 0x0 }
  - { offset: 0x74C, size: 0x8, addend: 0x0, symName: __ZN12_GLOBAL__N_132CaesarDec_MainFullDict_Case_Test24gtest_registering_dummy_E, symObjAddr: 0x76AF00, symBinAddr: 0x100490E60, symSize: 0x0 }
  - { offset: 0x814, size: 0x8, addend: 0x0, symName: __ZN12_GLOBAL__N_135gtest_CaesarDec_MainFullDict_dummy_E, symObjAddr: 0x76AF20, symBinAddr: 0x100490E80, symSize: 0x0 }
  - { offset: 0x821, size: 0x8, addend: 0x0, symName: __ZN12_GLOBAL__N_136gtest_CaesarDec_Clean_EvalGenerator_Ev, symObjAddr: 0x2098, symBinAddr: 0x100003748, symSize: 0x260 }
  - { offset: 0x83E, size: 0x8, addend: 0x0, symName: __ZN12_GLOBAL__N_139gtest_CaesarDec_Clean_EvalGenerateName_ERKN7testing13TestParamInfoINSt3__15tupleIJNS2_12basic_stringIcNS2_11char_traitsIcEENS2_9allocatorIcEEEES9_EEEEE, symObjAddr: 0x22F8, symBinAddr: 0x1000039A8, symSize: 0x340 }
  - { offset: 0x88B, size: 0x8, addend: 0x0, symName: __ZN12_GLOBAL__N_142gtest_CaesarDec_SplitSpaces_EvalGenerator_Ev, symObjAddr: 0x3AF8, symBinAddr: 0x1000051A8, symSize: 0x1A40 }
  - { offset: 0x8A8, size: 0x8, addend: 0x0, symName: __ZN12_GLOBAL__N_145gtest_CaesarDec_SplitSpaces_EvalGenerateName_ERKN7testing13TestParamInfoINSt3__15tupleIJNS2_12basic_stringIcNS2_11char_traitsIcEENS2_9allocatorIcEEEENS2_6vectorIS9_NS7_IS9_EEEEEEEEE, symObjAddr: 0x5538, symBinAddr: 0x100006BE8, symSize: 0x1BC0 }
  - { offset: 0x8ED, size: 0x8, addend: 0x0, symName: __ZN12_GLOBAL__N_145gtest_CaesarDec_JoinWithSpaces_EvalGenerator_Ev, symObjAddr: 0x85B8, symBinAddr: 0x100009C68, symSize: 0xEC0 }
  - { offset: 0x90A, size: 0x8, addend: 0x0, symName: __ZN12_GLOBAL__N_148gtest_CaesarDec_JoinWithSpaces_EvalGenerateName_ERKN7testing13TestParamInfoINSt3__15tupleIJNS2_6vectorINS2_12basic_stringIcNS2_11char_traitsIcEENS2_9allocatorIcEEEENS8_ISA_EEEESA_EEEEE, symObjAddr: 0x9478, symBinAddr: 0x10000AB28, symSize: 0xFD0 }
  - { offset: 0x94F, size: 0x8, addend: 0x0, symName: __ZN12_GLOBAL__N_141gtest_CaesarDec_NumWordsIn_EvalGenerator_Ev, symObjAddr: 0xB908, symBinAddr: 0x10000CFB8, symSize: 0x13B0 }
  - { offset: 0x96C, size: 0x8, addend: 0x0, symName: __ZN12_GLOBAL__N_144gtest_CaesarDec_NumWordsIn_EvalGenerateName_ERKN7testing13TestParamInfoINSt3__15tupleIJNS2_6vectorINS2_12basic_stringIcNS2_11char_traitsIcEENS2_9allocatorIcEEEENS8_ISA_EEEESC_iEEEEE, symObjAddr: 0xCCB8, symBinAddr: 0x10000E368, symSize: 0x1540 }
  - { offset: 0x9B1, size: 0x8, addend: 0x0, symName: __ZN12_GLOBAL__N_148gtest_CaesarDec_CommandCustomDict_EvalGenerator_Ev, symObjAddr: 0xF6B8, symBinAddr: 0x100010D68, symSize: 0x2AE0 }
  - { offset: 0x9CE, size: 0x8, addend: 0x0, symName: __ZN12_GLOBAL__N_151gtest_CaesarDec_CommandCustomDict_EvalGenerateName_ERKN7testing13TestParamInfoINSt3__15tupleIJNS2_12basic_stringIcNS2_11char_traitsIcEENS2_9allocatorIcEEEENS2_6vectorIS9_NS7_IS9_EEEES9_S9_EEEEE, symObjAddr: 0x12198, symBinAddr: 0x100013848, symSize: 0x2E10 }
  - { offset: 0xA3A, size: 0x8, addend: 0x0, symName: __ZN12_GLOBAL__N_143gtest_CaesarDec_MainFullDict_EvalGenerator_Ev, symObjAddr: 0x16468, symBinAddr: 0x100017B18, symSize: 0x290 }
  - { offset: 0xA57, size: 0x8, addend: 0x0, symName: __ZN12_GLOBAL__N_146gtest_CaesarDec_MainFullDict_EvalGenerateName_ERKN7testing13TestParamInfoINSt3__15tupleIJNS2_12basic_stringIcNS2_11char_traitsIcEENS2_9allocatorIcEEEES9_S9_EEEEE, symObjAddr: 0x166F8, symBinAddr: 0x100017DA8, symSize: 0x388 }
  - { offset: 0x1245, size: 0x8, addend: 0x0, symName: __ZN7testing8internal31CanonicalizeForStdLibVersioningENSt3__112basic_stringIcNS1_11char_traitsIcEENS1_9allocatorIcEEEE, symObjAddr: 0xD03D8, symBinAddr: 0x1000D1A88, symSize: 0x238 }
  - { offset: 0x12C6, size: 0x8, addend: 0x0, symName: __ZN7testing8internal12TypeIdHelperIN12_GLOBAL__N_115CaesarDec_CleanEE6dummy_E, symObjAddr: 0x76AF40, symBinAddr: 0x100490EA0, symSize: 0x0 }
  - { offset: 0x12FA, size: 0x8, addend: 0x0, symName: __ZN7testing8internal12TypeIdHelperIN12_GLOBAL__N_121CaesarDec_SplitSpacesEE6dummy_E, symObjAddr: 0x76AF60, symBinAddr: 0x100490EC0, symSize: 0x0 }
  - { offset: 0x132E, size: 0x8, addend: 0x0, symName: __ZN7testing8internal12TypeIdHelperIN12_GLOBAL__N_124CaesarDec_JoinWithSpacesEE6dummy_E, symObjAddr: 0x76AF80, symBinAddr: 0x100490EE0, symSize: 0x0 }
  - { offset: 0x1362, size: 0x8, addend: 0x0, symName: __ZN7testing8internal12TypeIdHelperIN12_GLOBAL__N_120CaesarDec_NumWordsInEE6dummy_E, symObjAddr: 0x76AFA0, symBinAddr: 0x100490F00, symSize: 0x0 }
  - { offset: 0x1396, size: 0x8, addend: 0x0, symName: __ZN7testing8internal12TypeIdHelperIN12_GLOBAL__N_127CaesarDec_CommandCustomDictEE6dummy_E, symObjAddr: 0x76AFC0, symBinAddr: 0x100490F20, symSize: 0x0 }
  - { offset: 0x13CA, size: 0x8, addend: 0x0, symName: __ZN7testing8internal12TypeIdHelperIN12_GLOBAL__N_122CaesarDec_MainFullDictEE6dummy_E, symObjAddr: 0x76AFE0, symBinAddr: 0x100490F40, symSize: 0x0 }
  - { offset: 0x63F4, size: 0x8, addend: 0x0, symName: __ZN7testing8internal11CmpHelperEQINSt3__16vectorINS2_12basic_stringIcNS2_11char_traitsIcEENS2_9allocatorIcEEEENS7_IS9_EEEESB_EENS_15AssertionResultEPKcSE_RKT_RKT0_, symObjAddr: 0x190D8, symBinAddr: 0x10001A788, symSize: 0x160 }
  - { offset: 0x6461, size: 0x8, addend: 0x0, symName: __ZN7testing8internal18CmpHelperEQFailureINSt3__16vectorINS2_12basic_stringIcNS2_11char_traitsIcEENS2_9allocatorIcEEEENS7_IS9_EEEESB_EENS_15AssertionResultEPKcSE_RKT_RKT0_, symObjAddr: 0x19398, symBinAddr: 0x10001AA48, symSize: 0x448 }
  - { offset: 0x64D2, size: 0x8, addend: 0x0, symName: __ZN7testing8internal33FormatForComparisonFailureMessageINSt3__16vectorINS2_12basic_stringIcNS2_11char_traitsIcEENS2_9allocatorIcEEEENS7_IS9_EEEESB_EES9_RKT_RKT0_, symObjAddr: 0x1ACE8, symBinAddr: 0x10001C398, symSize: 0x80 }
  - { offset: 0x657D, size: 0x8, addend: 0x0, symName: __ZN7testing8internal14UniversalPrintINSt3__16vectorINS2_12basic_stringIcNS2_11char_traitsIcEENS2_9allocatorIcEEEENS7_IS9_EEEEEEvRKT_PNS2_13basic_ostreamIcS6_EE, symObjAddr: 0x1C938, symBinAddr: 0x10001DFE8, symSize: 0x60 }
  - { offset: 0x65E9, size: 0x8, addend: 0x0, symName: __ZN7testing8internal7PrintToINSt3__16vectorINS2_12basic_stringIcNS2_11char_traitsIcEENS2_9allocatorIcEEEENS7_IS9_EEEEEEvRKT_PNS2_13basic_ostreamIcS6_EE, symObjAddr: 0x1C9F8, symBinAddr: 0x10001E0A8, symSize: 0x60 }
  - { offset: 0x662B, size: 0x8, addend: 0x0, symName: __ZN7testing8internal17PrintWithFallbackINSt3__16vectorINS2_12basic_stringIcNS2_11char_traitsIcEENS2_9allocatorIcEEEENS7_IS9_EEEEEEvRKT_PNS2_13basic_ostreamIcS6_EE, symObjAddr: 0x1CA58, symBinAddr: 0x10001E108, symSize: 0x60 }
  - { offset: 0x6697, size: 0x8, addend: 0x0, symName: __ZN7testing8internal14UniversalPrintINSt3__112basic_stringIcNS2_11char_traitsIcEENS2_9allocatorIcEEEEEEvRKT_PNS2_13basic_ostreamIcS5_EE, symObjAddr: 0x1D3E8, symBinAddr: 0x10001EA98, symSize: 0x58 }
  - { offset: 0x6703, size: 0x8, addend: 0x0, symName: __ZN7testing8internal7PrintToERKNSt3__112basic_stringIcNS1_11char_traitsIcEENS1_9allocatorIcEEEEPNS1_13basic_ostreamIcS4_EE, symObjAddr: 0x20EF8, symBinAddr: 0x1000225A8, symSize: 0x58 }
  - { offset: 0x673C, size: 0x8, addend: 0x0, symName: __ZN7testing8internal11CmpHelperEQIPNSt3__112basic_stringIcNS2_11char_traitsIcEENS2_9allocatorIcEEEES9_EENS_15AssertionResultEPKcSC_RKT_RKT0_, symObjAddr: 0x2BCB8, symBinAddr: 0x10002D368, symSize: 0x150 }
  - { offset: 0x67A9, size: 0x8, addend: 0x0, symName: __ZN7testing8internal18CmpHelperEQFailureIPNSt3__112basic_stringIcNS2_11char_traitsIcEENS2_9allocatorIcEEEES9_EENS_15AssertionResultEPKcSC_RKT_RKT0_, symObjAddr: 0x2BE08, symBinAddr: 0x10002D4B8, symSize: 0x450 }
  - { offset: 0x681A, size: 0x8, addend: 0x0, symName: __ZN7testing8internal33FormatForComparisonFailureMessageIPNSt3__112basic_stringIcNS2_11char_traitsIcEENS2_9allocatorIcEEEES9_EES8_RKT_RKT0_, symObjAddr: 0x2C258, symBinAddr: 0x10002D908, symSize: 0x80 }
  - { offset: 0x68C5, size: 0x8, addend: 0x0, symName: __ZN7testing8internal14UniversalPrintIPNSt3__112basic_stringIcNS2_11char_traitsIcEENS2_9allocatorIcEEEEEEvRKT_PNS2_13basic_ostreamIcS5_EE, symObjAddr: 0x2C7F8, symBinAddr: 0x10002DEA8, symSize: 0x60 }
  - { offset: 0x6931, size: 0x8, addend: 0x0, symName: __ZN7testing8internal7PrintToIPNSt3__112basic_stringIcNS2_11char_traitsIcEENS2_9allocatorIcEEEEEEvRKT_PNS2_13basic_ostreamIcS5_EE, symObjAddr: 0x2C8B8, symBinAddr: 0x10002DF68, symSize: 0x60 }
  - { offset: 0x6973, size: 0x8, addend: 0x0, symName: __ZN7testing8internal17PrintWithFallbackIPNSt3__112basic_stringIcNS2_11char_traitsIcEENS2_9allocatorIcEEEEEEvRKT_PNS2_13basic_ostreamIcS5_EE, symObjAddr: 0x2C918, symBinAddr: 0x10002DFC8, symSize: 0x60 }
  - { offset: 0x6BB7, size: 0x8, addend: 0x0, symName: __ZN7testing8internal11CmpHelperEQINSt3__112basic_stringIcNS2_11char_traitsIcEENS2_9allocatorIcEEEES8_EENS_15AssertionResultEPKcSB_RKT_RKT0_, symObjAddr: 0x3C8A8, symBinAddr: 0x10003DF58, symSize: 0x160 }
  - { offset: 0x6C24, size: 0x8, addend: 0x0, symName: __ZN7testing8internal18CmpHelperEQFailureINSt3__112basic_stringIcNS2_11char_traitsIcEENS2_9allocatorIcEEEES8_EENS_15AssertionResultEPKcSB_RKT_RKT0_, symObjAddr: 0x3CA08, symBinAddr: 0x10003E0B8, symSize: 0x450 }
  - { offset: 0x6C95, size: 0x8, addend: 0x0, symName: __ZN7testing8internal33FormatForComparisonFailureMessageINSt3__112basic_stringIcNS2_11char_traitsIcEENS2_9allocatorIcEEEES8_EES8_RKT_RKT0_, symObjAddr: 0x3CE58, symBinAddr: 0x10003E508, symSize: 0x80 }
  - { offset: 0x6D40, size: 0x8, addend: 0x0, symName: __ZN7testing8internal27CheckedDowncastToActualTypeIKNS0_30ValuesInIteratorRangeGeneratorINSt3__15tupleIJNS3_12basic_stringIcNS3_11char_traitsIcEENS3_9allocatorIcEEEESA_EEEE8IteratorEKNS0_22ParamIteratorInterfaceISB_EEEEPT_PT0_, symObjAddr: 0x49848, symBinAddr: 0x10004AEF8, symSize: 0x4A8 }
  - { offset: 0x6D81, size: 0x8, addend: 0x0, symName: __ZN7testing8internal11AlwaysFalseEv, symObjAddr: 0x4E808, symBinAddr: 0x10004FEB8, symSize: 0x20 }
  - { offset: 0x6D9F, size: 0x8, addend: 0x0, symName: __ZN7testing8internal12TestNotEmptyIFNSt3__112basic_stringIcNS2_11char_traitsIcEENS2_9allocatorIcEEEERKNS_13TestParamInfoINS2_5tupleIJS8_S8_EEEEEEEEvRKT_, symObjAddr: 0x4E828, symBinAddr: 0x10004FED8, symSize: 0x20 }
  - { offset: 0x6DCE, size: 0x8, addend: 0x0, symName: __ZN7testing8internal16DefaultParamNameINSt3__15tupleIJNS2_12basic_stringIcNS2_11char_traitsIcEENS2_9allocatorIcEEEES9_EEEEES9_RKNS_13TestParamInfoIT_EE, symObjAddr: 0x4E848, symBinAddr: 0x10004FEF8, symSize: 0x90 }
  - { offset: 0x6F54, size: 0x8, addend: 0x0, symName: __ZN7testing8internal27CheckedDowncastToActualTypeIKNS0_30ValuesInIteratorRangeGeneratorINSt3__15tupleIJNS3_12basic_stringIcNS3_11char_traitsIcEENS3_9allocatorIcEEEENS3_6vectorISA_NS8_ISA_EEEEEEEE8IteratorEKNS0_22ParamIteratorInterfaceISE_EEEEPT_PT0_, symObjAddr: 0x6C898, symBinAddr: 0x10006DF48, symSize: 0x4A8 }
  - { offset: 0x6F95, size: 0x8, addend: 0x0, symName: __ZN7testing8internal12TestNotEmptyIFNSt3__112basic_stringIcNS2_11char_traitsIcEENS2_9allocatorIcEEEERKNS_13TestParamInfoINS2_5tupleIJS8_NS2_6vectorIS8_NS6_IS8_EEEEEEEEEEEEvRKT_, symObjAddr: 0x71B68, symBinAddr: 0x100073218, symSize: 0x20 }
  - { offset: 0x6FC4, size: 0x8, addend: 0x0, symName: __ZN7testing8internal16DefaultParamNameINSt3__15tupleIJNS2_12basic_stringIcNS2_11char_traitsIcEENS2_9allocatorIcEEEENS2_6vectorIS9_NS7_IS9_EEEEEEEEES9_RKNS_13TestParamInfoIT_EE, symObjAddr: 0x71B88, symBinAddr: 0x100073238, symSize: 0x90 }
  - { offset: 0x714A, size: 0x8, addend: 0x0, symName: __ZN7testing8internal27CheckedDowncastToActualTypeIKNS0_30ValuesInIteratorRangeGeneratorINSt3__15tupleIJNS3_6vectorINS3_12basic_stringIcNS3_11char_traitsIcEENS3_9allocatorIcEEEENS9_ISB_EEEESB_EEEE8IteratorEKNS0_22ParamIteratorInterfaceISE_EEEEPT_PT0_, symObjAddr: 0x8D0E8, symBinAddr: 0x10008E798, symSize: 0x4A8 }
  - { offset: 0x718B, size: 0x8, addend: 0x0, symName: __ZN7testing8internal12TestNotEmptyIFNSt3__112basic_stringIcNS2_11char_traitsIcEENS2_9allocatorIcEEEERKNS_13TestParamInfoINS2_5tupleIJNS2_6vectorIS8_NS6_IS8_EEEES8_EEEEEEEEvRKT_, symObjAddr: 0x92168, symBinAddr: 0x100093818, symSize: 0x20 }
  - { offset: 0x71BA, size: 0x8, addend: 0x0, symName: __ZN7testing8internal16DefaultParamNameINSt3__15tupleIJNS2_6vectorINS2_12basic_stringIcNS2_11char_traitsIcEENS2_9allocatorIcEEEENS8_ISA_EEEESA_EEEEESA_RKNS_13TestParamInfoIT_EE, symObjAddr: 0x92188, symBinAddr: 0x100093838, symSize: 0x90 }
  - { offset: 0x7340, size: 0x8, addend: 0x0, symName: __ZN7testing8internal11CmpHelperEQIiiEENS_15AssertionResultEPKcS4_RKT_RKT0_, symObjAddr: 0xA0D18, symBinAddr: 0x1000A23C8, symSize: 0x190 }
  - { offset: 0x73AD, size: 0x8, addend: 0x0, symName: __ZN7testing8internal18CmpHelperEQFailureIiiEENS_15AssertionResultEPKcS4_RKT_RKT0_, symObjAddr: 0xA0EA8, symBinAddr: 0x1000A2558, symSize: 0x450 }
  - { offset: 0x741E, size: 0x8, addend: 0x0, symName: __ZN7testing8internal33FormatForComparisonFailureMessageIiiEENSt3__112basic_stringIcNS2_11char_traitsIcEENS2_9allocatorIcEEEERKT_RKT0_, symObjAddr: 0xA12F8, symBinAddr: 0x1000A29A8, symSize: 0x80 }
  - { offset: 0x74C9, size: 0x8, addend: 0x0, symName: __ZN7testing8internal14UniversalPrintIiEEvRKT_PNSt3__113basic_ostreamIcNS5_11char_traitsIcEEEE, symObjAddr: 0xA1898, symBinAddr: 0x1000A2F48, symSize: 0x60 }
  - { offset: 0x7535, size: 0x8, addend: 0x0, symName: __ZN7testing8internal7PrintToIiEEvRKT_PNSt3__113basic_ostreamIcNS5_11char_traitsIcEEEE, symObjAddr: 0xA1958, symBinAddr: 0x1000A3008, symSize: 0x60 }
  - { offset: 0x7577, size: 0x8, addend: 0x0, symName: __ZN7testing8internal17PrintWithFallbackIiEEvRKT_PNSt3__113basic_ostreamIcNS5_11char_traitsIcEEEE, symObjAddr: 0xA19B8, symBinAddr: 0x1000A3068, symSize: 0x60 }
  - { offset: 0x75E9, size: 0x8, addend: 0x0, symName: __ZN7testing8internal27CheckedDowncastToActualTypeIKNS0_30ValuesInIteratorRangeGeneratorINSt3__15tupleIJNS3_6vectorINS3_12basic_stringIcNS3_11char_traitsIcEENS3_9allocatorIcEEEENS9_ISB_EEEESD_iEEEE8IteratorEKNS0_22ParamIteratorInterfaceISE_EEEEPT_PT0_, symObjAddr: 0xAD308, symBinAddr: 0x1000AE9B8, symSize: 0x4A8 }
  - { offset: 0x762A, size: 0x8, addend: 0x0, symName: __ZN7testing8internal12TestNotEmptyIFNSt3__112basic_stringIcNS2_11char_traitsIcEENS2_9allocatorIcEEEERKNS_13TestParamInfoINS2_5tupleIJNS2_6vectorIS8_NS6_IS8_EEEESD_iEEEEEEEEvRKT_, symObjAddr: 0xB1C98, symBinAddr: 0x1000B3348, symSize: 0x20 }
  - { offset: 0x7659, size: 0x8, addend: 0x0, symName: __ZN7testing8internal16DefaultParamNameINSt3__15tupleIJNS2_6vectorINS2_12basic_stringIcNS2_11char_traitsIcEENS2_9allocatorIcEEEENS8_ISA_EEEESC_iEEEEESA_RKNS_13TestParamInfoIT_EE, symObjAddr: 0xB1CB8, symBinAddr: 0x1000B3368, symSize: 0x90 }
  - { offset: 0x77DF, size: 0x8, addend: 0x0, symName: __ZN7testing8internal33MakePredicateFormatterFromMatcherINS_18PolymorphicMatcherINS0_16HasSubstrMatcherINSt3__112basic_stringIcNS4_11char_traitsIcEENS4_9allocatorIcEEEEEEEEEENS0_29PredicateFormatterFromMatcherIT_EESE_, symObjAddr: 0xC33E8, symBinAddr: 0x1000C4A98, symSize: 0x2A0 }
  - { offset: 0x7818, size: 0x8, addend: 0x0, symName: __ZN7testing8internal33MakePredicateFormatterFromMatcherINS_18PolymorphicMatcherINS0_19MatchesRegexMatcherEEEEENS0_29PredicateFormatterFromMatcherIT_EES6_, symObjAddr: 0xC4DB8, symBinAddr: 0x1000C6468, symSize: 0x2A0 }
  - { offset: 0x7851, size: 0x8, addend: 0x0, symName: __ZN7testing8internal20MatchPrintAndExplainIKNSt3__112basic_stringIcNS2_11char_traitsIcEENS2_9allocatorIcEEEERS9_EEbRT_RKNS_7MatcherIT0_EEPNS_19MatchResultListenerE, symObjAddr: 0xC75B8, symBinAddr: 0x1000C8C68, symSize: 0xE68 }
  - { offset: 0x79E6, size: 0x8, addend: 0x0, symName: __ZN7testing8internal11GetTypeNameIKNSt3__112basic_stringIcNS2_11char_traitsIcEENS2_9allocatorIcEEEEEES8_v, symObjAddr: 0xCFC38, symBinAddr: 0x1000D12E8, symSize: 0x40 }
  - { offset: 0x7A0D, size: 0x8, addend: 0x0, symName: __ZN7testing8internal18IsReadableTypeNameERKNSt3__112basic_stringIcNS1_11char_traitsIcEENS1_9allocatorIcEEEE, symObjAddr: 0xCFC78, symBinAddr: 0x1000D1328, symSize: 0xB0 }
  - { offset: 0x7A3B, size: 0x8, addend: 0x0, symName: __ZN7testing8internal15PrintIfNotEmptyERKNSt3__112basic_stringIcNS1_11char_traitsIcEENS1_9allocatorIcEEEEPNS1_13basic_ostreamIcS4_EE, symObjAddr: 0xCFD28, symBinAddr: 0x1000D13D8, symSize: 0x120 }
  - { offset: 0x7A74, size: 0x8, addend: 0x0, symName: __ZN7testing8internal11GetTypeNameERKSt9type_info, symObjAddr: 0xCFE48, symBinAddr: 0x1000D14F8, symSize: 0x478 }
  - { offset: 0x85D6, size: 0x8, addend: 0x0, symName: __ZN7testing8internal27CheckedDowncastToActualTypeIKNS0_30ValuesInIteratorRangeGeneratorINSt3__15tupleIJNS3_12basic_stringIcNS3_11char_traitsIcEENS3_9allocatorIcEEEENS3_6vectorISA_NS8_ISA_EEEESA_SA_EEEE8IteratorEKNS0_22ParamIteratorInterfaceISE_EEEEPT_PT0_, symObjAddr: 0xE7558, symBinAddr: 0x1000E8C08, symSize: 0x4A8 }
  - { offset: 0x8617, size: 0x8, addend: 0x0, symName: '__ZN7testing8internal12TestNotEmptyIZN12_GLOBAL__N_151gtest_CaesarDec_CommandCustomDict_EvalGenerateName_ERKNS_13TestParamInfoINSt3__15tupleIJNS4_12basic_stringIcNS4_11char_traitsIcEENS4_9allocatorIcEEEENS4_6vectorISB_NS9_ISB_EEEESB_SB_EEEEEE3$_1EEvRKT_', symObjAddr: 0xED6F8, symBinAddr: 0x1000EEDA8, symSize: 0x20 }
  - { offset: 0x8A5C, size: 0x8, addend: 0x0, symName: __ZN7testing8internal27CheckedDowncastToActualTypeIKNS0_30ValuesInIteratorRangeGeneratorINSt3__15tupleIJNS3_12basic_stringIcNS3_11char_traitsIcEENS3_9allocatorIcEEEESA_SA_EEEE8IteratorEKNS0_22ParamIteratorInterfaceISB_EEEEPT_PT0_, symObjAddr: 0x109548, symBinAddr: 0x10010ABF8, symSize: 0x4A8 }
  - { offset: 0x8A9D, size: 0x8, addend: 0x0, symName: '__ZN7testing8internal12TestNotEmptyIZN12_GLOBAL__N_146gtest_CaesarDec_MainFullDict_EvalGenerateName_ERKNS_13TestParamInfoINSt3__15tupleIJNS4_12basic_stringIcNS4_11char_traitsIcEENS4_9allocatorIcEEEESB_SB_EEEEEE3$_1EEvRKT_', symObjAddr: 0x10E2A8, symBinAddr: 0x10010F958, symSize: 0x20 }
  - { offset: 0x8ACC, size: 0x8, addend: 0x0, symName: __ZN7testing8internal19GetNotDefaultOrNullEPFvvES2_, symObjAddr: 0x10EBA8, symBinAddr: 0x100110258, symSize: 0x40 }
  - { offset: 0x8B09, size: 0x8, addend: 0x0, symName: __ZN7testing8internal9GetTypeIdIN12_GLOBAL__N_115CaesarDec_CleanEEEPKvv, symObjAddr: 0x10F298, symBinAddr: 0x100110948, symSize: 0x20 }
  - { offset: 0x8B36, size: 0x8, addend: 0x0, symName: __ZN7testing8internal5posix5AbortEv, symObjAddr: 0x10F2B8, symBinAddr: 0x100110968, symSize: 0x30 }
  - { offset: 0x8B51, size: 0x8, addend: 0x0, symName: __ZN7testing8internal27CheckedDowncastToActualTypeINS0_26ParameterizedTestSuiteInfoIN12_GLOBAL__N_115CaesarDec_CleanEEENS0_30ParameterizedTestSuiteInfoBaseEEEPT_PT0_, symObjAddr: 0x10F2E8, symBinAddr: 0x100110998, symSize: 0x4A8 }
  - { offset: 0x8BE6, size: 0x8, addend: 0x0, symName: __ZN7testing8internal7IsAlNumEc, symObjAddr: 0x1230F8, symBinAddr: 0x1001247A8, symSize: 0x28 }
  - { offset: 0x8C40, size: 0x8, addend: 0x0, symName: __ZN7testing8internal14UniversalPrintINSt3__15tupleIJNS2_12basic_stringIcNS2_11char_traitsIcEENS2_9allocatorIcEEEES9_EEEEEvRKT_PNS2_13basic_ostreamIcS6_EE, symObjAddr: 0x12B588, symBinAddr: 0x10012CC38, symSize: 0x60 }
  - { offset: 0x8CAC, size: 0x8, addend: 0x0, symName: __ZN7testing8internal7PrintToIJNSt3__112basic_stringIcNS2_11char_traitsIcEENS2_9allocatorIcEEEES8_EEEvRKNS2_5tupleIJDpT_EEEPNS2_13basic_ostreamIcS5_EE, symObjAddr: 0x12B648, symBinAddr: 0x10012CCF8, symSize: 0xF0 }
  - { offset: 0x8CF5, size: 0x8, addend: 0x0, symName: __ZN7testing8internal12PrintTupleToINSt3__15tupleIJNS2_12basic_stringIcNS2_11char_traitsIcEENS2_9allocatorIcEEEES9_EEELm2EEEvRKT_NS2_17integral_constantImXT0_EEEPNS2_13basic_ostreamIcS6_EE, symObjAddr: 0x12B738, symBinAddr: 0x10012CDE8, symSize: 0x120 }
  - { offset: 0x8D4C, size: 0x8, addend: 0x0, symName: __ZN7testing8internal12PrintTupleToINSt3__15tupleIJNS2_12basic_stringIcNS2_11char_traitsIcEENS2_9allocatorIcEEEES9_EEELm1EEEvRKT_NS2_17integral_constantImXT0_EEEPNS2_13basic_ostreamIcS6_EE, symObjAddr: 0x12B858, symBinAddr: 0x10012CF08, symSize: 0xE0 }
  - { offset: 0x8DA3, size: 0x8, addend: 0x0, symName: __ZN7testing8internal12PrintTupleToINSt3__15tupleIJNS2_12basic_stringIcNS2_11char_traitsIcEENS2_9allocatorIcEEEES9_EEEEEvRKT_NS2_17integral_constantImLm0EEEPNS2_13basic_ostreamIcS6_EE, symObjAddr: 0x12B938, symBinAddr: 0x10012CFE8, symSize: 0x18 }
  - { offset: 0x8DE8, size: 0x8, addend: 0x0, symName: __ZN7testing8internal9GetTypeIdIN12_GLOBAL__N_121CaesarDec_SplitSpacesEEEPKvv, symObjAddr: 0x141808, symBinAddr: 0x100142EB8, symSize: 0x20 }
  - { offset: 0x8E10, size: 0x8, addend: 0x0, symName: __ZN7testing8internal27CheckedDowncastToActualTypeINS0_26ParameterizedTestSuiteInfoIN12_GLOBAL__N_121CaesarDec_SplitSpacesEEENS0_30ParameterizedTestSuiteInfoBaseEEEPT_PT0_, symObjAddr: 0x141828, symBinAddr: 0x100142ED8, symSize: 0x4A8 }
  - { offset: 0x8ED1, size: 0x8, addend: 0x0, symName: __ZN7testing8internal14UniversalPrintINSt3__15tupleIJNS2_12basic_stringIcNS2_11char_traitsIcEENS2_9allocatorIcEEEENS2_6vectorIS9_NS7_IS9_EEEEEEEEEvRKT_PNS2_13basic_ostreamIcS6_EE, symObjAddr: 0x14AB88, symBinAddr: 0x10014C238, symSize: 0x60 }
  - { offset: 0x8F3D, size: 0x8, addend: 0x0, symName: __ZN7testing8internal7PrintToIJNSt3__112basic_stringIcNS2_11char_traitsIcEENS2_9allocatorIcEEEENS2_6vectorIS8_NS6_IS8_EEEEEEEvRKNS2_5tupleIJDpT_EEEPNS2_13basic_ostreamIcS5_EE, symObjAddr: 0x14AC48, symBinAddr: 0x10014C2F8, symSize: 0xF0 }
  - { offset: 0x8F86, size: 0x8, addend: 0x0, symName: __ZN7testing8internal12PrintTupleToINSt3__15tupleIJNS2_12basic_stringIcNS2_11char_traitsIcEENS2_9allocatorIcEEEENS2_6vectorIS9_NS7_IS9_EEEEEEELm2EEEvRKT_NS2_17integral_constantImXT0_EEEPNS2_13basic_ostreamIcS6_EE, symObjAddr: 0x14AD38, symBinAddr: 0x10014C3E8, symSize: 0x120 }
  - { offset: 0x8FDD, size: 0x8, addend: 0x0, symName: __ZN7testing8internal12PrintTupleToINSt3__15tupleIJNS2_12basic_stringIcNS2_11char_traitsIcEENS2_9allocatorIcEEEENS2_6vectorIS9_NS7_IS9_EEEEEEELm1EEEvRKT_NS2_17integral_constantImXT0_EEEPNS2_13basic_ostreamIcS6_EE, symObjAddr: 0x14AE58, symBinAddr: 0x10014C508, symSize: 0xE0 }
  - { offset: 0x9034, size: 0x8, addend: 0x0, symName: __ZN7testing8internal12PrintTupleToINSt3__15tupleIJNS2_12basic_stringIcNS2_11char_traitsIcEENS2_9allocatorIcEEEENS2_6vectorIS9_NS7_IS9_EEEEEEEEEvRKT_NS2_17integral_constantImLm0EEEPNS2_13basic_ostreamIcS6_EE, symObjAddr: 0x14AF38, symBinAddr: 0x10014C5E8, symSize: 0x18 }
  - { offset: 0x9079, size: 0x8, addend: 0x0, symName: __ZN7testing8internal9GetTypeIdIN12_GLOBAL__N_124CaesarDec_JoinWithSpacesEEEPKvv, symObjAddr: 0x153348, symBinAddr: 0x1001549F8, symSize: 0x20 }
  - { offset: 0x90A1, size: 0x8, addend: 0x0, symName: __ZN7testing8internal27CheckedDowncastToActualTypeINS0_26ParameterizedTestSuiteInfoIN12_GLOBAL__N_124CaesarDec_JoinWithSpacesEEENS0_30ParameterizedTestSuiteInfoBaseEEEPT_PT0_, symObjAddr: 0x153368, symBinAddr: 0x100154A18, symSize: 0x4A8 }
  - { offset: 0x9162, size: 0x8, addend: 0x0, symName: __ZN7testing8internal14UniversalPrintINSt3__15tupleIJNS2_6vectorINS2_12basic_stringIcNS2_11char_traitsIcEENS2_9allocatorIcEEEENS8_ISA_EEEESA_EEEEEvRKT_PNS2_13basic_ostreamIcS7_EE, symObjAddr: 0x15C6C8, symBinAddr: 0x10015DD78, symSize: 0x60 }
  - { offset: 0x91CE, size: 0x8, addend: 0x0, symName: __ZN7testing8internal7PrintToIJNSt3__16vectorINS2_12basic_stringIcNS2_11char_traitsIcEENS2_9allocatorIcEEEENS7_IS9_EEEES9_EEEvRKNS2_5tupleIJDpT_EEEPNS2_13basic_ostreamIcS6_EE, symObjAddr: 0x15C788, symBinAddr: 0x10015DE38, symSize: 0xF0 }
  - { offset: 0x9217, size: 0x8, addend: 0x0, symName: __ZN7testing8internal12PrintTupleToINSt3__15tupleIJNS2_6vectorINS2_12basic_stringIcNS2_11char_traitsIcEENS2_9allocatorIcEEEENS8_ISA_EEEESA_EEELm2EEEvRKT_NS2_17integral_constantImXT0_EEEPNS2_13basic_ostreamIcS7_EE, symObjAddr: 0x15C878, symBinAddr: 0x10015DF28, symSize: 0x120 }
  - { offset: 0x926E, size: 0x8, addend: 0x0, symName: __ZN7testing8internal12PrintTupleToINSt3__15tupleIJNS2_6vectorINS2_12basic_stringIcNS2_11char_traitsIcEENS2_9allocatorIcEEEENS8_ISA_EEEESA_EEELm1EEEvRKT_NS2_17integral_constantImXT0_EEEPNS2_13basic_ostreamIcS7_EE, symObjAddr: 0x15C998, symBinAddr: 0x10015E048, symSize: 0xE0 }
  - { offset: 0x92C5, size: 0x8, addend: 0x0, symName: __ZN7testing8internal12PrintTupleToINSt3__15tupleIJNS2_6vectorINS2_12basic_stringIcNS2_11char_traitsIcEENS2_9allocatorIcEEEENS8_ISA_EEEESA_EEEEEvRKT_NS2_17integral_constantImLm0EEEPNS2_13basic_ostreamIcS7_EE, symObjAddr: 0x15CA78, symBinAddr: 0x10015E128, symSize: 0x18 }
  - { offset: 0x930A, size: 0x8, addend: 0x0, symName: __ZN7testing8internal9GetTypeIdIN12_GLOBAL__N_120CaesarDec_NumWordsInEEEPKvv, symObjAddr: 0x164E88, symBinAddr: 0x100166538, symSize: 0x20 }
  - { offset: 0x9332, size: 0x8, addend: 0x0, symName: __ZN7testing8internal27CheckedDowncastToActualTypeINS0_26ParameterizedTestSuiteInfoIN12_GLOBAL__N_120CaesarDec_NumWordsInEEENS0_30ParameterizedTestSuiteInfoBaseEEEPT_PT0_, symObjAddr: 0x164EA8, symBinAddr: 0x100166558, symSize: 0x4A8 }
  - { offset: 0x93F3, size: 0x8, addend: 0x0, symName: __ZN7testing8internal14UniversalPrintINSt3__15tupleIJNS2_6vectorINS2_12basic_stringIcNS2_11char_traitsIcEENS2_9allocatorIcEEEENS8_ISA_EEEESC_iEEEEEvRKT_PNS2_13basic_ostreamIcS7_EE, symObjAddr: 0x16E1E8, symBinAddr: 0x10016F898, symSize: 0x60 }
  - { offset: 0x945F, size: 0x8, addend: 0x0, symName: __ZN7testing8internal7PrintToIJNSt3__16vectorINS2_12basic_stringIcNS2_11char_traitsIcEENS2_9allocatorIcEEEENS7_IS9_EEEESB_iEEEvRKNS2_5tupleIJDpT_EEEPNS2_13basic_ostreamIcS6_EE, symObjAddr: 0x16E2A8, symBinAddr: 0x10016F958, symSize: 0xF0 }
  - { offset: 0x94AD, size: 0x8, addend: 0x0, symName: __ZN7testing8internal12PrintTupleToINSt3__15tupleIJNS2_6vectorINS2_12basic_stringIcNS2_11char_traitsIcEENS2_9allocatorIcEEEENS8_ISA_EEEESC_iEEELm3EEEvRKT_NS2_17integral_constantImXT0_EEEPNS2_13basic_ostreamIcS7_EE, symObjAddr: 0x16E398, symBinAddr: 0x10016FA48, symSize: 0x120 }
  - { offset: 0x9504, size: 0x8, addend: 0x0, symName: __ZN7testing8internal12PrintTupleToINSt3__15tupleIJNS2_6vectorINS2_12basic_stringIcNS2_11char_traitsIcEENS2_9allocatorIcEEEENS8_ISA_EEEESC_iEEELm2EEEvRKT_NS2_17integral_constantImXT0_EEEPNS2_13basic_ostreamIcS7_EE, symObjAddr: 0x16E4B8, symBinAddr: 0x10016FB68, symSize: 0x120 }
  - { offset: 0x955B, size: 0x8, addend: 0x0, symName: __ZN7testing8internal12PrintTupleToINSt3__15tupleIJNS2_6vectorINS2_12basic_stringIcNS2_11char_traitsIcEENS2_9allocatorIcEEEENS8_ISA_EEEESC_iEEELm1EEEvRKT_NS2_17integral_constantImXT0_EEEPNS2_13basic_ostreamIcS7_EE, symObjAddr: 0x16E5D8, symBinAddr: 0x10016FC88, symSize: 0xE0 }
  - { offset: 0x95B2, size: 0x8, addend: 0x0, symName: __ZN7testing8internal12PrintTupleToINSt3__15tupleIJNS2_6vectorINS2_12basic_stringIcNS2_11char_traitsIcEENS2_9allocatorIcEEEENS8_ISA_EEEESC_iEEEEEvRKT_NS2_17integral_constantImLm0EEEPNS2_13basic_ostreamIcS7_EE, symObjAddr: 0x16E6B8, symBinAddr: 0x10016FD68, symSize: 0x18 }
  - { offset: 0x95F7, size: 0x8, addend: 0x0, symName: __ZN7testing8internal9GetTypeIdIN12_GLOBAL__N_127CaesarDec_CommandCustomDictEEEPKvv, symObjAddr: 0x176AC8, symBinAddr: 0x100178178, symSize: 0x20 }
  - { offset: 0x961F, size: 0x8, addend: 0x0, symName: __ZN7testing8internal27CheckedDowncastToActualTypeINS0_26ParameterizedTestSuiteInfoIN12_GLOBAL__N_127CaesarDec_CommandCustomDictEEENS0_30ParameterizedTestSuiteInfoBaseEEEPT_PT0_, symObjAddr: 0x176AE8, symBinAddr: 0x100178198, symSize: 0x4A8 }
  - { offset: 0x96E1, size: 0x8, addend: 0x0, symName: __ZN7testing8internal14UniversalPrintINSt3__15tupleIJNS2_12basic_stringIcNS2_11char_traitsIcEENS2_9allocatorIcEEEENS2_6vectorIS9_NS7_IS9_EEEES9_S9_EEEEEvRKT_PNS2_13basic_ostreamIcS6_EE, symObjAddr: 0x17FE78, symBinAddr: 0x100181528, symSize: 0x60 }
  - { offset: 0x974D, size: 0x8, addend: 0x0, symName: __ZN7testing8internal7PrintToIJNSt3__112basic_stringIcNS2_11char_traitsIcEENS2_9allocatorIcEEEENS2_6vectorIS8_NS6_IS8_EEEES8_S8_EEEvRKNS2_5tupleIJDpT_EEEPNS2_13basic_ostreamIcS5_EE, symObjAddr: 0x17FF38, symBinAddr: 0x1001815E8, symSize: 0xF0 }
  - { offset: 0x97A0, size: 0x8, addend: 0x0, symName: __ZN7testing8internal12PrintTupleToINSt3__15tupleIJNS2_12basic_stringIcNS2_11char_traitsIcEENS2_9allocatorIcEEEENS2_6vectorIS9_NS7_IS9_EEEES9_S9_EEELm4EEEvRKT_NS2_17integral_constantImXT0_EEEPNS2_13basic_ostreamIcS6_EE, symObjAddr: 0x180028, symBinAddr: 0x1001816D8, symSize: 0x120 }
  - { offset: 0x97F7, size: 0x8, addend: 0x0, symName: __ZN7testing8internal12PrintTupleToINSt3__15tupleIJNS2_12basic_stringIcNS2_11char_traitsIcEENS2_9allocatorIcEEEENS2_6vectorIS9_NS7_IS9_EEEES9_S9_EEELm3EEEvRKT_NS2_17integral_constantImXT0_EEEPNS2_13basic_ostreamIcS6_EE, symObjAddr: 0x180148, symBinAddr: 0x1001817F8, symSize: 0x120 }
  - { offset: 0x984E, size: 0x8, addend: 0x0, symName: __ZN7testing8internal12PrintTupleToINSt3__15tupleIJNS2_12basic_stringIcNS2_11char_traitsIcEENS2_9allocatorIcEEEENS2_6vectorIS9_NS7_IS9_EEEES9_S9_EEELm2EEEvRKT_NS2_17integral_constantImXT0_EEEPNS2_13basic_ostreamIcS6_EE, symObjAddr: 0x180268, symBinAddr: 0x100181918, symSize: 0x120 }
  - { offset: 0x98A5, size: 0x8, addend: 0x0, symName: __ZN7testing8internal12PrintTupleToINSt3__15tupleIJNS2_12basic_stringIcNS2_11char_traitsIcEENS2_9allocatorIcEEEENS2_6vectorIS9_NS7_IS9_EEEES9_S9_EEELm1EEEvRKT_NS2_17integral_constantImXT0_EEEPNS2_13basic_ostreamIcS6_EE, symObjAddr: 0x180388, symBinAddr: 0x100181A38, symSize: 0xE0 }
  - { offset: 0x98FC, size: 0x8, addend: 0x0, symName: __ZN7testing8internal12PrintTupleToINSt3__15tupleIJNS2_12basic_stringIcNS2_11char_traitsIcEENS2_9allocatorIcEEEENS2_6vectorIS9_NS7_IS9_EEEES9_S9_EEEEEvRKT_NS2_17integral_constantImLm0EEEPNS2_13basic_ostreamIcS6_EE, symObjAddr: 0x180468, symBinAddr: 0x100181B18, symSize: 0x18 }
  - { offset: 0x9941, size: 0x8, addend: 0x0, symName: __ZN7testing8internal9GetTypeIdIN12_GLOBAL__N_122CaesarDec_MainFullDictEEEPKvv, symObjAddr: 0x188878, symBinAddr: 0x100189F28, symSize: 0x20 }
  - { offset: 0x9969, size: 0x8, addend: 0x0, symName: __ZN7testing8internal27CheckedDowncastToActualTypeINS0_26ParameterizedTestSuiteInfoIN12_GLOBAL__N_122CaesarDec_MainFullDictEEENS0_30ParameterizedTestSuiteInfoBaseEEEPT_PT0_, symObjAddr: 0x188898, symBinAddr: 0x100189F48, symSize: 0x4A8 }
  - { offset: 0x9A2B, size: 0x8, addend: 0x0, symName: __ZN7testing8internal14UniversalPrintINSt3__15tupleIJNS2_12basic_stringIcNS2_11char_traitsIcEENS2_9allocatorIcEEEES9_S9_EEEEEvRKT_PNS2_13basic_ostreamIcS6_EE, symObjAddr: 0x191BF8, symBinAddr: 0x1001932A8, symSize: 0x60 }
  - { offset: 0x9A97, size: 0x8, addend: 0x0, symName: __ZN7testing8internal7PrintToIJNSt3__112basic_stringIcNS2_11char_traitsIcEENS2_9allocatorIcEEEES8_S8_EEEvRKNS2_5tupleIJDpT_EEEPNS2_13basic_ostreamIcS5_EE, symObjAddr: 0x191CB8, symBinAddr: 0x100193368, symSize: 0xF0 }
  - { offset: 0x9AE5, size: 0x8, addend: 0x0, symName: __ZN7testing8internal12PrintTupleToINSt3__15tupleIJNS2_12basic_stringIcNS2_11char_traitsIcEENS2_9allocatorIcEEEES9_S9_EEELm3EEEvRKT_NS2_17integral_constantImXT0_EEEPNS2_13basic_ostreamIcS6_EE, symObjAddr: 0x191DA8, symBinAddr: 0x100193458, symSize: 0x120 }
  - { offset: 0x9B3C, size: 0x8, addend: 0x0, symName: __ZN7testing8internal12PrintTupleToINSt3__15tupleIJNS2_12basic_stringIcNS2_11char_traitsIcEENS2_9allocatorIcEEEES9_S9_EEELm2EEEvRKT_NS2_17integral_constantImXT0_EEEPNS2_13basic_ostreamIcS6_EE, symObjAddr: 0x191EC8, symBinAddr: 0x100193578, symSize: 0x120 }
  - { offset: 0x9B93, size: 0x8, addend: 0x0, symName: __ZN7testing8internal12PrintTupleToINSt3__15tupleIJNS2_12basic_stringIcNS2_11char_traitsIcEENS2_9allocatorIcEEEES9_S9_EEELm1EEEvRKT_NS2_17integral_constantImXT0_EEEPNS2_13basic_ostreamIcS6_EE, symObjAddr: 0x191FE8, symBinAddr: 0x100193698, symSize: 0xE0 }
  - { offset: 0x9BEA, size: 0x8, addend: 0x0, symName: __ZN7testing8internal12PrintTupleToINSt3__15tupleIJNS2_12basic_stringIcNS2_11char_traitsIcEENS2_9allocatorIcEEEES9_S9_EEEEEvRKT_NS2_17integral_constantImLm0EEEPNS2_13basic_ostreamIcS6_EE, symObjAddr: 0x1920C8, symBinAddr: 0x100193778, symSize: 0x18 }
  - { offset: 0xA8F7, size: 0x8, addend: 0x0, symName: __ZN7testing18WithParamInterfaceINSt3__15tupleIJNS1_12basic_stringIcNS1_11char_traitsIcEENS1_9allocatorIcEEEES8_EEEE10parameter_E, symObjAddr: 0x26BA90, symBinAddr: 0x1003B8C50, symSize: 0x0 }
  - { offset: 0xA90E, size: 0x8, addend: 0x0, symName: __ZN7testing18WithParamInterfaceINSt3__15tupleIJNS1_12basic_stringIcNS1_11char_traitsIcEENS1_9allocatorIcEEEENS1_6vectorIS8_NS6_IS8_EEEEEEEE10parameter_E, symObjAddr: 0x274A70, symBinAddr: 0x1003C1C30, symSize: 0x0 }
  - { offset: 0xA925, size: 0x8, addend: 0x0, symName: __ZN7testing18WithParamInterfaceINSt3__15tupleIJNS1_6vectorINS1_12basic_stringIcNS1_11char_traitsIcEENS1_9allocatorIcEEEENS7_IS9_EEEES9_EEEE10parameter_E, symObjAddr: 0x27F100, symBinAddr: 0x1003CC2C0, symSize: 0x0 }
  - { offset: 0xA93C, size: 0x8, addend: 0x0, symName: __ZN7testing18WithParamInterfaceINSt3__15tupleIJNS1_6vectorINS1_12basic_stringIcNS1_11char_traitsIcEENS1_9allocatorIcEEEENS7_IS9_EEEESB_iEEEE10parameter_E, symObjAddr: 0x288770, symBinAddr: 0x1003D5930, symSize: 0x0 }
  - { offset: 0xA953, size: 0x8, addend: 0x0, symName: __ZN7testing18WithParamInterfaceINSt3__15tupleIJNS1_12basic_stringIcNS1_11char_traitsIcEENS1_9allocatorIcEEEENS1_6vectorIS8_NS6_IS8_EEEES8_S8_EEEE10parameter_E, symObjAddr: 0x291780, symBinAddr: 0x1003DE940, symSize: 0x0 }
  - { offset: 0xAAED, size: 0x8, addend: 0x0, symName: __ZN7testing18WithParamInterfaceINSt3__15tupleIJNS1_12basic_stringIcNS1_11char_traitsIcEENS1_9allocatorIcEEEES8_S8_EEEE10parameter_E, symObjAddr: 0x2A43D0, symBinAddr: 0x1003F1590, symSize: 0x0 }
  - { offset: 0xB30B, size: 0x8, addend: 0x0, symName: __ZN7testing13PrintToStringINSt3__16vectorINS1_12basic_stringIcNS1_11char_traitsIcEENS1_9allocatorIcEEEENS6_IS8_EEEEEES8_RKT_, symObjAddr: 0x1ADD8, symBinAddr: 0x10001C488, symSize: 0x448 }
  - { offset: 0xB355, size: 0x8, addend: 0x0, symName: __ZN7testing13PrintToStringIPNSt3__112basic_stringIcNS1_11char_traitsIcEENS1_9allocatorIcEEEEEES7_RKT_, symObjAddr: 0x2C348, symBinAddr: 0x10002D9F8, symSize: 0x450 }
  - { offset: 0xB39F, size: 0x8, addend: 0x0, symName: __ZN7testing13PrintToStringINSt3__112basic_stringIcNS1_11char_traitsIcEENS1_9allocatorIcEEEEEES7_RKT_, symObjAddr: 0x3CF48, symBinAddr: 0x10003E5F8, symSize: 0x450 }
  - { offset: 0xB3E9, size: 0x8, addend: 0x0, symName: __ZN7testing6ValuesIJNSt3__15tupleIJPKcS4_EEES5_S5_S5_EEENS_8internal10ValueArrayIJDpT_EEES9_, symObjAddr: 0x3D548, symBinAddr: 0x10003EBF8, symSize: 0x2D0 }
  - { offset: 0xB468, size: 0x8, addend: 0x0, symName: __ZN7testing8ValuesInINSt3__16vectorINS1_5tupleIJNS1_12basic_stringIcNS1_11char_traitsIcEENS1_9allocatorIcEEEES9_EEENS7_ISA_EEEEEENS_8internal14ParamGeneratorINT_10value_typeEEERKSF_, symObjAddr: 0x3F2B8, symBinAddr: 0x100040968, symSize: 0xA8 }
  - { offset: 0xB49F, size: 0x8, addend: 0x0, symName: __ZN7testing8ValuesInINSt3__111__wrap_iterIPKNS1_5tupleIJNS1_12basic_stringIcNS1_11char_traitsIcEENS1_9allocatorIcEEEES9_EEEEEEENS_8internal14ParamGeneratorINS1_15iterator_traitsIT_E10value_typeEEESH_SH_, symObjAddr: 0x3FC58, symBinAddr: 0x100041308, symSize: 0x138 }
  - { offset: 0xB4E5, size: 0x8, addend: 0x0, symName: __ZN7testing6ValuesIJNSt3__15tupleIJPKcNS1_6vectorINS1_12basic_stringIcNS1_11char_traitsIcEENS1_9allocatorIcEEEENS9_ISB_EEEEEEESE_SE_SE_SE_SE_SE_EEENS_8internal10ValueArrayIJDpT_EEESI_, symObjAddr: 0x5E318, symBinAddr: 0x10005F9C8, symSize: 0x5F0 }
  - { offset: 0xB5A2, size: 0x8, addend: 0x0, symName: __ZN7testing8ValuesInINSt3__16vectorINS1_5tupleIJNS1_12basic_stringIcNS1_11char_traitsIcEENS1_9allocatorIcEEEENS2_IS9_NS7_IS9_EEEEEEENS7_ISC_EEEEEENS_8internal14ParamGeneratorINT_10value_typeEEERKSH_, symObjAddr: 0x62408, symBinAddr: 0x100063AB8, symSize: 0xA8 }
  - { offset: 0xB5D9, size: 0x8, addend: 0x0, symName: __ZN7testing8ValuesInINSt3__111__wrap_iterIPKNS1_5tupleIJNS1_12basic_stringIcNS1_11char_traitsIcEENS1_9allocatorIcEEEENS1_6vectorIS9_NS7_IS9_EEEEEEEEEEENS_8internal14ParamGeneratorINS1_15iterator_traitsIT_E10value_typeEEESK_SK_, symObjAddr: 0x63168, symBinAddr: 0x100064818, symSize: 0x138 }
  - { offset: 0xB61F, size: 0x8, addend: 0x0, symName: __ZN7testing6ValuesIJNSt3__15tupleIJNS1_6vectorINS1_12basic_stringIcNS1_11char_traitsIcEENS1_9allocatorIcEEEENS7_IS9_EEEEPKcEEESE_SE_SE_EEENS_8internal10ValueArrayIJDpT_EEESI_, symObjAddr: 0x80B08, symBinAddr: 0x1000821B8, symSize: 0x410 }
  - { offset: 0xB69C, size: 0x8, addend: 0x0, symName: __ZN7testing8ValuesInINSt3__16vectorINS1_5tupleIJNS2_INS1_12basic_stringIcNS1_11char_traitsIcEENS1_9allocatorIcEEEENS7_IS9_EEEES9_EEENS7_ISC_EEEEEENS_8internal14ParamGeneratorINT_10value_typeEEERKSH_, symObjAddr: 0x83018, symBinAddr: 0x1000846C8, symSize: 0xA8 }
  - { offset: 0xB6D3, size: 0x8, addend: 0x0, symName: __ZN7testing8ValuesInINSt3__111__wrap_iterIPKNS1_5tupleIJNS1_6vectorINS1_12basic_stringIcNS1_11char_traitsIcEENS1_9allocatorIcEEEENS8_ISA_EEEESA_EEEEEEENS_8internal14ParamGeneratorINS1_15iterator_traitsIT_E10value_typeEEESK_SK_, symObjAddr: 0x839B8, symBinAddr: 0x100085068, symSize: 0x138 }
  - { offset: 0xB719, size: 0x8, addend: 0x0, symName: __ZN7testing13PrintToStringIiEENSt3__112basic_stringIcNS1_11char_traitsIcEENS1_9allocatorIcEEEERKT_, symObjAddr: 0xA13E8, symBinAddr: 0x1000A2A98, symSize: 0x450 }
  - { offset: 0xB763, size: 0x8, addend: 0x0, symName: __ZN7testing6ValuesIJNSt3__15tupleIJNS1_6vectorINS1_12basic_stringIcNS1_11char_traitsIcEENS1_9allocatorIcEEEENS7_IS9_EEEESB_iEEESC_SC_EEENS_8internal10ValueArrayIJDpT_EEESG_, symObjAddr: 0xA1C68, symBinAddr: 0x1000A3318, symSize: 0x3C0 }
  - { offset: 0xB7CA, size: 0x8, addend: 0x0, symName: __ZN7testing8ValuesInINSt3__16vectorINS1_5tupleIJNS2_INS1_12basic_stringIcNS1_11char_traitsIcEENS1_9allocatorIcEEEENS7_IS9_EEEESB_iEEENS7_ISC_EEEEEENS_8internal14ParamGeneratorINT_10value_typeEEERKSH_, symObjAddr: 0xA33E8, symBinAddr: 0x1000A4A98, symSize: 0xA8 }
  - { offset: 0xB801, size: 0x8, addend: 0x0, symName: __ZN7testing8ValuesInINSt3__111__wrap_iterIPKNS1_5tupleIJNS1_6vectorINS1_12basic_stringIcNS1_11char_traitsIcEENS1_9allocatorIcEEEENS8_ISA_EEEESC_iEEEEEEENS_8internal14ParamGeneratorINS1_15iterator_traitsIT_E10value_typeEEESK_SK_, symObjAddr: 0xA3C48, symBinAddr: 0x1000A52F8, symSize: 0x138 }
  - { offset: 0xB847, size: 0x8, addend: 0x0, symName: __ZN7testing9HasSubstrINSt3__112basic_stringIcNS1_11char_traitsIcEENS1_9allocatorIcEEEEEENS_18PolymorphicMatcherINS_8internal16HasSubstrMatcherIS7_EEEERKT_, symObjAddr: 0xC3688, symBinAddr: 0x1000C4D38, symSize: 0x348 }
  - { offset: 0xB87F, size: 0x8, addend: 0x0, symName: __ZN7testing13ContainsRegexINSt3__112basic_stringIcNS1_11char_traitsIcEENS1_9allocatorIcEEEEEENS_18PolymorphicMatcherINS_8internal19MatchesRegexMatcherEEERKT_, symObjAddr: 0xC5058, symBinAddr: 0x1000C6708, symSize: 0x320 }
  - { offset: 0xB8B7, size: 0x8, addend: 0x0, symName: __ZN7testing22MakePolymorphicMatcherINS_8internal16HasSubstrMatcherINSt3__112basic_stringIcNS3_11char_traitsIcEENS3_9allocatorIcEEEEEEEENS_18PolymorphicMatcherIT_EERKSC_, symObjAddr: 0xC6868, symBinAddr: 0x1000C7F18, symSize: 0x98 }
  - { offset: 0xB8EE, size: 0x8, addend: 0x0, symName: __ZN7testing15SafeMatcherCastIRKNSt3__112basic_stringIcNS1_11char_traitsIcEENS1_9allocatorIcEEEENS_18PolymorphicMatcherINS_8internal16HasSubstrMatcherIS7_EEEEEENS_7MatcherIT_EERKT0_, symObjAddr: 0xC6C78, symBinAddr: 0x1000C8328, symSize: 0x68 }
  - { offset: 0xB9CD, size: 0x8, addend: 0x0, symName: __ZN7testing11MatcherCastIRKNSt3__112basic_stringIcNS1_11char_traitsIcEENS1_9allocatorIcEEEENS_18PolymorphicMatcherINS_8internal16HasSubstrMatcherIS7_EEEEEENS_7MatcherIT_EERKT0_, symObjAddr: 0xC8978, symBinAddr: 0x1000CA028, symSize: 0x70 }
  - { offset: 0xBA0D, size: 0x8, addend: 0x0, symName: __ZN7testing13ContainsRegexEPKNS_8internal2REE, symObjAddr: 0xD26F8, symBinAddr: 0x1000D3DA8, symSize: 0x258 }
  - { offset: 0xBA3C, size: 0x8, addend: 0x0, symName: __ZN7testing22MakePolymorphicMatcherINS_8internal19MatchesRegexMatcherEEENS_18PolymorphicMatcherIT_EERKS4_, symObjAddr: 0xD29B8, symBinAddr: 0x1000D4068, symSize: 0x98 }
  - { offset: 0xBA73, size: 0x8, addend: 0x0, symName: __ZN7testing15SafeMatcherCastIRKNSt3__112basic_stringIcNS1_11char_traitsIcEENS1_9allocatorIcEEEENS_18PolymorphicMatcherINS_8internal19MatchesRegexMatcherEEEEENS_7MatcherIT_EERKT0_, symObjAddr: 0xD5E08, symBinAddr: 0x1000D74B8, symSize: 0x70 }
  - { offset: 0xBAB3, size: 0x8, addend: 0x0, symName: __ZN7testing11MatcherCastIRKNSt3__112basic_stringIcNS1_11char_traitsIcEENS1_9allocatorIcEEEENS_18PolymorphicMatcherINS_8internal19MatchesRegexMatcherEEEEENS_7MatcherIT_EERKT0_, symObjAddr: 0xD5E78, symBinAddr: 0x1000D7528, symSize: 0x70 }
  - { offset: 0xBAF3, size: 0x8, addend: 0x0, symName: __ZN7testing6ValuesIJNSt3__15tupleIJPKcNS1_6vectorINS1_12basic_stringIcNS1_11char_traitsIcEENS1_9allocatorIcEEEENS9_ISB_EEEESB_S4_EEENS2_IJS4_SD_S4_S4_EEESF_SF_SF_SF_SE_SF_EEENS_8internal10ValueArrayIJDpT_EEESJ_, symObjAddr: 0xD7978, symBinAddr: 0x1000D9028, symSize: 0x6A0 }
  - { offset: 0xBBC5, size: 0x8, addend: 0x0, symName: __ZN7testing8ValuesInINSt3__16vectorINS1_5tupleIJNS1_12basic_stringIcNS1_11char_traitsIcEENS1_9allocatorIcEEEENS2_IS9_NS7_IS9_EEEES9_S9_EEENS7_ISC_EEEEEENS_8internal14ParamGeneratorINT_10value_typeEEERKSH_, symObjAddr: 0xDD0B8, symBinAddr: 0x1000DE768, symSize: 0xA8 }
  - { offset: 0xBBFC, size: 0x8, addend: 0x0, symName: __ZN7testing8ValuesInINSt3__111__wrap_iterIPKNS1_5tupleIJNS1_12basic_stringIcNS1_11char_traitsIcEENS1_9allocatorIcEEEENS1_6vectorIS9_NS7_IS9_EEEES9_S9_EEEEEEENS_8internal14ParamGeneratorINS1_15iterator_traitsIT_E10value_typeEEESK_SK_, symObjAddr: 0xDDE28, symBinAddr: 0x1000DF4D8, symSize: 0x138 }
  - { offset: 0xBC42, size: 0x8, addend: 0x0, symName: __ZN7testing6ValuesIJNSt3__15tupleIJPKcS4_S4_EEES5_EEENS_8internal10ValueArrayIJDpT_EEES9_, symObjAddr: 0xFDF48, symBinAddr: 0x1000FF5F8, symSize: 0x290 }
  - { offset: 0xBC97, size: 0x8, addend: 0x0, symName: __ZN7testing8ValuesInINSt3__16vectorINS1_5tupleIJNS1_12basic_stringIcNS1_11char_traitsIcEENS1_9allocatorIcEEEES9_S9_EEENS7_ISA_EEEEEENS_8internal14ParamGeneratorINT_10value_typeEEERKSF_, symObjAddr: 0xFF6C8, symBinAddr: 0x100100D78, symSize: 0xA8 }
  - { offset: 0xBCCE, size: 0x8, addend: 0x0, symName: __ZN7testing8ValuesInINSt3__111__wrap_iterIPKNS1_5tupleIJNS1_12basic_stringIcNS1_11char_traitsIcEENS1_9allocatorIcEEEES9_S9_EEEEEEENS_8internal14ParamGeneratorINS1_15iterator_traitsIT_E10value_typeEEESH_SH_, symObjAddr: 0xFFE58, symBinAddr: 0x100101508, symSize: 0x138 }
  - { offset: 0xBD14, size: 0x8, addend: 0x0, symName: __ZN7testing13PrintToStringINSt3__15tupleIJNS1_12basic_stringIcNS1_11char_traitsIcEENS1_9allocatorIcEEEES8_EEEEES8_RKT_, symObjAddr: 0x11C098, symBinAddr: 0x10011D748, symSize: 0x448 }
  - { offset: 0xBD5F, size: 0x8, addend: 0x0, symName: __ZN7testing13PrintToStringINSt3__15tupleIJNS1_12basic_stringIcNS1_11char_traitsIcEENS1_9allocatorIcEEEENS1_6vectorIS8_NS6_IS8_EEEEEEEEES8_RKT_, symObjAddr: 0x1480E8, symBinAddr: 0x100149798, symSize: 0x450 }
  - { offset: 0xBDAA, size: 0x8, addend: 0x0, symName: __ZN7testing13PrintToStringINSt3__15tupleIJNS1_6vectorINS1_12basic_stringIcNS1_11char_traitsIcEENS1_9allocatorIcEEEENS7_IS9_EEEES9_EEEEES9_RKT_, symObjAddr: 0x159C28, symBinAddr: 0x10015B2D8, symSize: 0x450 }
  - { offset: 0xBDF5, size: 0x8, addend: 0x0, symName: __ZN7testing13PrintToStringINSt3__15tupleIJNS1_6vectorINS1_12basic_stringIcNS1_11char_traitsIcEENS1_9allocatorIcEEEENS7_IS9_EEEESB_iEEEEES9_RKT_, symObjAddr: 0x16B748, symBinAddr: 0x10016CDF8, symSize: 0x450 }
  - { offset: 0xBE40, size: 0x8, addend: 0x0, symName: __ZN7testing13PrintToStringINSt3__15tupleIJNS1_12basic_stringIcNS1_11char_traitsIcEENS1_9allocatorIcEEEENS1_6vectorIS8_NS6_IS8_EEEES8_S8_EEEEES8_RKT_, symObjAddr: 0x17D3D8, symBinAddr: 0x10017EA88, symSize: 0x450 }
  - { offset: 0xBE8B, size: 0x8, addend: 0x0, symName: __ZN7testing13PrintToStringINSt3__15tupleIJNS1_12basic_stringIcNS1_11char_traitsIcEENS1_9allocatorIcEEEES8_S8_EEEEES8_RKT_, symObjAddr: 0x18F158, symBinAddr: 0x100190808, symSize: 0x450 }
  - { offset: 0x16611, size: 0x8, addend: 0x0, symName: __ZNSt3__124__put_character_sequenceB8ne180100IcNS_11char_traitsIcEEEERNS_13basic_ostreamIT_T0_EES7_PKS4_m, symObjAddr: 0x1D578, symBinAddr: 0x10001EC28, symSize: 0xFB8 }
  - { offset: 0x16C76, size: 0x8, addend: 0x0, symName: __ZNSt3__17advanceB8ne180100IPNS_12basic_stringIcNS_11char_traitsIcEENS_9allocatorIcEEEEllvEEvRT_T0_, symObjAddr: 0x2B428, symBinAddr: 0x10002CAD8, symSize: 0x70 }
  - { offset: 0x1ADE2, size: 0x8, addend: 0x0, symName: __ZNSt3__17advanceB8ne180100IPNS_10shared_ptrIN7testing8internal26ParameterizedTestSuiteInfoIN12_GLOBAL__N_115CaesarDec_CleanEE8TestInfoEEEllvEEvRT_T0_, symObjAddr: 0x377D8, symBinAddr: 0x100038E88, symSize: 0x70 }
  - { offset: 0x1B065, size: 0x8, addend: 0x0, symName: __ZNSt3__17advanceB8ne180100INS_16reverse_iteratorIPNS_10shared_ptrIN7testing8internal26ParameterizedTestSuiteInfoIN12_GLOBAL__N_115CaesarDec_CleanEE8TestInfoEEEEEllvEEvRT_T0_, symObjAddr: 0x38F68, symBinAddr: 0x10003A618, symSize: 0x70 }
  - { offset: 0x1C65B, size: 0x8, addend: 0x0, symName: __ZNSt3__17advanceB8ne180100IPNS_5tupleIJNS_12basic_stringIcNS_11char_traitsIcEENS_9allocatorIcEEEES7_EEEllvEEvRT_T0_, symObjAddr: 0x45CF8, symBinAddr: 0x1000473A8, symSize: 0x70 }
  - { offset: 0x2132F, size: 0x8, addend: 0x0, symName: __ZNSt3__17advanceB8ne180100IPNS_10shared_ptrIN7testing8internal26ParameterizedTestSuiteInfoIN12_GLOBAL__N_121CaesarDec_SplitSpacesEE8TestInfoEEEllvEEvRT_T0_, symObjAddr: 0x57FC8, symBinAddr: 0x100059678, symSize: 0x70 }
  - { offset: 0x215B2, size: 0x8, addend: 0x0, symName: __ZNSt3__17advanceB8ne180100INS_16reverse_iteratorIPNS_10shared_ptrIN7testing8internal26ParameterizedTestSuiteInfoIN12_GLOBAL__N_121CaesarDec_SplitSpacesEE8TestInfoEEEEEllvEEvRT_T0_, symObjAddr: 0x59318, symBinAddr: 0x10005A9C8, symSize: 0x70 }
  - { offset: 0x22BA8, size: 0x8, addend: 0x0, symName: __ZNSt3__17advanceB8ne180100IPNS_5tupleIJNS_12basic_stringIcNS_11char_traitsIcEENS_9allocatorIcEEEENS_6vectorIS7_NS5_IS7_EEEEEEEllvEEvRT_T0_, symObjAddr: 0x69208, symBinAddr: 0x10006A8B8, symSize: 0x70 }
  - { offset: 0x278A5, size: 0x8, addend: 0x0, symName: __ZNSt3__17advanceB8ne180100IPNS_10shared_ptrIN7testing8internal26ParameterizedTestSuiteInfoIN12_GLOBAL__N_124CaesarDec_JoinWithSpacesEE8TestInfoEEEllvEEvRT_T0_, symObjAddr: 0x7C188, symBinAddr: 0x10007D838, symSize: 0x70 }
  - { offset: 0x27B28, size: 0x8, addend: 0x0, symName: __ZNSt3__17advanceB8ne180100INS_16reverse_iteratorIPNS_10shared_ptrIN7testing8internal26ParameterizedTestSuiteInfoIN12_GLOBAL__N_124CaesarDec_JoinWithSpacesEE8TestInfoEEEEEllvEEvRT_T0_, symObjAddr: 0x7D4D8, symBinAddr: 0x10007EB88, symSize: 0x70 }
  - { offset: 0x2911E, size: 0x8, addend: 0x0, symName: __ZNSt3__17advanceB8ne180100IPNS_5tupleIJNS_6vectorINS_12basic_stringIcNS_11char_traitsIcEENS_9allocatorIcEEEENS6_IS8_EEEES8_EEEllvEEvRT_T0_, symObjAddr: 0x89A58, symBinAddr: 0x10008B108, symSize: 0x70 }
  - { offset: 0x2DBFB, size: 0x8, addend: 0x0, symName: __ZNSt3__17advanceB8ne180100IPNS_10shared_ptrIN7testing8internal26ParameterizedTestSuiteInfoIN12_GLOBAL__N_120CaesarDec_NumWordsInEE8TestInfoEEEllvEEvRT_T0_, symObjAddr: 0x9C308, symBinAddr: 0x10009D9B8, symSize: 0x70 }
  - { offset: 0x2DE7E, size: 0x8, addend: 0x0, symName: __ZNSt3__17advanceB8ne180100INS_16reverse_iteratorIPNS_10shared_ptrIN7testing8internal26ParameterizedTestSuiteInfoIN12_GLOBAL__N_120CaesarDec_NumWordsInEE8TestInfoEEEEEllvEEvRT_T0_, symObjAddr: 0x9D658, symBinAddr: 0x10009ED08, symSize: 0x70 }
  - { offset: 0x2F474, size: 0x8, addend: 0x0, symName: __ZNSt3__17advanceB8ne180100IPNS_5tupleIJNS_6vectorINS_12basic_stringIcNS_11char_traitsIcEENS_9allocatorIcEEEENS6_IS8_EEEESA_iEEEllvEEvRT_T0_, symObjAddr: 0xA9C98, symBinAddr: 0x1000AB348, symSize: 0x70 }
  - { offset: 0x33BCE, size: 0x8, addend: 0x0, symName: __ZNSt3__17advanceB8ne180100IPNS_10shared_ptrIN7testing8internal26ParameterizedTestSuiteInfoIN12_GLOBAL__N_127CaesarDec_CommandCustomDictEE8TestInfoEEEllvEEvRT_T0_, symObjAddr: 0xBBCC8, symBinAddr: 0x1000BD378, symSize: 0x70 }
  - { offset: 0x33E51, size: 0x8, addend: 0x0, symName: __ZNSt3__17advanceB8ne180100INS_16reverse_iteratorIPNS_10shared_ptrIN7testing8internal26ParameterizedTestSuiteInfoIN12_GLOBAL__N_127CaesarDec_CommandCustomDictEE8TestInfoEEEEEllvEEvRT_T0_, symObjAddr: 0xBD018, symBinAddr: 0x1000BE6C8, symSize: 0x70 }
  - { offset: 0x35E00, size: 0x8, addend: 0x0, symName: __ZNSt3__17advanceB8ne180100IPNS_5tupleIJNS_12basic_stringIcNS_11char_traitsIcEENS_9allocatorIcEEEENS_6vectorIS7_NS5_IS7_EEEES7_S7_EEEllvEEvRT_T0_, symObjAddr: 0xE3EC8, symBinAddr: 0x1000E5578, symSize: 0x70 }
  - { offset: 0x3A24D, size: 0x8, addend: 0x0, symName: __ZNSt3__17advanceB8ne180100IPNS_10shared_ptrIN7testing8internal26ParameterizedTestSuiteInfoIN12_GLOBAL__N_122CaesarDec_MainFullDictEE8TestInfoEEEllvEEvRT_T0_, symObjAddr: 0xF83C8, symBinAddr: 0x1000F9A78, symSize: 0x70 }
  - { offset: 0x3A4D0, size: 0x8, addend: 0x0, symName: __ZNSt3__17advanceB8ne180100INS_16reverse_iteratorIPNS_10shared_ptrIN7testing8internal26ParameterizedTestSuiteInfoIN12_GLOBAL__N_122CaesarDec_MainFullDictEE8TestInfoEEEEEllvEEvRT_T0_, symObjAddr: 0xF9718, symBinAddr: 0x1000FADC8, symSize: 0x70 }
  - { offset: 0x3BAC6, size: 0x8, addend: 0x0, symName: __ZNSt3__17advanceB8ne180100IPNS_5tupleIJNS_12basic_stringIcNS_11char_traitsIcEENS_9allocatorIcEEEES7_S7_EEEllvEEvRT_T0_, symObjAddr: 0x105EC8, symBinAddr: 0x100107578, symSize: 0x70 }
  - { offset: 0x3E543, size: 0x8, addend: 0x0, symName: __ZNSt3__16copy_nB8ne180100IPKcmPcTnNS_9enable_ifIXsr37__has_random_access_iterator_categoryIT_EE5valueEiE4typeELi0EEET1_S5_T0_S8_, symObjAddr: 0x11F188, symBinAddr: 0x100120838, symSize: 0xB0 }
  - { offset: 0x41B91, size: 0x8, addend: 0x0, symName: __ZNSt3__17advanceB8ne180100IPN7testing8internal26ParameterizedTestSuiteInfoIN12_GLOBAL__N_115CaesarDec_CleanEE17InstantiationInfoEllvEEvRT_T0_, symObjAddr: 0x13FC18, symBinAddr: 0x1001412C8, symSize: 0x70 }
  - { offset: 0x41E14, size: 0x8, addend: 0x0, symName: __ZNSt3__17advanceB8ne180100INS_16reverse_iteratorIPN7testing8internal26ParameterizedTestSuiteInfoIN12_GLOBAL__N_115CaesarDec_CleanEE17InstantiationInfoEEEllvEEvRT_T0_, symObjAddr: 0x140CE8, symBinAddr: 0x100142398, symSize: 0x70 }
  - { offset: 0x421C1, size: 0x8, addend: 0x0, symName: __ZNSt3__17advanceB8ne180100IPN7testing8internal26ParameterizedTestSuiteInfoIN12_GLOBAL__N_121CaesarDec_SplitSpacesEE17InstantiationInfoEllvEEvRT_T0_, symObjAddr: 0x151758, symBinAddr: 0x100152E08, symSize: 0x70 }
  - { offset: 0x42444, size: 0x8, addend: 0x0, symName: __ZNSt3__17advanceB8ne180100INS_16reverse_iteratorIPN7testing8internal26ParameterizedTestSuiteInfoIN12_GLOBAL__N_121CaesarDec_SplitSpacesEE17InstantiationInfoEEEllvEEvRT_T0_, symObjAddr: 0x152828, symBinAddr: 0x100153ED8, symSize: 0x70 }
  - { offset: 0x427F1, size: 0x8, addend: 0x0, symName: __ZNSt3__17advanceB8ne180100IPN7testing8internal26ParameterizedTestSuiteInfoIN12_GLOBAL__N_124CaesarDec_JoinWithSpacesEE17InstantiationInfoEllvEEvRT_T0_, symObjAddr: 0x163298, symBinAddr: 0x100164948, symSize: 0x70 }
  - { offset: 0x42A74, size: 0x8, addend: 0x0, symName: __ZNSt3__17advanceB8ne180100INS_16reverse_iteratorIPN7testing8internal26ParameterizedTestSuiteInfoIN12_GLOBAL__N_124CaesarDec_JoinWithSpacesEE17InstantiationInfoEEEllvEEvRT_T0_, symObjAddr: 0x164368, symBinAddr: 0x100165A18, symSize: 0x70 }
  - { offset: 0x42E21, size: 0x8, addend: 0x0, symName: __ZNSt3__17advanceB8ne180100IPN7testing8internal26ParameterizedTestSuiteInfoIN12_GLOBAL__N_120CaesarDec_NumWordsInEE17InstantiationInfoEllvEEvRT_T0_, symObjAddr: 0x174ED8, symBinAddr: 0x100176588, symSize: 0x70 }
  - { offset: 0x430A4, size: 0x8, addend: 0x0, symName: __ZNSt3__17advanceB8ne180100INS_16reverse_iteratorIPN7testing8internal26ParameterizedTestSuiteInfoIN12_GLOBAL__N_120CaesarDec_NumWordsInEE17InstantiationInfoEEEllvEEvRT_T0_, symObjAddr: 0x175FA8, symBinAddr: 0x100177658, symSize: 0x70 }
  - { offset: 0x43451, size: 0x8, addend: 0x0, symName: __ZNSt3__17advanceB8ne180100IPN7testing8internal26ParameterizedTestSuiteInfoIN12_GLOBAL__N_127CaesarDec_CommandCustomDictEE17InstantiationInfoEllvEEvRT_T0_, symObjAddr: 0x186C88, symBinAddr: 0x100188338, symSize: 0x70 }
  - { offset: 0x436D4, size: 0x8, addend: 0x0, symName: __ZNSt3__17advanceB8ne180100INS_16reverse_iteratorIPN7testing8internal26ParameterizedTestSuiteInfoIN12_GLOBAL__N_127CaesarDec_CommandCustomDictEE17InstantiationInfoEEEllvEEvRT_T0_, symObjAddr: 0x187D58, symBinAddr: 0x100189408, symSize: 0x70 }
  - { offset: 0x43A81, size: 0x8, addend: 0x0, symName: __ZNSt3__17advanceB8ne180100IPN7testing8internal26ParameterizedTestSuiteInfoIN12_GLOBAL__N_122CaesarDec_MainFullDictEE17InstantiationInfoEllvEEvRT_T0_, symObjAddr: 0x1988E8, symBinAddr: 0x100199F98, symSize: 0x70 }
  - { offset: 0x43D04, size: 0x8, addend: 0x0, symName: __ZNSt3__17advanceB8ne180100INS_16reverse_iteratorIPN7testing8internal26ParameterizedTestSuiteInfoIN12_GLOBAL__N_122CaesarDec_MainFullDictEE17InstantiationInfoEEEllvEEvRT_T0_, symObjAddr: 0x1999B8, symBinAddr: 0x10019B068, symSize: 0x70 }
  - { offset: 0x4512D, size: 0x8, addend: 0x0, symName: __ZNSt3__118__constexpr_strlenB8ne180100EPKc, symObjAddr: 0x16EF8, symBinAddr: 0x1000185A8, symSize: 0x28 }
  - { offset: 0x47943, size: 0x8, addend: 0x0, symName: __ZNSt3__1eqB8ne180100INS_12basic_stringIcNS_11char_traitsIcEENS_9allocatorIcEEEENS4_IS6_EEEEbRKNS_6vectorIT_T0_EESD_, symObjAddr: 0x19238, symBinAddr: 0x10001A8E8, symSize: 0x160 }
  - { offset: 0x479A1, size: 0x8, addend: 0x0, symName: __ZNSt3__15equalB8ne180100INS_11__wrap_iterIPKNS_12basic_stringIcNS_11char_traitsIcEENS_9allocatorIcEEEEEESA_EEbT_SB_T0_, symObjAddr: 0x198B8, symBinAddr: 0x10001AF68, symSize: 0x68 }
  - { offset: 0x479FB, size: 0x8, addend: 0x0, symName: __ZNSt3__15equalB8ne180100INS_11__wrap_iterIPKNS_12basic_stringIcNS_11char_traitsIcEENS_9allocatorIcEEEEEESA_NS_10__equal_toEEEbT_SC_T0_T1_, symObjAddr: 0x19A48, symBinAddr: 0x10001B0F8, symSize: 0x1F0 }
  - { offset: 0x47A73, size: 0x8, addend: 0x0, symName: __ZNSt3__117__equal_iter_implB8ne180100IPKNS_12basic_stringIcNS_11char_traitsIcEENS_9allocatorIcEEEES8_NS_10__equal_toEEEbT_SA_T0_RT1_, symObjAddr: 0x19C38, symBinAddr: 0x10001B2E8, symSize: 0x1A0 }
  - { offset: 0x47AE4, size: 0x8, addend: 0x0, symName: __ZNSt3__113__unwrap_iterB8ne180100INS_11__wrap_iterIPKNS_12basic_stringIcNS_11char_traitsIcEENS_9allocatorIcEEEEEENS_18__unwrap_iter_implISA_Lb1EEETnNS_9enable_ifIXsr21is_copy_constructibleIT_EE5valueEiE4typeELi0EEEDTclsrT0_8__unwrapclsr3stdE7declvalISE_EEEESE_, symObjAddr: 0x19DD8, symBinAddr: 0x10001B488, symSize: 0x38 }
  - { offset: 0x47B64, size: 0x8, addend: 0x0, symName: __ZNSt3__1eqB8ne180100INS_9allocatorIcEEEEbRKNS_12basic_stringIcNS_11char_traitsIcEET_EES9_, symObjAddr: 0x19ED8, symBinAddr: 0x10001B588, symSize: 0x378 }
  - { offset: 0x47BD7, size: 0x8, addend: 0x0, symName: __ZNSt3__112__to_addressB8ne180100IKcEEPT_S3_, symObjAddr: 0x1A2F8, symBinAddr: 0x10001B9A8, symSize: 0x18 }
  - { offset: 0x47C92, size: 0x8, addend: 0x0, symName: __ZNSt3__112__to_addressB8ne180100INS_11__wrap_iterIPKNS_12basic_stringIcNS_11char_traitsIcEENS_9allocatorIcEEEEEEvEEu7__decayIDTclsr19__to_address_helperIT_EE6__callclsr3stdE7declvalIRKSB_EEEEESD_, symObjAddr: 0x1A7D8, symBinAddr: 0x10001BE88, symSize: 0x60 }
  - { offset: 0x47D6E, size: 0x8, addend: 0x0, symName: __ZNSt3__112__to_addressB8ne180100IKNS_12basic_stringIcNS_11char_traitsIcEENS_9allocatorIcEEEEEEPT_S9_, symObjAddr: 0x1A9C8, symBinAddr: 0x10001C078, symSize: 0x18 }
  - { offset: 0x47DA3, size: 0x8, addend: 0x0, symName: __ZNSt3__1lsB8ne180100INS_11char_traitsIcEEEERNS_13basic_ostreamIcT_EES6_c, symObjAddr: 0x1D018, symBinAddr: 0x10001E6C8, symSize: 0x1D0 }
  - { offset: 0x47DEE, size: 0x8, addend: 0x0, symName: __ZNSt3__1neB8ne180100IPKNS_12basic_stringIcNS_11char_traitsIcEENS_9allocatorIcEEEEEEbRKNS_11__wrap_iterIT_EESD_, symObjAddr: 0x1D1E8, symBinAddr: 0x10001E898, symSize: 0x98 }
  - { offset: 0x47E31, size: 0x8, addend: 0x0, symName: __ZNSt3__1lsB8ne180100INS_11char_traitsIcEEEERNS_13basic_ostreamIcT_EES6_PKc, symObjAddr: 0x1D338, symBinAddr: 0x10001E9E8, symSize: 0xB0 }
  - { offset: 0x47E77, size: 0x8, addend: 0x0, symName: __ZNSt3__116__pad_and_outputB8ne180100IcNS_11char_traitsIcEEEENS_19ostreambuf_iteratorIT_T0_EES6_PKS4_S8_S8_RNS_8ios_baseES4_, symObjAddr: 0x1E5F8, symBinAddr: 0x10001FCA8, symSize: 0x9E8 }
  - { offset: 0x47F51, size: 0x8, addend: 0x0, symName: __ZNSt3__112__to_addressB8ne180100IcEEPT_S2_, symObjAddr: 0x1FD48, symBinAddr: 0x1000213F8, symSize: 0x18 }
  - { offset: 0x47F86, size: 0x8, addend: 0x0, symName: __ZNSt3__19use_facetB8ne180100INS_5ctypeIcEEEERKT_RKNS_6localeE, symObjAddr: 0x20988, symBinAddr: 0x100022038, symSize: 0x158 }
  - { offset: 0x48461, size: 0x8, addend: 0x0, symName: __ZNSt3__1eqB8ne180100IPKNS_12basic_stringIcNS_11char_traitsIcEENS_9allocatorIcEEEEEEbRKNS_11__wrap_iterIT_EESD_, symObjAddr: 0x20DF8, symBinAddr: 0x1000224A8, symSize: 0xA0 }
  - { offset: 0x484A4, size: 0x8, addend: 0x0, symName: __ZNSt3__110to_addressB8ne180100IcEEDaPT_, symObjAddr: 0x22628, symBinAddr: 0x100023CD8, symSize: 0x28 }
  - { offset: 0x484D9, size: 0x8, addend: 0x0, symName: __ZNSt3__1eqB8ne180100INS_12basic_stringIcNS_11char_traitsIcEENS_9allocatorIcEEEENS_14default_deleteIS6_EEEEbRKNS_10unique_ptrIT_T0_EEDn, symObjAddr: 0x23278, symBinAddr: 0x100024928, symSize: 0x58 }
  - { offset: 0x48524, size: 0x8, addend: 0x0, symName: __ZNSt3__112__to_addressB8ne180100INS_12basic_stringIcNS_11char_traitsIcEENS_9allocatorIcEEEEEEPT_S8_, symObjAddr: 0x24F98, symBinAddr: 0x100026648, symSize: 0x20 }
  - { offset: 0x4855A, size: 0x8, addend: 0x0, symName: __ZNSt3__112__destroy_atB8ne180100INS_12basic_stringIcNS_11char_traitsIcEENS_9allocatorIcEEEETnNS_9enable_ifIXntsr8is_arrayIT_EE5valueEiE4typeELi0EEEvPS8_, symObjAddr: 0x24FB8, symBinAddr: 0x100026668, symSize: 0x58 }
  - { offset: 0x48592, size: 0x8, addend: 0x0, symName: __ZNSt3__119__libcpp_deallocateB8ne180100EPvmm, symObjAddr: 0x25208, symBinAddr: 0x1000268B8, symSize: 0x70 }
  - { offset: 0x485F7, size: 0x8, addend: 0x0, symName: __ZNSt3__124__is_overaligned_for_newB8ne180100Em, symObjAddr: 0x25278, symBinAddr: 0x100026928, symSize: 0x20 }
  - { offset: 0x48625, size: 0x8, addend: 0x0, symName: __ZNSt3__127__do_deallocate_handle_sizeB8ne180100IJSt11align_val_tEEEvPvmDpT_, symObjAddr: 0x25298, symBinAddr: 0x100026948, symSize: 0x30 }
  - { offset: 0x48678, size: 0x8, addend: 0x0, symName: __ZNSt3__127__do_deallocate_handle_sizeB8ne180100IJEEEvPvmDpT_, symObjAddr: 0x252C8, symBinAddr: 0x100026978, symSize: 0x30 }
  - { offset: 0x486B7, size: 0x8, addend: 0x0, symName: __ZNSt3__124__libcpp_operator_deleteB8ne180100IJPvSt11align_val_tEEEvDpT_, symObjAddr: 0x252F8, symBinAddr: 0x1000269A8, symSize: 0x30 }
  - { offset: 0x48700, size: 0x8, addend: 0x0, symName: __ZNSt3__124__libcpp_operator_deleteB8ne180100IJPvEEEvDpT_, symObjAddr: 0x25328, symBinAddr: 0x1000269D8, symSize: 0x28 }
  - { offset: 0x48735, size: 0x8, addend: 0x0, symName: __ZNSt3__122__make_exception_guardB8ne180100INS_6vectorINS_12basic_stringIcNS_11char_traitsIcEENS_9allocatorIcEEEENS5_IS7_EEE16__destroy_vectorEEENS_28__exception_guard_exceptionsIT_EESC_, symObjAddr: 0x26ED8, symBinAddr: 0x100028588, symSize: 0x78 }
  - { offset: 0x4876A, size: 0x8, addend: 0x0, symName: __ZNSt3__119__allocate_at_leastB8ne180100INS_9allocatorINS_12basic_stringIcNS_11char_traitsIcEENS1_IcEEEEEEEENS_19__allocation_resultINS_16allocator_traitsIT_E7pointerEEERSA_m, symObjAddr: 0x27E18, symBinAddr: 0x1000294C8, symSize: 0x38 }
  - { offset: 0x487AD, size: 0x8, addend: 0x0, symName: __ZNSt3__13minB8ne180100ImEERKT_S3_S3_, symObjAddr: 0x28068, symBinAddr: 0x100029718, symSize: 0xD0 }
  - { offset: 0x489DA, size: 0x8, addend: 0x0, symName: __ZNSt3__13minB8ne180100ImNS_6__lessIvvEEEERKT_S5_S5_T0_, symObjAddr: 0x28258, symBinAddr: 0x100029908, symSize: 0x218 }
  - { offset: 0x48A82, size: 0x8, addend: 0x0, symName: __ZNSt3__120__throw_length_errorB8ne180100EPKc, symObjAddr: 0x286B8, symBinAddr: 0x100029D68, symSize: 0xA8 }
  - { offset: 0x48AAA, size: 0x8, addend: 0x0, symName: __ZNSt3__117__libcpp_allocateB8ne180100Emm, symObjAddr: 0x289C8, symBinAddr: 0x10002A078, symSize: 0x70 }
  - { offset: 0x48B04, size: 0x8, addend: 0x0, symName: __ZNSt3__121__libcpp_operator_newB8ne180100IJmSt11align_val_tEEEPvDpT_, symObjAddr: 0x28A38, symBinAddr: 0x10002A0E8, symSize: 0x70 }
  - { offset: 0x48B51, size: 0x8, addend: 0x0, symName: __ZNSt3__121__libcpp_operator_newB8ne180100IJmEEEPvDpT_, symObjAddr: 0x28AA8, symBinAddr: 0x10002A158, symSize: 0x28 }
  - { offset: 0x48B8A, size: 0x8, addend: 0x0, symName: __ZNSt3__130__uninitialized_allocator_copyB8ne180100INS_9allocatorINS_12basic_stringIcNS_11char_traitsIcEENS1_IcEEEEEEPKS6_S9_PS6_EET2_RT_T0_T1_SB_, symObjAddr: 0x28C18, symBinAddr: 0x10002A2C8, symSize: 0x228 }
  - { offset: 0x48C30, size: 0x8, addend: 0x0, symName: __ZNSt3__114__unwrap_rangeB8ne180100IPKNS_12basic_stringIcNS_11char_traitsIcEENS_9allocatorIcEEEES8_EEDaT_T0_, symObjAddr: 0x29318, symBinAddr: 0x10002A9C8, symSize: 0x40 }
  - { offset: 0x48C7C, size: 0x8, addend: 0x0, symName: __ZNSt3__135__uninitialized_allocator_copy_implB8ne180100INS_9allocatorINS_12basic_stringIcNS_11char_traitsIcEENS1_IcEEEEEEPKS6_S9_PS6_EET2_RT_T0_T1_SB_, symObjAddr: 0x29358, symBinAddr: 0x10002AA08, symSize: 0x520 }
  - { offset: 0x48D28, size: 0x8, addend: 0x0, symName: __ZNSt3__113__unwrap_iterB8ne180100IPNS_12basic_stringIcNS_11char_traitsIcEENS_9allocatorIcEEEENS_18__unwrap_iter_implIS7_Lb1EEETnNS_9enable_ifIXsr21is_copy_constructibleIT_EE5valueEiE4typeELi0EEEDTclsrT0_8__unwrapclsr3stdE7declvalISB_EEEESB_, symObjAddr: 0x29878, symBinAddr: 0x10002AF28, symSize: 0x30 }
  - { offset: 0x48D6D, size: 0x8, addend: 0x0, symName: __ZNSt3__113__rewrap_iterB8ne180100IPNS_12basic_stringIcNS_11char_traitsIcEENS_9allocatorIcEEEES7_NS_18__unwrap_iter_implIS7_Lb1EEEEET_SA_T0_, symObjAddr: 0x298A8, symBinAddr: 0x10002AF58, symSize: 0x50 }
  - { offset: 0x48EC5, size: 0x8, addend: 0x0, symName: __ZNSt3__113__unwrap_iterB8ne180100IPKNS_12basic_stringIcNS_11char_traitsIcEENS_9allocatorIcEEEENS_18__unwrap_iter_implIS8_Lb1EEETnNS_9enable_ifIXsr21is_copy_constructibleIT_EE5valueEiE4typeELi0EEEDTclsrT0_8__unwrapclsr3stdE7declvalISC_EEEESC_, symObjAddr: 0x29AE8, symBinAddr: 0x10002B198, symSize: 0x28 }
  - { offset: 0x48F5D, size: 0x8, addend: 0x0, symName: __ZNSt3__122__make_exception_guardB8ne180100INS_29_AllocatorDestroyRangeReverseINS_9allocatorINS_12basic_stringIcNS_11char_traitsIcEENS2_IcEEEEEEPS7_EEEENS_28__exception_guard_exceptionsIT_EESC_, symObjAddr: 0x29D38, symBinAddr: 0x10002B3E8, symSize: 0x1F8 }
  - { offset: 0x48F96, size: 0x8, addend: 0x0, symName: __ZNSt3__114__construct_atB8ne180100INS_12basic_stringIcNS_11char_traitsIcEENS_9allocatorIcEEEEJRKS6_EPS6_EEPT_SB_DpOT0_, symObjAddr: 0x2A738, symBinAddr: 0x10002BDE8, symSize: 0x70 }
  - { offset: 0x49010, size: 0x8, addend: 0x0, symName: __ZNSt3__112construct_atB8ne180100INS_12basic_stringIcNS_11char_traitsIcEENS_9allocatorIcEEEEJRKS6_EPS6_EEPT_SB_DpOT0_, symObjAddr: 0x2A7A8, symBinAddr: 0x10002BE58, symSize: 0xD8 }
  - { offset: 0x49082, size: 0x8, addend: 0x0, symName: __ZNSt3__119__allocator_destroyB8ne180100INS_9allocatorINS_12basic_stringIcNS_11char_traitsIcEENS1_IcEEEEEENS_16reverse_iteratorIPS6_EESA_EEvRT_T0_T1_, symObjAddr: 0x2AC88, symBinAddr: 0x10002C338, symSize: 0x1F8 }
  - { offset: 0x490EE, size: 0x8, addend: 0x0, symName: __ZNSt3__1neB8ne180100IPNS_12basic_stringIcNS_11char_traitsIcEENS_9allocatorIcEEEES7_EEbRKNS_16reverse_iteratorIT_EERKNS8_IT0_EEQrqXnecldtfp_4baseEcldtfp0_4baseERNS_14convertible_toIbEEE, symObjAddr: 0x2AEE8, symBinAddr: 0x10002C598, symSize: 0xA0 }
  - { offset: 0x4913A, size: 0x8, addend: 0x0, symName: __ZNSt3__112__to_addressB8ne180100INS_16reverse_iteratorIPNS_12basic_stringIcNS_11char_traitsIcEENS_9allocatorIcEEEEEEvEEu7__decayIDTclsr19__to_address_helperIT_EE6__callclsr3stdE7declvalIRKSA_EEEEESC_, symObjAddr: 0x2AF88, symBinAddr: 0x10002C638, symSize: 0x58 }
  - { offset: 0x4919A, size: 0x8, addend: 0x0, symName: __ZNSt3__14prevB8ne180100IPNS_12basic_stringIcNS_11char_traitsIcEENS_9allocatorIcEEEETnNS_9enable_ifIXsr29__has_input_iterator_categoryIT_EE5valueEiE4typeELi0EEES9_S9_NS_15iterator_traitsIS9_E15difference_typeE, symObjAddr: 0x2B298, symBinAddr: 0x10002C948, symSize: 0x190 }
  - { offset: 0x491E9, size: 0x8, addend: 0x0, symName: __ZNSt3__121__convert_to_integralB8ne180100El, symObjAddr: 0x2B498, symBinAddr: 0x10002CB48, symSize: 0x20 }
  - { offset: 0x49216, size: 0x8, addend: 0x0, symName: __ZNSt3__19__advanceB8ne180100IPNS_12basic_stringIcNS_11char_traitsIcEENS_9allocatorIcEEEEEEvRT_NS_15iterator_traitsIS8_E15difference_typeENS_26random_access_iterator_tagE, symObjAddr: 0x2B4B8, symBinAddr: 0x10002CB68, symSize: 0xF8 }
  - { offset: 0x492B3, size: 0x8, addend: 0x0, symName: __ZNSt3__112__to_addressB8ne180100INS_10shared_ptrIN7testing8internal26ParameterizedTestSuiteInfoIN12_GLOBAL__N_115CaesarDec_CleanEE8TestInfoEEEEEPT_SB_, symObjAddr: 0x2F1B8, symBinAddr: 0x100030868, symSize: 0x18 }
  - { offset: 0x492E8, size: 0x8, addend: 0x0, symName: __ZNSt3__114__construct_atB8ne180100INS_10shared_ptrIN7testing8internal26ParameterizedTestSuiteInfoIN12_GLOBAL__N_115CaesarDec_CleanEE8TestInfoEEEJPS8_EPS9_EEPT_SD_DpOT0_, symObjAddr: 0x2FC18, symBinAddr: 0x1000312C8, symSize: 0x70 }
  - { offset: 0x49362, size: 0x8, addend: 0x0, symName: __ZNSt3__112construct_atB8ne180100INS_10shared_ptrIN7testing8internal26ParameterizedTestSuiteInfoIN12_GLOBAL__N_115CaesarDec_CleanEE8TestInfoEEEJPS8_EPS9_EEPT_SD_DpOT0_, symObjAddr: 0x2FC88, symBinAddr: 0x100031338, symSize: 0xF8 }
  - { offset: 0x49E26, size: 0x8, addend: 0x0, symName: __ZNSt3__13maxB8ne180100ImEERKT_S3_S3_, symObjAddr: 0x34778, symBinAddr: 0x100035E28, symSize: 0xD0 }
  - { offset: 0x49E69, size: 0x8, addend: 0x0, symName: __ZNSt3__13maxB8ne180100ImNS_6__lessIvvEEEERKT_S5_S5_T0_, symObjAddr: 0x34A68, symBinAddr: 0x100036118, symSize: 0x218 }
  - { offset: 0x49EC9, size: 0x8, addend: 0x0, symName: __ZNSt3__119__allocate_at_leastB8ne180100INS_9allocatorINS_10shared_ptrIN7testing8internal26ParameterizedTestSuiteInfoIN12_GLOBAL__N_115CaesarDec_CleanEE8TestInfoEEEEEEENS_19__allocation_resultINS_16allocator_traitsIT_E7pointerEEERSE_m, symObjAddr: 0x35298, symBinAddr: 0x100036948, symSize: 0x38 }
  - { offset: 0x49F0C, size: 0x8, addend: 0x0, symName: __ZNSt3__142__uninitialized_allocator_move_if_noexceptB8ne180100INS_9allocatorINS_10shared_ptrIN7testing8internal26ParameterizedTestSuiteInfoIN12_GLOBAL__N_115CaesarDec_CleanEE8TestInfoEEEEENS_16reverse_iteratorIPSA_EESE_SE_EET2_RT_T0_T1_SF_, symObjAddr: 0x35AF8, symBinAddr: 0x1000371A8, symSize: 0x578 }
  - { offset: 0x49FC0, size: 0x8, addend: 0x0, symName: __ZNSt3__14swapB8ne180100IPNS_10shared_ptrIN7testing8internal26ParameterizedTestSuiteInfoIN12_GLOBAL__N_115CaesarDec_CleanEE8TestInfoEEEEENS_9enable_ifIXaasr21is_move_constructibleIT_EE5valuesr18is_move_assignableISC_EE5valueEvE4typeERSC_SF_, symObjAddr: 0x36158, symBinAddr: 0x100037808, symSize: 0x168 }
  - { offset: 0x4A011, size: 0x8, addend: 0x0, symName: __ZNSt3__122__make_exception_guardB8ne180100INS_29_AllocatorDestroyRangeReverseINS_9allocatorINS_10shared_ptrIN7testing8internal26ParameterizedTestSuiteInfoIN12_GLOBAL__N_115CaesarDec_CleanEE8TestInfoEEEEENS_16reverse_iteratorIPSB_EEEEEENS_28__exception_guard_exceptionsIT_EESI_, symObjAddr: 0x36428, symBinAddr: 0x100037AD8, symSize: 0x1F8 }
  - { offset: 0x4A04A, size: 0x8, addend: 0x0, symName: __ZNSt3__1neB8ne180100IPNS_10shared_ptrIN7testing8internal26ParameterizedTestSuiteInfoIN12_GLOBAL__N_115CaesarDec_CleanEE8TestInfoEEESA_EEbRKNS_16reverse_iteratorIT_EERKNSB_IT0_EEQrqXnecldtfp_4baseEcldtfp0_4baseERNS_14convertible_toIbEEE, symObjAddr: 0x36698, symBinAddr: 0x100037D48, symSize: 0xA0 }
  - { offset: 0x4A096, size: 0x8, addend: 0x0, symName: __ZNSt3__112__to_addressB8ne180100INS_16reverse_iteratorIPNS_10shared_ptrIN7testing8internal26ParameterizedTestSuiteInfoIN12_GLOBAL__N_115CaesarDec_CleanEE8TestInfoEEEEEvEEu7__decayIDTclsr19__to_address_helperIT_EE6__callclsr3stdE7declvalIRKSD_EEEEESF_, symObjAddr: 0x367A8, symBinAddr: 0x100037E58, symSize: 0x58 }
  - { offset: 0x4A0CC, size: 0x8, addend: 0x0, symName: __ZNSt3__114__construct_atB8ne180100INS_10shared_ptrIN7testing8internal26ParameterizedTestSuiteInfoIN12_GLOBAL__N_115CaesarDec_CleanEE8TestInfoEEEJS9_EPS9_EEPT_SC_DpOT0_, symObjAddr: 0x37168, symBinAddr: 0x100038818, symSize: 0x70 }
  - { offset: 0x4A11F, size: 0x8, addend: 0x0, symName: __ZNSt3__112construct_atB8ne180100INS_10shared_ptrIN7testing8internal26ParameterizedTestSuiteInfoIN12_GLOBAL__N_115CaesarDec_CleanEE8TestInfoEEEJS9_EPS9_EEPT_SC_DpOT0_, symObjAddr: 0x371D8, symBinAddr: 0x100038888, symSize: 0xD8 }
  - { offset: 0x4A1BC, size: 0x8, addend: 0x0, symName: __ZNSt3__14prevB8ne180100IPNS_10shared_ptrIN7testing8internal26ParameterizedTestSuiteInfoIN12_GLOBAL__N_115CaesarDec_CleanEE8TestInfoEEETnNS_9enable_ifIXsr29__has_input_iterator_categoryIT_EE5valueEiE4typeELi0EEESC_SC_NS_15iterator_traitsISC_E15difference_typeE, symObjAddr: 0x37648, symBinAddr: 0x100038CF8, symSize: 0x190 }
  - { offset: 0x4A20C, size: 0x8, addend: 0x0, symName: __ZNSt3__19__advanceB8ne180100IPNS_10shared_ptrIN7testing8internal26ParameterizedTestSuiteInfoIN12_GLOBAL__N_115CaesarDec_CleanEE8TestInfoEEEEEvRT_NS_15iterator_traitsISB_E15difference_typeENS_26random_access_iterator_tagE, symObjAddr: 0x37848, symBinAddr: 0x100038EF8, symSize: 0xF8 }
  - { offset: 0x4A256, size: 0x8, addend: 0x0, symName: __ZNSt3__119__allocator_destroyB8ne180100INS_9allocatorINS_10shared_ptrIN7testing8internal26ParameterizedTestSuiteInfoIN12_GLOBAL__N_115CaesarDec_CleanEE8TestInfoEEEEENS_16reverse_iteratorINSC_IPSA_EEEESF_EEvRT_T0_T1_, symObjAddr: 0x37D88, symBinAddr: 0x100039438, symSize: 0x2F8 }
  - { offset: 0x4A2C2, size: 0x8, addend: 0x0, symName: __ZNSt3__1neB8ne180100INS_16reverse_iteratorIPNS_10shared_ptrIN7testing8internal26ParameterizedTestSuiteInfoIN12_GLOBAL__N_115CaesarDec_CleanEE8TestInfoEEEEESC_EEbRKNS1_IT_EERKNS1_IT0_EEQrqXnecldtfp_4baseEcldtfp0_4baseERNS_14convertible_toIbEEE, symObjAddr: 0x380E8, symBinAddr: 0x100039798, symSize: 0x220 }
  - { offset: 0x4A310, size: 0x8, addend: 0x0, symName: __ZNSt3__112__to_addressB8ne180100INS_16reverse_iteratorINS1_IPNS_10shared_ptrIN7testing8internal26ParameterizedTestSuiteInfoIN12_GLOBAL__N_115CaesarDec_CleanEE8TestInfoEEEEEEEvEEu7__decayIDTclsr19__to_address_helperIT_EE6__callclsr3stdE7declvalIRKSE_EEEEESG_, symObjAddr: 0x38338, symBinAddr: 0x1000399E8, symSize: 0x58 }
  - { offset: 0x4A347, size: 0x8, addend: 0x0, symName: __ZNSt3__112__destroy_atB8ne180100INS_10shared_ptrIN7testing8internal26ParameterizedTestSuiteInfoIN12_GLOBAL__N_115CaesarDec_CleanEE8TestInfoEEETnNS_9enable_ifIXntsr8is_arrayIT_EE5valueEiE4typeELi0EEEvPSB_, symObjAddr: 0x384C8, symBinAddr: 0x100039B78, symSize: 0x58 }
  - { offset: 0x4A37F, size: 0x8, addend: 0x0, symName: __ZNSt3__134__libcpp_atomic_refcount_decrementB8ne180100IlEET_RS1_, symObjAddr: 0x38AD8, symBinAddr: 0x10003A188, symSize: 0x80 }
  - { offset: 0x4A3DF, size: 0x8, addend: 0x0, symName: __ZNSt3__14prevB8ne180100INS_16reverse_iteratorIPNS_10shared_ptrIN7testing8internal26ParameterizedTestSuiteInfoIN12_GLOBAL__N_115CaesarDec_CleanEE8TestInfoEEEEETnNS_9enable_ifIXsr29__has_input_iterator_categoryIT_EE5valueEiE4typeELi0EEESE_SE_NS_15iterator_traitsISE_E15difference_typeE, symObjAddr: 0x38D88, symBinAddr: 0x10003A438, symSize: 0x1E0 }
  - { offset: 0x4A42F, size: 0x8, addend: 0x0, symName: __ZNSt3__19__advanceB8ne180100INS_16reverse_iteratorIPNS_10shared_ptrIN7testing8internal26ParameterizedTestSuiteInfoIN12_GLOBAL__N_115CaesarDec_CleanEE8TestInfoEEEEEEEvRT_NS_15iterator_traitsISD_E15difference_typeENS_26random_access_iterator_tagE, symObjAddr: 0x38FD8, symBinAddr: 0x10003A688, symSize: 0x68 }
  - { offset: 0x4A479, size: 0x8, addend: 0x0, symName: __ZNSt3__13getB8ne180100ILm0EJNS_12basic_stringIcNS_11char_traitsIcEENS_9allocatorIcEEEES6_EEERKNS_13tuple_elementIXT_ENS_5tupleIJDpT0_EEEE4typeERKSB_, symObjAddr: 0x3C518, symBinAddr: 0x10003DBC8, symSize: 0xB0 }
  - { offset: 0x4A4C1, size: 0x8, addend: 0x0, symName: __ZNSt3__13getB8ne180100ILm1EJNS_12basic_stringIcNS_11char_traitsIcEENS_9allocatorIcEEEES6_EEERKNS_13tuple_elementIXT_ENS_5tupleIJDpT0_EEEE4typeERKSB_, symObjAddr: 0x3C5C8, symBinAddr: 0x10003DC78, symSize: 0xC0 }
  - { offset: 0x4A509, size: 0x8, addend: 0x0, symName: __ZNSt3__110make_tupleB8ne180100IJRA1_KcS3_EEENS_5tupleIJDpNS_18__unwrap_ref_decayIT_E4typeEEEEDpOS6_, symObjAddr: 0x3D818, symBinAddr: 0x10003EEC8, symSize: 0x1B0 }
  - { offset: 0x4A558, size: 0x8, addend: 0x0, symName: __ZNSt3__110make_tupleB8ne180100IJRA17_KcS3_EEENS_5tupleIJDpNS_18__unwrap_ref_decayIT_E4typeEEEEDpOS6_, symObjAddr: 0x3D9C8, symBinAddr: 0x10003F078, symSize: 0x1B0 }
  - { offset: 0x4A5A7, size: 0x8, addend: 0x0, symName: __ZNSt3__110make_tupleB8ne180100IJRA24_KcRA1_S1_EEENS_5tupleIJDpNS_18__unwrap_ref_decayIT_E4typeEEEEDpOS8_, symObjAddr: 0x3DB78, symBinAddr: 0x10003F228, symSize: 0x1B0 }
  - { offset: 0x4A5F6, size: 0x8, addend: 0x0, symName: __ZNSt3__110make_tupleB8ne180100IJRA6_KcRA4_S1_EEENS_5tupleIJDpNS_18__unwrap_ref_decayIT_E4typeEEEEDpOS8_, symObjAddr: 0x3DD28, symBinAddr: 0x10003F3D8, symSize: 0x1A8 }
  - { offset: 0x4A686, size: 0x8, addend: 0x0, symName: __ZNSt3__18distanceB8ne180100INS_11__wrap_iterIPKNS_5tupleIJNS_12basic_stringIcNS_11char_traitsIcEENS_9allocatorIcEEEES8_EEEEEEENS_15iterator_traitsIT_E15difference_typeESE_SE_, symObjAddr: 0x40A58, symBinAddr: 0x100042108, symSize: 0x48 }
  - { offset: 0x4A6C9, size: 0x8, addend: 0x0, symName: __ZNSt3__110__distanceB8ne180100INS_11__wrap_iterIPKNS_5tupleIJNS_12basic_stringIcNS_11char_traitsIcEENS_9allocatorIcEEEES8_EEEEEEENS_15iterator_traitsIT_E15difference_typeESE_SE_NS_26random_access_iterator_tagE, symObjAddr: 0x41098, symBinAddr: 0x100042748, symSize: 0x190 }
  - { offset: 0x4A720, size: 0x8, addend: 0x0, symName: __ZNSt3__1miB8ne180100IPKNS_5tupleIJNS_12basic_stringIcNS_11char_traitsIcEENS_9allocatorIcEEEES7_EEESA_EEDTmicldtfp_4baseEcldtfp0_4baseEERKNS_11__wrap_iterIT_EERKNSC_IT0_EE, symObjAddr: 0x41228, symBinAddr: 0x1000428D8, symSize: 0x98 }
  - { offset: 0x4A76C, size: 0x8, addend: 0x0, symName: __ZNSt3__122__make_exception_guardB8ne180100INS_6vectorINS_5tupleIJNS_12basic_stringIcNS_11char_traitsIcEENS_9allocatorIcEEEES8_EEENS6_IS9_EEE16__destroy_vectorEEENS_28__exception_guard_exceptionsIT_EESE_, symObjAddr: 0x41348, symBinAddr: 0x1000429F8, symSize: 0x78 }
  - { offset: 0x4A7A1, size: 0x8, addend: 0x0, symName: __ZNSt3__119__allocate_at_leastB8ne180100INS_9allocatorINS_5tupleIJNS_12basic_stringIcNS_11char_traitsIcEENS1_IcEEEES7_EEEEEEENS_19__allocation_resultINS_16allocator_traitsIT_E7pointerEEERSC_m, symObjAddr: 0x421D8, symBinAddr: 0x100043888, symSize: 0x38 }
  - { offset: 0x4A7E4, size: 0x8, addend: 0x0, symName: __ZNSt3__112__to_addressB8ne180100INS_5tupleIJNS_12basic_stringIcNS_11char_traitsIcEENS_9allocatorIcEEEES7_EEEEEPT_SA_, symObjAddr: 0x42CB8, symBinAddr: 0x100044368, symSize: 0x18 }
  - { offset: 0x4A819, size: 0x8, addend: 0x0, symName: __ZNSt3__130__uninitialized_allocator_copyB8ne180100INS_9allocatorINS_5tupleIJNS_12basic_stringIcNS_11char_traitsIcEENS1_IcEEEES7_EEEEENS_11__wrap_iterIPKS8_EESD_PS8_EET2_RT_T0_T1_SF_, symObjAddr: 0x42F58, symBinAddr: 0x100044608, symSize: 0x278 }
  - { offset: 0x4A8BF, size: 0x8, addend: 0x0, symName: __ZNSt3__114__unwrap_rangeB8ne180100INS_11__wrap_iterIPKNS_5tupleIJNS_12basic_stringIcNS_11char_traitsIcEENS_9allocatorIcEEEES8_EEEEESC_EEDaT_T0_, symObjAddr: 0x43798, symBinAddr: 0x100044E48, symSize: 0x70 }
  - { offset: 0x4A90B, size: 0x8, addend: 0x0, symName: __ZNSt3__135__uninitialized_allocator_copy_implB8ne180100INS_9allocatorINS_5tupleIJNS_12basic_stringIcNS_11char_traitsIcEENS1_IcEEEES7_EEEEEPKS8_SB_PS8_EET2_RT_T0_T1_SD_, symObjAddr: 0x43808, symBinAddr: 0x100044EB8, symSize: 0x520 }
  - { offset: 0x4A9B7, size: 0x8, addend: 0x0, symName: __ZNSt3__113__unwrap_iterB8ne180100IPNS_5tupleIJNS_12basic_stringIcNS_11char_traitsIcEENS_9allocatorIcEEEES7_EEENS_18__unwrap_iter_implIS9_Lb1EEETnNS_9enable_ifIXsr21is_copy_constructibleIT_EE5valueEiE4typeELi0EEEDTclsrT0_8__unwrapclsr3stdE7declvalISD_EEEESD_, symObjAddr: 0x43D28, symBinAddr: 0x1000453D8, symSize: 0x30 }
  - { offset: 0x4A9FC, size: 0x8, addend: 0x0, symName: __ZNSt3__113__rewrap_iterB8ne180100IPNS_5tupleIJNS_12basic_stringIcNS_11char_traitsIcEENS_9allocatorIcEEEES7_EEES9_NS_18__unwrap_iter_implIS9_Lb1EEEEET_SC_T0_, symObjAddr: 0x43D58, symBinAddr: 0x100045408, symSize: 0x50 }
  - { offset: 0x4AB54, size: 0x8, addend: 0x0, symName: __ZNSt3__113__unwrap_iterB8ne180100INS_11__wrap_iterIPKNS_5tupleIJNS_12basic_stringIcNS_11char_traitsIcEENS_9allocatorIcEEEES8_EEEEENS_18__unwrap_iter_implISC_Lb1EEETnNS_9enable_ifIXsr21is_copy_constructibleIT_EE5valueEiE4typeELi0EEEDTclsrT0_8__unwrapclsr3stdE7declvalISG_EEEESG_, symObjAddr: 0x43FE8, symBinAddr: 0x100045698, symSize: 0x38 }
  - { offset: 0x4ABEC, size: 0x8, addend: 0x0, symName: __ZNSt3__112__to_addressB8ne180100INS_11__wrap_iterIPKNS_5tupleIJNS_12basic_stringIcNS_11char_traitsIcEENS_9allocatorIcEEEES8_EEEEEvEEu7__decayIDTclsr19__to_address_helperIT_EE6__callclsr3stdE7declvalIRKSD_EEEEESF_, symObjAddr: 0x441D8, symBinAddr: 0x100045888, symSize: 0x60 }
  - { offset: 0x4ACC8, size: 0x8, addend: 0x0, symName: __ZNSt3__112__to_addressB8ne180100IKNS_5tupleIJNS_12basic_stringIcNS_11char_traitsIcEENS_9allocatorIcEEEES7_EEEEEPT_SB_, symObjAddr: 0x443C8, symBinAddr: 0x100045A78, symSize: 0x18 }
  - { offset: 0x4ACFD, size: 0x8, addend: 0x0, symName: __ZNSt3__122__make_exception_guardB8ne180100INS_29_AllocatorDestroyRangeReverseINS_9allocatorINS_5tupleIJNS_12basic_stringIcNS_11char_traitsIcEENS2_IcEEEES8_EEEEEPS9_EEEENS_28__exception_guard_exceptionsIT_EESE_, symObjAddr: 0x44578, symBinAddr: 0x100045C28, symSize: 0x1F8 }
  - { offset: 0x4AD36, size: 0x8, addend: 0x0, symName: __ZNSt3__114__construct_atB8ne180100INS_5tupleIJNS_12basic_stringIcNS_11char_traitsIcEENS_9allocatorIcEEEES7_EEEJRKS8_EPS8_EEPT_SD_DpOT0_, symObjAddr: 0x44F78, symBinAddr: 0x100046628, symSize: 0x70 }
  - { offset: 0x4ADB0, size: 0x8, addend: 0x0, symName: __ZNSt3__112construct_atB8ne180100INS_5tupleIJNS_12basic_stringIcNS_11char_traitsIcEENS_9allocatorIcEEEES7_EEEJRKS8_EPS8_EEPT_SD_DpOT0_, symObjAddr: 0x44FE8, symBinAddr: 0x100046698, symSize: 0xD8 }
  - { offset: 0x4AE22, size: 0x8, addend: 0x0, symName: __ZNSt3__119__allocator_destroyB8ne180100INS_9allocatorINS_5tupleIJNS_12basic_stringIcNS_11char_traitsIcEENS1_IcEEEES7_EEEEENS_16reverse_iteratorIPS8_EESC_EEvRT_T0_T1_, symObjAddr: 0x454C8, symBinAddr: 0x100046B78, symSize: 0x1F8 }
  - { offset: 0x4AE8E, size: 0x8, addend: 0x0, symName: __ZNSt3__1neB8ne180100IPNS_5tupleIJNS_12basic_stringIcNS_11char_traitsIcEENS_9allocatorIcEEEES7_EEES9_EEbRKNS_16reverse_iteratorIT_EERKNSA_IT0_EEQrqXnecldtfp_4baseEcldtfp0_4baseERNS_14convertible_toIbEEE, symObjAddr: 0x45728, symBinAddr: 0x100046DD8, symSize: 0xA0 }
  - { offset: 0x4AEDA, size: 0x8, addend: 0x0, symName: __ZNSt3__112__to_addressB8ne180100INS_16reverse_iteratorIPNS_5tupleIJNS_12basic_stringIcNS_11char_traitsIcEENS_9allocatorIcEEEES8_EEEEEvEEu7__decayIDTclsr19__to_address_helperIT_EE6__callclsr3stdE7declvalIRKSC_EEEEESE_, symObjAddr: 0x457F8, symBinAddr: 0x100046EA8, symSize: 0x58 }
  - { offset: 0x4AF11, size: 0x8, addend: 0x0, symName: __ZNSt3__112__destroy_atB8ne180100INS_5tupleIJNS_12basic_stringIcNS_11char_traitsIcEENS_9allocatorIcEEEES7_EEETnNS_9enable_ifIXntsr8is_arrayIT_EE5valueEiE4typeELi0EEEvPSA_, symObjAddr: 0x45A08, symBinAddr: 0x1000470B8, symSize: 0x60 }
  - { offset: 0x4AF73, size: 0x8, addend: 0x0, symName: __ZNSt3__14prevB8ne180100IPNS_5tupleIJNS_12basic_stringIcNS_11char_traitsIcEENS_9allocatorIcEEEES7_EEETnNS_9enable_ifIXsr29__has_input_iterator_categoryIT_EE5valueEiE4typeELi0EEESB_SB_NS_15iterator_traitsISB_E15difference_typeE, symObjAddr: 0x45B68, symBinAddr: 0x100047218, symSize: 0x190 }
  - { offset: 0x4AFC3, size: 0x8, addend: 0x0, symName: __ZNSt3__19__advanceB8ne180100IPNS_5tupleIJNS_12basic_stringIcNS_11char_traitsIcEENS_9allocatorIcEEEES7_EEEEEvRT_NS_15iterator_traitsISA_E15difference_typeENS_26random_access_iterator_tagE, symObjAddr: 0x45D68, symBinAddr: 0x100047418, symSize: 0xF8 }
  - { offset: 0x4B060, size: 0x8, addend: 0x0, symName: __ZNSt3__14endlB8ne180100IcNS_11char_traitsIcEEEERNS_13basic_ostreamIT_T0_EES7_, symObjAddr: 0x493E8, symBinAddr: 0x10004AA98, symSize: 0x3C0 }
  - { offset: 0x4B0A0, size: 0x8, addend: 0x0, symName: __ZNSt3__1eqB8ne180100IPKNS_5tupleIJNS_12basic_stringIcNS_11char_traitsIcEENS_9allocatorIcEEEES7_EEEEEbRKNS_11__wrap_iterIT_EESF_, symObjAddr: 0x497A8, symBinAddr: 0x10004AE58, symSize: 0xA0 }
  - { offset: 0x4BB0D, size: 0x8, addend: 0x0, symName: __ZNSt3__13getB8ne180100ILm0EJPKcS2_EEERKNS_13tuple_elementIXT_ENS_5tupleIJDpT0_EEEE4typeERKS7_, symObjAddr: 0x4D338, symBinAddr: 0x10004E9E8, symSize: 0xA8 }
  - { offset: 0x4BB54, size: 0x8, addend: 0x0, symName: __ZNSt3__13getB8ne180100ILm1EJPKcS2_EEERKNS_13tuple_elementIXT_ENS_5tupleIJDpT0_EEEE4typeERKS7_, symObjAddr: 0x4D4A8, symBinAddr: 0x10004EB58, symSize: 0xB8 }
  - { offset: 0x4BB9B, size: 0x8, addend: 0x0, symName: __ZNSt3__130__uninitialized_allocator_copyB8ne180100INS_9allocatorINS_5tupleIJNS_12basic_stringIcNS_11char_traitsIcEENS1_IcEEEES7_EEEEEPKS8_SB_PS8_EET2_RT_T0_T1_SD_, symObjAddr: 0x4E178, symBinAddr: 0x10004F828, symSize: 0x230 }
  - { offset: 0x4BC41, size: 0x8, addend: 0x0, symName: __ZNSt3__114__unwrap_rangeB8ne180100IPKNS_5tupleIJNS_12basic_stringIcNS_11char_traitsIcEENS_9allocatorIcEEEES7_EEESA_EEDaT_T0_, symObjAddr: 0x4E3A8, symBinAddr: 0x10004FA58, symSize: 0x40 }
  - { offset: 0x4BCC3, size: 0x8, addend: 0x0, symName: __ZNSt3__113__unwrap_iterB8ne180100IPKNS_5tupleIJNS_12basic_stringIcNS_11char_traitsIcEENS_9allocatorIcEEEES7_EEENS_18__unwrap_iter_implISA_Lb1EEETnNS_9enable_ifIXsr21is_copy_constructibleIT_EE5valueEiE4typeELi0EEEDTclsrT0_8__unwrapclsr3stdE7declvalISE_EEEESE_, symObjAddr: 0x4E5D8, symBinAddr: 0x10004FC88, symSize: 0x30 }
  - { offset: 0x4BD5B, size: 0x8, addend: 0x0, symName: __ZNSt3__110make_tupleB8ne180100IJN7testing8internal10ValueArrayIJNS_5tupleIJPKcS6_EEES7_S7_S7_EEEEEENS4_IJDpNS_18__unwrap_ref_decayIT_E4typeEEEEDpOSA_, symObjAddr: 0x4E8D8, symBinAddr: 0x10004FF88, symSize: 0x98 }
  - { offset: 0x4BDA9, size: 0x8, addend: 0x0, symName: __ZNSt3__112__to_addressB8ne180100INS_10shared_ptrIN7testing8internal26ParameterizedTestSuiteInfoIN12_GLOBAL__N_121CaesarDec_SplitSpacesEE8TestInfoEEEEEPT_SB_, symObjAddr: 0x50008, symBinAddr: 0x1000516B8, symSize: 0x18 }
  - { offset: 0x4BDDE, size: 0x8, addend: 0x0, symName: __ZNSt3__114__construct_atB8ne180100INS_10shared_ptrIN7testing8internal26ParameterizedTestSuiteInfoIN12_GLOBAL__N_121CaesarDec_SplitSpacesEE8TestInfoEEEJPS8_EPS9_EEPT_SD_DpOT0_, symObjAddr: 0x50A68, symBinAddr: 0x100052118, symSize: 0x70 }
  - { offset: 0x4BE58, size: 0x8, addend: 0x0, symName: __ZNSt3__112construct_atB8ne180100INS_10shared_ptrIN7testing8internal26ParameterizedTestSuiteInfoIN12_GLOBAL__N_121CaesarDec_SplitSpacesEE8TestInfoEEEJPS8_EPS9_EEPT_SD_DpOT0_, symObjAddr: 0x50AD8, symBinAddr: 0x100052188, symSize: 0xF8 }
  - { offset: 0x4C91C, size: 0x8, addend: 0x0, symName: __ZNSt3__119__allocate_at_leastB8ne180100INS_9allocatorINS_10shared_ptrIN7testing8internal26ParameterizedTestSuiteInfoIN12_GLOBAL__N_121CaesarDec_SplitSpacesEE8TestInfoEEEEEEENS_19__allocation_resultINS_16allocator_traitsIT_E7pointerEEERSE_m, symObjAddr: 0x55A88, symBinAddr: 0x100057138, symSize: 0x38 }
  - { offset: 0x4C95F, size: 0x8, addend: 0x0, symName: __ZNSt3__142__uninitialized_allocator_move_if_noexceptB8ne180100INS_9allocatorINS_10shared_ptrIN7testing8internal26ParameterizedTestSuiteInfoIN12_GLOBAL__N_121CaesarDec_SplitSpacesEE8TestInfoEEEEENS_16reverse_iteratorIPSA_EESE_SE_EET2_RT_T0_T1_SF_, symObjAddr: 0x562E8, symBinAddr: 0x100057998, symSize: 0x578 }
  - { offset: 0x4CA13, size: 0x8, addend: 0x0, symName: __ZNSt3__14swapB8ne180100IPNS_10shared_ptrIN7testing8internal26ParameterizedTestSuiteInfoIN12_GLOBAL__N_121CaesarDec_SplitSpacesEE8TestInfoEEEEENS_9enable_ifIXaasr21is_move_constructibleIT_EE5valuesr18is_move_assignableISC_EE5valueEvE4typeERSC_SF_, symObjAddr: 0x56948, symBinAddr: 0x100057FF8, symSize: 0x168 }
  - { offset: 0x4CA64, size: 0x8, addend: 0x0, symName: __ZNSt3__122__make_exception_guardB8ne180100INS_29_AllocatorDestroyRangeReverseINS_9allocatorINS_10shared_ptrIN7testing8internal26ParameterizedTestSuiteInfoIN12_GLOBAL__N_121CaesarDec_SplitSpacesEE8TestInfoEEEEENS_16reverse_iteratorIPSB_EEEEEENS_28__exception_guard_exceptionsIT_EESI_, symObjAddr: 0x56C18, symBinAddr: 0x1000582C8, symSize: 0x1F8 }
  - { offset: 0x4CA9D, size: 0x8, addend: 0x0, symName: __ZNSt3__1neB8ne180100IPNS_10shared_ptrIN7testing8internal26ParameterizedTestSuiteInfoIN12_GLOBAL__N_121CaesarDec_SplitSpacesEE8TestInfoEEESA_EEbRKNS_16reverse_iteratorIT_EERKNSB_IT0_EEQrqXnecldtfp_4baseEcldtfp0_4baseERNS_14convertible_toIbEEE, symObjAddr: 0x56E88, symBinAddr: 0x100058538, symSize: 0xA0 }
  - { offset: 0x4CAE9, size: 0x8, addend: 0x0, symName: __ZNSt3__112__to_addressB8ne180100INS_16reverse_iteratorIPNS_10shared_ptrIN7testing8internal26ParameterizedTestSuiteInfoIN12_GLOBAL__N_121CaesarDec_SplitSpacesEE8TestInfoEEEEEvEEu7__decayIDTclsr19__to_address_helperIT_EE6__callclsr3stdE7declvalIRKSD_EEEEESF_, symObjAddr: 0x56F98, symBinAddr: 0x100058648, symSize: 0x58 }
  - { offset: 0x4CB1F, size: 0x8, addend: 0x0, symName: __ZNSt3__114__construct_atB8ne180100INS_10shared_ptrIN7testing8internal26ParameterizedTestSuiteInfoIN12_GLOBAL__N_121CaesarDec_SplitSpacesEE8TestInfoEEEJS9_EPS9_EEPT_SC_DpOT0_, symObjAddr: 0x57958, symBinAddr: 0x100059008, symSize: 0x70 }
  - { offset: 0x4CB72, size: 0x8, addend: 0x0, symName: __ZNSt3__112construct_atB8ne180100INS_10shared_ptrIN7testing8internal26ParameterizedTestSuiteInfoIN12_GLOBAL__N_121CaesarDec_SplitSpacesEE8TestInfoEEEJS9_EPS9_EEPT_SC_DpOT0_, symObjAddr: 0x579C8, symBinAddr: 0x100059078, symSize: 0xD8 }
  - { offset: 0x4CC0F, size: 0x8, addend: 0x0, symName: __ZNSt3__14prevB8ne180100IPNS_10shared_ptrIN7testing8internal26ParameterizedTestSuiteInfoIN12_GLOBAL__N_121CaesarDec_SplitSpacesEE8TestInfoEEETnNS_9enable_ifIXsr29__has_input_iterator_categoryIT_EE5valueEiE4typeELi0EEESC_SC_NS_15iterator_traitsISC_E15difference_typeE, symObjAddr: 0x57E38, symBinAddr: 0x1000594E8, symSize: 0x190 }
  - { offset: 0x4CC5F, size: 0x8, addend: 0x0, symName: __ZNSt3__19__advanceB8ne180100IPNS_10shared_ptrIN7testing8internal26ParameterizedTestSuiteInfoIN12_GLOBAL__N_121CaesarDec_SplitSpacesEE8TestInfoEEEEEvRT_NS_15iterator_traitsISB_E15difference_typeENS_26random_access_iterator_tagE, symObjAddr: 0x58038, symBinAddr: 0x1000596E8, symSize: 0xF8 }
  - { offset: 0x4CCA9, size: 0x8, addend: 0x0, symName: __ZNSt3__119__allocator_destroyB8ne180100INS_9allocatorINS_10shared_ptrIN7testing8internal26ParameterizedTestSuiteInfoIN12_GLOBAL__N_121CaesarDec_SplitSpacesEE8TestInfoEEEEENS_16reverse_iteratorINSC_IPSA_EEEESF_EEvRT_T0_T1_, symObjAddr: 0x58578, symBinAddr: 0x100059C28, symSize: 0x2F8 }
  - { offset: 0x4CD15, size: 0x8, addend: 0x0, symName: __ZNSt3__1neB8ne180100INS_16reverse_iteratorIPNS_10shared_ptrIN7testing8internal26ParameterizedTestSuiteInfoIN12_GLOBAL__N_121CaesarDec_SplitSpacesEE8TestInfoEEEEESC_EEbRKNS1_IT_EERKNS1_IT0_EEQrqXnecldtfp_4baseEcldtfp0_4baseERNS_14convertible_toIbEEE, symObjAddr: 0x588D8, symBinAddr: 0x100059F88, symSize: 0x220 }
  - { offset: 0x4CD63, size: 0x8, addend: 0x0, symName: __ZNSt3__112__to_addressB8ne180100INS_16reverse_iteratorINS1_IPNS_10shared_ptrIN7testing8internal26ParameterizedTestSuiteInfoIN12_GLOBAL__N_121CaesarDec_SplitSpacesEE8TestInfoEEEEEEEvEEu7__decayIDTclsr19__to_address_helperIT_EE6__callclsr3stdE7declvalIRKSE_EEEEESG_, symObjAddr: 0x58B28, symBinAddr: 0x10005A1D8, symSize: 0x58 }
  - { offset: 0x4CD9A, size: 0x8, addend: 0x0, symName: __ZNSt3__112__destroy_atB8ne180100INS_10shared_ptrIN7testing8internal26ParameterizedTestSuiteInfoIN12_GLOBAL__N_121CaesarDec_SplitSpacesEE8TestInfoEEETnNS_9enable_ifIXntsr8is_arrayIT_EE5valueEiE4typeELi0EEEvPSB_, symObjAddr: 0x58CB8, symBinAddr: 0x10005A368, symSize: 0x58 }
  - { offset: 0x4CDFD, size: 0x8, addend: 0x0, symName: __ZNSt3__14prevB8ne180100INS_16reverse_iteratorIPNS_10shared_ptrIN7testing8internal26ParameterizedTestSuiteInfoIN12_GLOBAL__N_121CaesarDec_SplitSpacesEE8TestInfoEEEEETnNS_9enable_ifIXsr29__has_input_iterator_categoryIT_EE5valueEiE4typeELi0EEESE_SE_NS_15iterator_traitsISE_E15difference_typeE, symObjAddr: 0x59138, symBinAddr: 0x10005A7E8, symSize: 0x1E0 }
  - { offset: 0x4CE4D, size: 0x8, addend: 0x0, symName: __ZNSt3__19__advanceB8ne180100INS_16reverse_iteratorIPNS_10shared_ptrIN7testing8internal26ParameterizedTestSuiteInfoIN12_GLOBAL__N_121CaesarDec_SplitSpacesEE8TestInfoEEEEEEEvRT_NS_15iterator_traitsISD_E15difference_typeENS_26random_access_iterator_tagE, symObjAddr: 0x59388, symBinAddr: 0x10005AA38, symSize: 0x68 }
  - { offset: 0x4CE97, size: 0x8, addend: 0x0, symName: __ZNSt3__130__uninitialized_allocator_copyB8ne180100INS_9allocatorINS_12basic_stringIcNS_11char_traitsIcEENS1_IcEEEEEEPS6_S8_S8_EET2_RT_T0_T1_S9_, symObjAddr: 0x5BBC8, symBinAddr: 0x10005D278, symSize: 0x230 }
  - { offset: 0x4CF3D, size: 0x8, addend: 0x0, symName: __ZNSt3__114__unwrap_rangeB8ne180100IPNS_12basic_stringIcNS_11char_traitsIcEENS_9allocatorIcEEEES7_EEDaT_T0_, symObjAddr: 0x5BDF8, symBinAddr: 0x10005D4A8, symSize: 0x40 }
  - { offset: 0x4CF89, size: 0x8, addend: 0x0, symName: __ZNSt3__135__uninitialized_allocator_copy_implB8ne180100INS_9allocatorINS_12basic_stringIcNS_11char_traitsIcEENS1_IcEEEEEEPS6_S8_S8_EET2_RT_T0_T1_S9_, symObjAddr: 0x5BE38, symBinAddr: 0x10005D4E8, symSize: 0x520 }
  - { offset: 0x4D138, size: 0x8, addend: 0x0, symName: __ZNSt3__114__construct_atB8ne180100INS_12basic_stringIcNS_11char_traitsIcEENS_9allocatorIcEEEEJRS6_EPS6_EEPT_SA_DpOT0_, symObjAddr: 0x5C7A8, symBinAddr: 0x10005DE58, symSize: 0x70 }
  - { offset: 0x4D18B, size: 0x8, addend: 0x0, symName: __ZNSt3__112construct_atB8ne180100INS_12basic_stringIcNS_11char_traitsIcEENS_9allocatorIcEEEEJRS6_EPS6_EEPT_SA_DpOT0_, symObjAddr: 0x5C818, symBinAddr: 0x10005DEC8, symSize: 0xD8 }
  - { offset: 0x4D1FD, size: 0x8, addend: 0x0, symName: __ZNSt3__13getB8ne180100ILm0EJNS_12basic_stringIcNS_11char_traitsIcEENS_9allocatorIcEEEENS_6vectorIS6_NS4_IS6_EEEEEEERKNS_13tuple_elementIXT_ENS_5tupleIJDpT0_EEEE4typeERKSE_, symObjAddr: 0x5DFD8, symBinAddr: 0x10005F688, symSize: 0xB0 }
  - { offset: 0x4D245, size: 0x8, addend: 0x0, symName: __ZNSt3__13getB8ne180100ILm1EJNS_12basic_stringIcNS_11char_traitsIcEENS_9allocatorIcEEEENS_6vectorIS6_NS4_IS6_EEEEEEERKNS_13tuple_elementIXT_ENS_5tupleIJDpT0_EEEE4typeERKSE_, symObjAddr: 0x5E088, symBinAddr: 0x10005F738, symSize: 0xB8 }
  - { offset: 0x4D28D, size: 0x8, addend: 0x0, symName: __ZNSt3__110make_tupleB8ne180100IJRA1_KcNS_6vectorINS_12basic_stringIcNS_11char_traitsIcEENS_9allocatorIcEEEENS8_ISA_EEEEEEENS_5tupleIJDpNS_18__unwrap_ref_decayIT_E4typeEEEEDpOSF_, symObjAddr: 0x5E908, symBinAddr: 0x10005FFB8, symSize: 0xD0 }
  - { offset: 0x4D2DA, size: 0x8, addend: 0x0, symName: __ZNSt3__110make_tupleB8ne180100IJRA3_KcNS_6vectorINS_12basic_stringIcNS_11char_traitsIcEENS_9allocatorIcEEEENS8_ISA_EEEEEEENS_5tupleIJDpNS_18__unwrap_ref_decayIT_E4typeEEEEDpOSF_, symObjAddr: 0x5E9D8, symBinAddr: 0x100060088, symSize: 0xD0 }
  - { offset: 0x4D327, size: 0x8, addend: 0x0, symName: __ZNSt3__110make_tupleB8ne180100IJRA9_KcNS_6vectorINS_12basic_stringIcNS_11char_traitsIcEENS_9allocatorIcEEEENS8_ISA_EEEEEEENS_5tupleIJDpNS_18__unwrap_ref_decayIT_E4typeEEEEDpOSF_, symObjAddr: 0x5EAA8, symBinAddr: 0x100060158, symSize: 0xD0 }
  - { offset: 0x4D374, size: 0x8, addend: 0x0, symName: __ZNSt3__110make_tupleB8ne180100IJRA10_KcNS_6vectorINS_12basic_stringIcNS_11char_traitsIcEENS_9allocatorIcEEEENS8_ISA_EEEEEEENS_5tupleIJDpNS_18__unwrap_ref_decayIT_E4typeEEEEDpOSF_, symObjAddr: 0x5EB78, symBinAddr: 0x100060228, symSize: 0xD0 }
  - { offset: 0x4D3C1, size: 0x8, addend: 0x0, symName: __ZNSt3__110make_tupleB8ne180100IJRA32_KcNS_6vectorINS_12basic_stringIcNS_11char_traitsIcEENS_9allocatorIcEEEENS8_ISA_EEEEEEENS_5tupleIJDpNS_18__unwrap_ref_decayIT_E4typeEEEEDpOSF_, symObjAddr: 0x5EC48, symBinAddr: 0x1000602F8, symSize: 0xD0 }
  - { offset: 0x4D40E, size: 0x8, addend: 0x0, symName: __ZNSt3__110make_tupleB8ne180100IJRA11_KcNS_6vectorINS_12basic_stringIcNS_11char_traitsIcEENS_9allocatorIcEEEENS8_ISA_EEEEEEENS_5tupleIJDpNS_18__unwrap_ref_decayIT_E4typeEEEEDpOSF_, symObjAddr: 0x5ED18, symBinAddr: 0x1000603C8, symSize: 0xD0 }
  - { offset: 0x4D45B, size: 0x8, addend: 0x0, symName: __ZNSt3__110make_tupleB8ne180100IJRA31_KcNS_6vectorINS_12basic_stringIcNS_11char_traitsIcEENS_9allocatorIcEEEENS8_ISA_EEEEEEENS_5tupleIJDpNS_18__unwrap_ref_decayIT_E4typeEEEEDpOSF_, symObjAddr: 0x5EDE8, symBinAddr: 0x100060498, symSize: 0xC8 }
  - { offset: 0x4D4CD, size: 0x8, addend: 0x0, symName: __ZNSt3__18distanceB8ne180100INS_11__wrap_iterIPKNS_5tupleIJNS_12basic_stringIcNS_11char_traitsIcEENS_9allocatorIcEEEENS_6vectorIS8_NS6_IS8_EEEEEEEEEEENS_15iterator_traitsIT_E15difference_typeESH_SH_, symObjAddr: 0x63F68, symBinAddr: 0x100065618, symSize: 0x48 }
  - { offset: 0x4D510, size: 0x8, addend: 0x0, symName: __ZNSt3__110__distanceB8ne180100INS_11__wrap_iterIPKNS_5tupleIJNS_12basic_stringIcNS_11char_traitsIcEENS_9allocatorIcEEEENS_6vectorIS8_NS6_IS8_EEEEEEEEEEENS_15iterator_traitsIT_E15difference_typeESH_SH_NS_26random_access_iterator_tagE, symObjAddr: 0x645A8, symBinAddr: 0x100065C58, symSize: 0x190 }
  - { offset: 0x4D567, size: 0x8, addend: 0x0, symName: __ZNSt3__1miB8ne180100IPKNS_5tupleIJNS_12basic_stringIcNS_11char_traitsIcEENS_9allocatorIcEEEENS_6vectorIS7_NS5_IS7_EEEEEEESD_EEDTmicldtfp_4baseEcldtfp0_4baseEERKNS_11__wrap_iterIT_EERKNSF_IT0_EE, symObjAddr: 0x64738, symBinAddr: 0x100065DE8, symSize: 0x98 }
  - { offset: 0x4D5B3, size: 0x8, addend: 0x0, symName: __ZNSt3__122__make_exception_guardB8ne180100INS_6vectorINS_5tupleIJNS_12basic_stringIcNS_11char_traitsIcEENS_9allocatorIcEEEENS1_IS8_NS6_IS8_EEEEEEENS6_ISB_EEE16__destroy_vectorEEENS_28__exception_guard_exceptionsIT_EESG_, symObjAddr: 0x64858, symBinAddr: 0x100065F08, symSize: 0x78 }
  - { offset: 0x4D5E8, size: 0x8, addend: 0x0, symName: __ZNSt3__119__allocate_at_leastB8ne180100INS_9allocatorINS_5tupleIJNS_12basic_stringIcNS_11char_traitsIcEENS1_IcEEEENS_6vectorIS7_NS1_IS7_EEEEEEEEEEENS_19__allocation_resultINS_16allocator_traitsIT_E7pointerEEERSF_m, symObjAddr: 0x656E8, symBinAddr: 0x100066D98, symSize: 0x38 }
  - { offset: 0x4D62B, size: 0x8, addend: 0x0, symName: __ZNSt3__112__to_addressB8ne180100INS_5tupleIJNS_12basic_stringIcNS_11char_traitsIcEENS_9allocatorIcEEEENS_6vectorIS7_NS5_IS7_EEEEEEEEEPT_SD_, symObjAddr: 0x661C8, symBinAddr: 0x100067878, symSize: 0x18 }
  - { offset: 0x4D660, size: 0x8, addend: 0x0, symName: __ZNSt3__130__uninitialized_allocator_copyB8ne180100INS_9allocatorINS_5tupleIJNS_12basic_stringIcNS_11char_traitsIcEENS1_IcEEEENS_6vectorIS7_NS1_IS7_EEEEEEEEENS_11__wrap_iterIPKSB_EESG_PSB_EET2_RT_T0_T1_SI_, symObjAddr: 0x66468, symBinAddr: 0x100067B18, symSize: 0x278 }
  - { offset: 0x4D706, size: 0x8, addend: 0x0, symName: __ZNSt3__114__unwrap_rangeB8ne180100INS_11__wrap_iterIPKNS_5tupleIJNS_12basic_stringIcNS_11char_traitsIcEENS_9allocatorIcEEEENS_6vectorIS8_NS6_IS8_EEEEEEEEESF_EEDaT_T0_, symObjAddr: 0x66CA8, symBinAddr: 0x100068358, symSize: 0x70 }
  - { offset: 0x4D752, size: 0x8, addend: 0x0, symName: __ZNSt3__135__uninitialized_allocator_copy_implB8ne180100INS_9allocatorINS_5tupleIJNS_12basic_stringIcNS_11char_traitsIcEENS1_IcEEEENS_6vectorIS7_NS1_IS7_EEEEEEEEEPKSB_SE_PSB_EET2_RT_T0_T1_SG_, symObjAddr: 0x66D18, symBinAddr: 0x1000683C8, symSize: 0x520 }
  - { offset: 0x4D7FE, size: 0x8, addend: 0x0, symName: __ZNSt3__113__unwrap_iterB8ne180100IPNS_5tupleIJNS_12basic_stringIcNS_11char_traitsIcEENS_9allocatorIcEEEENS_6vectorIS7_NS5_IS7_EEEEEEENS_18__unwrap_iter_implISC_Lb1EEETnNS_9enable_ifIXsr21is_copy_constructibleIT_EE5valueEiE4typeELi0EEEDTclsrT0_8__unwrapclsr3stdE7declvalISG_EEEESG_, symObjAddr: 0x67238, symBinAddr: 0x1000688E8, symSize: 0x30 }
  - { offset: 0x4D843, size: 0x8, addend: 0x0, symName: __ZNSt3__113__rewrap_iterB8ne180100IPNS_5tupleIJNS_12basic_stringIcNS_11char_traitsIcEENS_9allocatorIcEEEENS_6vectorIS7_NS5_IS7_EEEEEEESC_NS_18__unwrap_iter_implISC_Lb1EEEEET_SF_T0_, symObjAddr: 0x67268, symBinAddr: 0x100068918, symSize: 0x50 }
  - { offset: 0x4D99B, size: 0x8, addend: 0x0, symName: __ZNSt3__113__unwrap_iterB8ne180100INS_11__wrap_iterIPKNS_5tupleIJNS_12basic_stringIcNS_11char_traitsIcEENS_9allocatorIcEEEENS_6vectorIS8_NS6_IS8_EEEEEEEEENS_18__unwrap_iter_implISF_Lb1EEETnNS_9enable_ifIXsr21is_copy_constructibleIT_EE5valueEiE4typeELi0EEEDTclsrT0_8__unwrapclsr3stdE7declvalISJ_EEEESJ_, symObjAddr: 0x674F8, symBinAddr: 0x100068BA8, symSize: 0x38 }
  - { offset: 0x4DA33, size: 0x8, addend: 0x0, symName: __ZNSt3__112__to_addressB8ne180100INS_11__wrap_iterIPKNS_5tupleIJNS_12basic_stringIcNS_11char_traitsIcEENS_9allocatorIcEEEENS_6vectorIS8_NS6_IS8_EEEEEEEEEvEEu7__decayIDTclsr19__to_address_helperIT_EE6__callclsr3stdE7declvalIRKSG_EEEEESI_, symObjAddr: 0x676E8, symBinAddr: 0x100068D98, symSize: 0x60 }
  - { offset: 0x4DB0F, size: 0x8, addend: 0x0, symName: __ZNSt3__112__to_addressB8ne180100IKNS_5tupleIJNS_12basic_stringIcNS_11char_traitsIcEENS_9allocatorIcEEEENS_6vectorIS7_NS5_IS7_EEEEEEEEEPT_SE_, symObjAddr: 0x678D8, symBinAddr: 0x100068F88, symSize: 0x18 }
  - { offset: 0x4DB44, size: 0x8, addend: 0x0, symName: __ZNSt3__122__make_exception_guardB8ne180100INS_29_AllocatorDestroyRangeReverseINS_9allocatorINS_5tupleIJNS_12basic_stringIcNS_11char_traitsIcEENS2_IcEEEENS_6vectorIS8_NS2_IS8_EEEEEEEEEPSC_EEEENS_28__exception_guard_exceptionsIT_EESH_, symObjAddr: 0x67A88, symBinAddr: 0x100069138, symSize: 0x1F8 }
  - { offset: 0x4DB7D, size: 0x8, addend: 0x0, symName: __ZNSt3__114__construct_atB8ne180100INS_5tupleIJNS_12basic_stringIcNS_11char_traitsIcEENS_9allocatorIcEEEENS_6vectorIS7_NS5_IS7_EEEEEEEJRKSB_EPSB_EEPT_SG_DpOT0_, symObjAddr: 0x68488, symBinAddr: 0x100069B38, symSize: 0x70 }
  - { offset: 0x4DBF7, size: 0x8, addend: 0x0, symName: __ZNSt3__112construct_atB8ne180100INS_5tupleIJNS_12basic_stringIcNS_11char_traitsIcEENS_9allocatorIcEEEENS_6vectorIS7_NS5_IS7_EEEEEEEJRKSB_EPSB_EEPT_SG_DpOT0_, symObjAddr: 0x684F8, symBinAddr: 0x100069BA8, symSize: 0xD8 }
  - { offset: 0x4DC69, size: 0x8, addend: 0x0, symName: __ZNSt3__119__allocator_destroyB8ne180100INS_9allocatorINS_5tupleIJNS_12basic_stringIcNS_11char_traitsIcEENS1_IcEEEENS_6vectorIS7_NS1_IS7_EEEEEEEEENS_16reverse_iteratorIPSB_EESF_EEvRT_T0_T1_, symObjAddr: 0x689D8, symBinAddr: 0x10006A088, symSize: 0x1F8 }
  - { offset: 0x4DCD5, size: 0x8, addend: 0x0, symName: __ZNSt3__1neB8ne180100IPNS_5tupleIJNS_12basic_stringIcNS_11char_traitsIcEENS_9allocatorIcEEEENS_6vectorIS7_NS5_IS7_EEEEEEESC_EEbRKNS_16reverse_iteratorIT_EERKNSD_IT0_EEQrqXnecldtfp_4baseEcldtfp0_4baseERNS_14convertible_toIbEEE, symObjAddr: 0x68C38, symBinAddr: 0x10006A2E8, symSize: 0xA0 }
  - { offset: 0x4DD21, size: 0x8, addend: 0x0, symName: __ZNSt3__112__to_addressB8ne180100INS_16reverse_iteratorIPNS_5tupleIJNS_12basic_stringIcNS_11char_traitsIcEENS_9allocatorIcEEEENS_6vectorIS8_NS6_IS8_EEEEEEEEEvEEu7__decayIDTclsr19__to_address_helperIT_EE6__callclsr3stdE7declvalIRKSF_EEEEESH_, symObjAddr: 0x68D08, symBinAddr: 0x10006A3B8, symSize: 0x58 }
  - { offset: 0x4DD58, size: 0x8, addend: 0x0, symName: __ZNSt3__112__destroy_atB8ne180100INS_5tupleIJNS_12basic_stringIcNS_11char_traitsIcEENS_9allocatorIcEEEENS_6vectorIS7_NS5_IS7_EEEEEEETnNS_9enable_ifIXntsr8is_arrayIT_EE5valueEiE4typeELi0EEEvPSD_, symObjAddr: 0x68F18, symBinAddr: 0x10006A5C8, symSize: 0x60 }
  - { offset: 0x4DDBA, size: 0x8, addend: 0x0, symName: __ZNSt3__14prevB8ne180100IPNS_5tupleIJNS_12basic_stringIcNS_11char_traitsIcEENS_9allocatorIcEEEENS_6vectorIS7_NS5_IS7_EEEEEEETnNS_9enable_ifIXsr29__has_input_iterator_categoryIT_EE5valueEiE4typeELi0EEESE_SE_NS_15iterator_traitsISE_E15difference_typeE, symObjAddr: 0x69078, symBinAddr: 0x10006A728, symSize: 0x190 }
  - { offset: 0x4DE0A, size: 0x8, addend: 0x0, symName: __ZNSt3__19__advanceB8ne180100IPNS_5tupleIJNS_12basic_stringIcNS_11char_traitsIcEENS_9allocatorIcEEEENS_6vectorIS7_NS5_IS7_EEEEEEEEEvRT_NS_15iterator_traitsISD_E15difference_typeENS_26random_access_iterator_tagE, symObjAddr: 0x69278, symBinAddr: 0x10006A928, symSize: 0xF8 }
  - { offset: 0x4DEA7, size: 0x8, addend: 0x0, symName: __ZNSt3__1eqB8ne180100IPKNS_5tupleIJNS_12basic_stringIcNS_11char_traitsIcEENS_9allocatorIcEEEENS_6vectorIS7_NS5_IS7_EEEEEEEEEbRKNS_11__wrap_iterIT_EESI_, symObjAddr: 0x6C7F8, symBinAddr: 0x10006DEA8, symSize: 0xA0 }
  - { offset: 0x4E914, size: 0x8, addend: 0x0, symName: __ZNSt3__13getB8ne180100ILm0EJPKcNS_6vectorINS_12basic_stringIcNS_11char_traitsIcEENS_9allocatorIcEEEENS7_IS9_EEEEEEERKNS_13tuple_elementIXT_ENS_5tupleIJDpT0_EEEE4typeERKSG_, symObjAddr: 0x70598, symBinAddr: 0x100071C48, symSize: 0xB0 }
  - { offset: 0x4E95B, size: 0x8, addend: 0x0, symName: __ZNSt3__13getB8ne180100ILm1EJPKcNS_6vectorINS_12basic_stringIcNS_11char_traitsIcEENS_9allocatorIcEEEENS7_IS9_EEEEEEERKNS_13tuple_elementIXT_ENS_5tupleIJDpT0_EEEE4typeERKSG_, symObjAddr: 0x70648, symBinAddr: 0x100071CF8, symSize: 0xB8 }
  - { offset: 0x4E9A2, size: 0x8, addend: 0x0, symName: __ZNSt3__130__uninitialized_allocator_copyB8ne180100INS_9allocatorINS_5tupleIJNS_12basic_stringIcNS_11char_traitsIcEENS1_IcEEEENS_6vectorIS7_NS1_IS7_EEEEEEEEEPKSB_SE_PSB_EET2_RT_T0_T1_SG_, symObjAddr: 0x711E8, symBinAddr: 0x100072898, symSize: 0x230 }
  - { offset: 0x4EA48, size: 0x8, addend: 0x0, symName: __ZNSt3__114__unwrap_rangeB8ne180100IPKNS_5tupleIJNS_12basic_stringIcNS_11char_traitsIcEENS_9allocatorIcEEEENS_6vectorIS7_NS5_IS7_EEEEEEESD_EEDaT_T0_, symObjAddr: 0x71418, symBinAddr: 0x100072AC8, symSize: 0x40 }
  - { offset: 0x4EACA, size: 0x8, addend: 0x0, symName: __ZNSt3__113__unwrap_iterB8ne180100IPKNS_5tupleIJNS_12basic_stringIcNS_11char_traitsIcEENS_9allocatorIcEEEENS_6vectorIS7_NS5_IS7_EEEEEEENS_18__unwrap_iter_implISD_Lb1EEETnNS_9enable_ifIXsr21is_copy_constructibleIT_EE5valueEiE4typeELi0EEEDTclsrT0_8__unwrapclsr3stdE7declvalISH_EEEESH_, symObjAddr: 0x71648, symBinAddr: 0x100072CF8, symSize: 0x30 }
  - { offset: 0x4EB62, size: 0x8, addend: 0x0, symName: __ZNSt3__110make_tupleB8ne180100IJN7testing8internal10ValueArrayIJNS_5tupleIJPKcNS_6vectorINS_12basic_stringIcNS_11char_traitsIcEENS_9allocatorIcEEEENSB_ISD_EEEEEEESG_SG_SG_SG_SG_SG_EEEEEENS4_IJDpNS_18__unwrap_ref_decayIT_E4typeEEEEDpOSJ_, symObjAddr: 0x71C18, symBinAddr: 0x1000732C8, symSize: 0x98 }
  - { offset: 0x4EBB0, size: 0x8, addend: 0x0, symName: __ZNSt3__112__to_addressB8ne180100INS_10shared_ptrIN7testing8internal26ParameterizedTestSuiteInfoIN12_GLOBAL__N_124CaesarDec_JoinWithSpacesEE8TestInfoEEEEEPT_SB_, symObjAddr: 0x741C8, symBinAddr: 0x100075878, symSize: 0x18 }
  - { offset: 0x4EBE5, size: 0x8, addend: 0x0, symName: __ZNSt3__114__construct_atB8ne180100INS_10shared_ptrIN7testing8internal26ParameterizedTestSuiteInfoIN12_GLOBAL__N_124CaesarDec_JoinWithSpacesEE8TestInfoEEEJPS8_EPS9_EEPT_SD_DpOT0_, symObjAddr: 0x74C28, symBinAddr: 0x1000762D8, symSize: 0x70 }
  - { offset: 0x4EC5F, size: 0x8, addend: 0x0, symName: __ZNSt3__112construct_atB8ne180100INS_10shared_ptrIN7testing8internal26ParameterizedTestSuiteInfoIN12_GLOBAL__N_124CaesarDec_JoinWithSpacesEE8TestInfoEEEJPS8_EPS9_EEPT_SD_DpOT0_, symObjAddr: 0x74C98, symBinAddr: 0x100076348, symSize: 0xF8 }
  - { offset: 0x4F723, size: 0x8, addend: 0x0, symName: __ZNSt3__119__allocate_at_leastB8ne180100INS_9allocatorINS_10shared_ptrIN7testing8internal26ParameterizedTestSuiteInfoIN12_GLOBAL__N_124CaesarDec_JoinWithSpacesEE8TestInfoEEEEEEENS_19__allocation_resultINS_16allocator_traitsIT_E7pointerEEERSE_m, symObjAddr: 0x79C48, symBinAddr: 0x10007B2F8, symSize: 0x38 }
  - { offset: 0x4F766, size: 0x8, addend: 0x0, symName: __ZNSt3__142__uninitialized_allocator_move_if_noexceptB8ne180100INS_9allocatorINS_10shared_ptrIN7testing8internal26ParameterizedTestSuiteInfoIN12_GLOBAL__N_124CaesarDec_JoinWithSpacesEE8TestInfoEEEEENS_16reverse_iteratorIPSA_EESE_SE_EET2_RT_T0_T1_SF_, symObjAddr: 0x7A4A8, symBinAddr: 0x10007BB58, symSize: 0x578 }
  - { offset: 0x4F81A, size: 0x8, addend: 0x0, symName: __ZNSt3__14swapB8ne180100IPNS_10shared_ptrIN7testing8internal26ParameterizedTestSuiteInfoIN12_GLOBAL__N_124CaesarDec_JoinWithSpacesEE8TestInfoEEEEENS_9enable_ifIXaasr21is_move_constructibleIT_EE5valuesr18is_move_assignableISC_EE5valueEvE4typeERSC_SF_, symObjAddr: 0x7AB08, symBinAddr: 0x10007C1B8, symSize: 0x168 }
  - { offset: 0x4F86B, size: 0x8, addend: 0x0, symName: __ZNSt3__122__make_exception_guardB8ne180100INS_29_AllocatorDestroyRangeReverseINS_9allocatorINS_10shared_ptrIN7testing8internal26ParameterizedTestSuiteInfoIN12_GLOBAL__N_124CaesarDec_JoinWithSpacesEE8TestInfoEEEEENS_16reverse_iteratorIPSB_EEEEEENS_28__exception_guard_exceptionsIT_EESI_, symObjAddr: 0x7ADD8, symBinAddr: 0x10007C488, symSize: 0x1F8 }
  - { offset: 0x4F8A4, size: 0x8, addend: 0x0, symName: __ZNSt3__1neB8ne180100IPNS_10shared_ptrIN7testing8internal26ParameterizedTestSuiteInfoIN12_GLOBAL__N_124CaesarDec_JoinWithSpacesEE8TestInfoEEESA_EEbRKNS_16reverse_iteratorIT_EERKNSB_IT0_EEQrqXnecldtfp_4baseEcldtfp0_4baseERNS_14convertible_toIbEEE, symObjAddr: 0x7B048, symBinAddr: 0x10007C6F8, symSize: 0xA0 }
  - { offset: 0x4F8F0, size: 0x8, addend: 0x0, symName: __ZNSt3__112__to_addressB8ne180100INS_16reverse_iteratorIPNS_10shared_ptrIN7testing8internal26ParameterizedTestSuiteInfoIN12_GLOBAL__N_124CaesarDec_JoinWithSpacesEE8TestInfoEEEEEvEEu7__decayIDTclsr19__to_address_helperIT_EE6__callclsr3stdE7declvalIRKSD_EEEEESF_, symObjAddr: 0x7B158, symBinAddr: 0x10007C808, symSize: 0x58 }
  - { offset: 0x4F926, size: 0x8, addend: 0x0, symName: __ZNSt3__114__construct_atB8ne180100INS_10shared_ptrIN7testing8internal26ParameterizedTestSuiteInfoIN12_GLOBAL__N_124CaesarDec_JoinWithSpacesEE8TestInfoEEEJS9_EPS9_EEPT_SC_DpOT0_, symObjAddr: 0x7BB18, symBinAddr: 0x10007D1C8, symSize: 0x70 }
  - { offset: 0x4F979, size: 0x8, addend: 0x0, symName: __ZNSt3__112construct_atB8ne180100INS_10shared_ptrIN7testing8internal26ParameterizedTestSuiteInfoIN12_GLOBAL__N_124CaesarDec_JoinWithSpacesEE8TestInfoEEEJS9_EPS9_EEPT_SC_DpOT0_, symObjAddr: 0x7BB88, symBinAddr: 0x10007D238, symSize: 0xD8 }
  - { offset: 0x4FA16, size: 0x8, addend: 0x0, symName: __ZNSt3__14prevB8ne180100IPNS_10shared_ptrIN7testing8internal26ParameterizedTestSuiteInfoIN12_GLOBAL__N_124CaesarDec_JoinWithSpacesEE8TestInfoEEETnNS_9enable_ifIXsr29__has_input_iterator_categoryIT_EE5valueEiE4typeELi0EEESC_SC_NS_15iterator_traitsISC_E15difference_typeE, symObjAddr: 0x7BFF8, symBinAddr: 0x10007D6A8, symSize: 0x190 }
  - { offset: 0x4FA66, size: 0x8, addend: 0x0, symName: __ZNSt3__19__advanceB8ne180100IPNS_10shared_ptrIN7testing8internal26ParameterizedTestSuiteInfoIN12_GLOBAL__N_124CaesarDec_JoinWithSpacesEE8TestInfoEEEEEvRT_NS_15iterator_traitsISB_E15difference_typeENS_26random_access_iterator_tagE, symObjAddr: 0x7C1F8, symBinAddr: 0x10007D8A8, symSize: 0xF8 }
  - { offset: 0x4FAB0, size: 0x8, addend: 0x0, symName: __ZNSt3__119__allocator_destroyB8ne180100INS_9allocatorINS_10shared_ptrIN7testing8internal26ParameterizedTestSuiteInfoIN12_GLOBAL__N_124CaesarDec_JoinWithSpacesEE8TestInfoEEEEENS_16reverse_iteratorINSC_IPSA_EEEESF_EEvRT_T0_T1_, symObjAddr: 0x7C738, symBinAddr: 0x10007DDE8, symSize: 0x2F8 }
  - { offset: 0x4FB1C, size: 0x8, addend: 0x0, symName: __ZNSt3__1neB8ne180100INS_16reverse_iteratorIPNS_10shared_ptrIN7testing8internal26ParameterizedTestSuiteInfoIN12_GLOBAL__N_124CaesarDec_JoinWithSpacesEE8TestInfoEEEEESC_EEbRKNS1_IT_EERKNS1_IT0_EEQrqXnecldtfp_4baseEcldtfp0_4baseERNS_14convertible_toIbEEE, symObjAddr: 0x7CA98, symBinAddr: 0x10007E148, symSize: 0x220 }
  - { offset: 0x4FB6A, size: 0x8, addend: 0x0, symName: __ZNSt3__112__to_addressB8ne180100INS_16reverse_iteratorINS1_IPNS_10shared_ptrIN7testing8internal26ParameterizedTestSuiteInfoIN12_GLOBAL__N_124CaesarDec_JoinWithSpacesEE8TestInfoEEEEEEEvEEu7__decayIDTclsr19__to_address_helperIT_EE6__callclsr3stdE7declvalIRKSE_EEEEESG_, symObjAddr: 0x7CCE8, symBinAddr: 0x10007E398, symSize: 0x58 }
  - { offset: 0x4FBA1, size: 0x8, addend: 0x0, symName: __ZNSt3__112__destroy_atB8ne180100INS_10shared_ptrIN7testing8internal26ParameterizedTestSuiteInfoIN12_GLOBAL__N_124CaesarDec_JoinWithSpacesEE8TestInfoEEETnNS_9enable_ifIXntsr8is_arrayIT_EE5valueEiE4typeELi0EEEvPSB_, symObjAddr: 0x7CE78, symBinAddr: 0x10007E528, symSize: 0x58 }
  - { offset: 0x4FC04, size: 0x8, addend: 0x0, symName: __ZNSt3__14prevB8ne180100INS_16reverse_iteratorIPNS_10shared_ptrIN7testing8internal26ParameterizedTestSuiteInfoIN12_GLOBAL__N_124CaesarDec_JoinWithSpacesEE8TestInfoEEEEETnNS_9enable_ifIXsr29__has_input_iterator_categoryIT_EE5valueEiE4typeELi0EEESE_SE_NS_15iterator_traitsISE_E15difference_typeE, symObjAddr: 0x7D2F8, symBinAddr: 0x10007E9A8, symSize: 0x1E0 }
  - { offset: 0x4FC54, size: 0x8, addend: 0x0, symName: __ZNSt3__19__advanceB8ne180100INS_16reverse_iteratorIPNS_10shared_ptrIN7testing8internal26ParameterizedTestSuiteInfoIN12_GLOBAL__N_124CaesarDec_JoinWithSpacesEE8TestInfoEEEEEEEvRT_NS_15iterator_traitsISD_E15difference_typeENS_26random_access_iterator_tagE, symObjAddr: 0x7D548, symBinAddr: 0x10007EBF8, symSize: 0x68 }
  - { offset: 0x4FC9E, size: 0x8, addend: 0x0, symName: __ZNSt3__13getB8ne180100ILm0EJNS_6vectorINS_12basic_stringIcNS_11char_traitsIcEENS_9allocatorIcEEEENS5_IS7_EEEES7_EEERKNS_13tuple_elementIXT_ENS_5tupleIJDpT0_EEEE4typeERKSE_, symObjAddr: 0x80818, symBinAddr: 0x100081EC8, symSize: 0xB0 }
  - { offset: 0x4FCE6, size: 0x8, addend: 0x0, symName: __ZNSt3__13getB8ne180100ILm1EJNS_6vectorINS_12basic_stringIcNS_11char_traitsIcEENS_9allocatorIcEEEENS5_IS7_EEEES7_EEERKNS_13tuple_elementIXT_ENS_5tupleIJDpT0_EEEE4typeERKSE_, symObjAddr: 0x808C8, symBinAddr: 0x100081F78, symSize: 0xB8 }
  - { offset: 0x4FD2E, size: 0x8, addend: 0x0, symName: __ZNSt3__110make_tupleB8ne180100IJNS_6vectorINS_12basic_stringIcNS_11char_traitsIcEENS_9allocatorIcEEEENS5_IS7_EEEERA1_KcEEENS_5tupleIJDpNS_18__unwrap_ref_decayIT_E4typeEEEEDpOSF_, symObjAddr: 0x80F18, symBinAddr: 0x1000825C8, symSize: 0xD0 }
  - { offset: 0x4FD7B, size: 0x8, addend: 0x0, symName: __ZNSt3__110make_tupleB8ne180100IJNS_6vectorINS_12basic_stringIcNS_11char_traitsIcEENS_9allocatorIcEEEENS5_IS7_EEEERA5_KcEEENS_5tupleIJDpNS_18__unwrap_ref_decayIT_E4typeEEEEDpOSF_, symObjAddr: 0x80FE8, symBinAddr: 0x100082698, symSize: 0xD0 }
  - { offset: 0x4FDC8, size: 0x8, addend: 0x0, symName: __ZNSt3__110make_tupleB8ne180100IJNS_6vectorINS_12basic_stringIcNS_11char_traitsIcEENS_9allocatorIcEEEENS5_IS7_EEEERA11_KcEEENS_5tupleIJDpNS_18__unwrap_ref_decayIT_E4typeEEEEDpOSF_, symObjAddr: 0x810B8, symBinAddr: 0x100082768, symSize: 0xD0 }
  - { offset: 0x4FE15, size: 0x8, addend: 0x0, symName: __ZNSt3__110make_tupleB8ne180100IJNS_6vectorINS_12basic_stringIcNS_11char_traitsIcEENS_9allocatorIcEEEENS5_IS7_EEEERA24_KcEEENS_5tupleIJDpNS_18__unwrap_ref_decayIT_E4typeEEEEDpOSF_, symObjAddr: 0x81188, symBinAddr: 0x100082838, symSize: 0xC8 }
  - { offset: 0x4FE7C, size: 0x8, addend: 0x0, symName: __ZNSt3__18distanceB8ne180100INS_11__wrap_iterIPKNS_5tupleIJNS_6vectorINS_12basic_stringIcNS_11char_traitsIcEENS_9allocatorIcEEEENS7_IS9_EEEES9_EEEEEEENS_15iterator_traitsIT_E15difference_typeESH_SH_, symObjAddr: 0x847B8, symBinAddr: 0x100085E68, symSize: 0x48 }
  - { offset: 0x4FEBF, size: 0x8, addend: 0x0, symName: __ZNSt3__110__distanceB8ne180100INS_11__wrap_iterIPKNS_5tupleIJNS_6vectorINS_12basic_stringIcNS_11char_traitsIcEENS_9allocatorIcEEEENS7_IS9_EEEES9_EEEEEEENS_15iterator_traitsIT_E15difference_typeESH_SH_NS_26random_access_iterator_tagE, symObjAddr: 0x84DF8, symBinAddr: 0x1000864A8, symSize: 0x190 }
  - { offset: 0x4FF16, size: 0x8, addend: 0x0, symName: __ZNSt3__1miB8ne180100IPKNS_5tupleIJNS_6vectorINS_12basic_stringIcNS_11char_traitsIcEENS_9allocatorIcEEEENS6_IS8_EEEES8_EEESD_EEDTmicldtfp_4baseEcldtfp0_4baseEERKNS_11__wrap_iterIT_EERKNSF_IT0_EE, symObjAddr: 0x84F88, symBinAddr: 0x100086638, symSize: 0x98 }
  - { offset: 0x4FF62, size: 0x8, addend: 0x0, symName: __ZNSt3__122__make_exception_guardB8ne180100INS_6vectorINS_5tupleIJNS1_INS_12basic_stringIcNS_11char_traitsIcEENS_9allocatorIcEEEENS6_IS8_EEEES8_EEENS6_ISB_EEE16__destroy_vectorEEENS_28__exception_guard_exceptionsIT_EESG_, symObjAddr: 0x850A8, symBinAddr: 0x100086758, symSize: 0x78 }
  - { offset: 0x4FF97, size: 0x8, addend: 0x0, symName: __ZNSt3__119__allocate_at_leastB8ne180100INS_9allocatorINS_5tupleIJNS_6vectorINS_12basic_stringIcNS_11char_traitsIcEENS1_IcEEEENS1_IS8_EEEES8_EEEEEEENS_19__allocation_resultINS_16allocator_traitsIT_E7pointerEEERSF_m, symObjAddr: 0x85F38, symBinAddr: 0x1000875E8, symSize: 0x38 }
  - { offset: 0x4FFDA, size: 0x8, addend: 0x0, symName: __ZNSt3__112__to_addressB8ne180100INS_5tupleIJNS_6vectorINS_12basic_stringIcNS_11char_traitsIcEENS_9allocatorIcEEEENS6_IS8_EEEES8_EEEEEPT_SD_, symObjAddr: 0x86A18, symBinAddr: 0x1000880C8, symSize: 0x18 }
  - { offset: 0x5000F, size: 0x8, addend: 0x0, symName: __ZNSt3__130__uninitialized_allocator_copyB8ne180100INS_9allocatorINS_5tupleIJNS_6vectorINS_12basic_stringIcNS_11char_traitsIcEENS1_IcEEEENS1_IS8_EEEES8_EEEEENS_11__wrap_iterIPKSB_EESG_PSB_EET2_RT_T0_T1_SI_, symObjAddr: 0x86CB8, symBinAddr: 0x100088368, symSize: 0x278 }
  - { offset: 0x500B5, size: 0x8, addend: 0x0, symName: __ZNSt3__114__unwrap_rangeB8ne180100INS_11__wrap_iterIPKNS_5tupleIJNS_6vectorINS_12basic_stringIcNS_11char_traitsIcEENS_9allocatorIcEEEENS7_IS9_EEEES9_EEEEESF_EEDaT_T0_, symObjAddr: 0x874F8, symBinAddr: 0x100088BA8, symSize: 0x70 }
  - { offset: 0x50101, size: 0x8, addend: 0x0, symName: __ZNSt3__135__uninitialized_allocator_copy_implB8ne180100INS_9allocatorINS_5tupleIJNS_6vectorINS_12basic_stringIcNS_11char_traitsIcEENS1_IcEEEENS1_IS8_EEEES8_EEEEEPKSB_SE_PSB_EET2_RT_T0_T1_SG_, symObjAddr: 0x87568, symBinAddr: 0x100088C18, symSize: 0x520 }
  - { offset: 0x501AD, size: 0x8, addend: 0x0, symName: __ZNSt3__113__unwrap_iterB8ne180100IPNS_5tupleIJNS_6vectorINS_12basic_stringIcNS_11char_traitsIcEENS_9allocatorIcEEEENS6_IS8_EEEES8_EEENS_18__unwrap_iter_implISC_Lb1EEETnNS_9enable_ifIXsr21is_copy_constructibleIT_EE5valueEiE4typeELi0EEEDTclsrT0_8__unwrapclsr3stdE7declvalISG_EEEESG_, symObjAddr: 0x87A88, symBinAddr: 0x100089138, symSize: 0x30 }
  - { offset: 0x501F2, size: 0x8, addend: 0x0, symName: __ZNSt3__113__rewrap_iterB8ne180100IPNS_5tupleIJNS_6vectorINS_12basic_stringIcNS_11char_traitsIcEENS_9allocatorIcEEEENS6_IS8_EEEES8_EEESC_NS_18__unwrap_iter_implISC_Lb1EEEEET_SF_T0_, symObjAddr: 0x87AB8, symBinAddr: 0x100089168, symSize: 0x50 }
  - { offset: 0x5034A, size: 0x8, addend: 0x0, symName: __ZNSt3__113__unwrap_iterB8ne180100INS_11__wrap_iterIPKNS_5tupleIJNS_6vectorINS_12basic_stringIcNS_11char_traitsIcEENS_9allocatorIcEEEENS7_IS9_EEEES9_EEEEENS_18__unwrap_iter_implISF_Lb1EEETnNS_9enable_ifIXsr21is_copy_constructibleIT_EE5valueEiE4typeELi0EEEDTclsrT0_8__unwrapclsr3stdE7declvalISJ_EEEESJ_, symObjAddr: 0x87D48, symBinAddr: 0x1000893F8, symSize: 0x38 }
  - { offset: 0x503E2, size: 0x8, addend: 0x0, symName: __ZNSt3__112__to_addressB8ne180100INS_11__wrap_iterIPKNS_5tupleIJNS_6vectorINS_12basic_stringIcNS_11char_traitsIcEENS_9allocatorIcEEEENS7_IS9_EEEES9_EEEEEvEEu7__decayIDTclsr19__to_address_helperIT_EE6__callclsr3stdE7declvalIRKSG_EEEEESI_, symObjAddr: 0x87F38, symBinAddr: 0x1000895E8, symSize: 0x60 }
  - { offset: 0x504BE, size: 0x8, addend: 0x0, symName: __ZNSt3__112__to_addressB8ne180100IKNS_5tupleIJNS_6vectorINS_12basic_stringIcNS_11char_traitsIcEENS_9allocatorIcEEEENS6_IS8_EEEES8_EEEEEPT_SE_, symObjAddr: 0x88128, symBinAddr: 0x1000897D8, symSize: 0x18 }
  - { offset: 0x504F3, size: 0x8, addend: 0x0, symName: __ZNSt3__122__make_exception_guardB8ne180100INS_29_AllocatorDestroyRangeReverseINS_9allocatorINS_5tupleIJNS_6vectorINS_12basic_stringIcNS_11char_traitsIcEENS2_IcEEEENS2_IS9_EEEES9_EEEEEPSC_EEEENS_28__exception_guard_exceptionsIT_EESH_, symObjAddr: 0x882D8, symBinAddr: 0x100089988, symSize: 0x1F8 }
  - { offset: 0x5052C, size: 0x8, addend: 0x0, symName: __ZNSt3__114__construct_atB8ne180100INS_5tupleIJNS_6vectorINS_12basic_stringIcNS_11char_traitsIcEENS_9allocatorIcEEEENS6_IS8_EEEES8_EEEJRKSB_EPSB_EEPT_SG_DpOT0_, symObjAddr: 0x88CD8, symBinAddr: 0x10008A388, symSize: 0x70 }
  - { offset: 0x505A6, size: 0x8, addend: 0x0, symName: __ZNSt3__112construct_atB8ne180100INS_5tupleIJNS_6vectorINS_12basic_stringIcNS_11char_traitsIcEENS_9allocatorIcEEEENS6_IS8_EEEES8_EEEJRKSB_EPSB_EEPT_SG_DpOT0_, symObjAddr: 0x88D48, symBinAddr: 0x10008A3F8, symSize: 0xD8 }
  - { offset: 0x50618, size: 0x8, addend: 0x0, symName: __ZNSt3__119__allocator_destroyB8ne180100INS_9allocatorINS_5tupleIJNS_6vectorINS_12basic_stringIcNS_11char_traitsIcEENS1_IcEEEENS1_IS8_EEEES8_EEEEENS_16reverse_iteratorIPSB_EESF_EEvRT_T0_T1_, symObjAddr: 0x89228, symBinAddr: 0x10008A8D8, symSize: 0x1F8 }
  - { offset: 0x50684, size: 0x8, addend: 0x0, symName: __ZNSt3__1neB8ne180100IPNS_5tupleIJNS_6vectorINS_12basic_stringIcNS_11char_traitsIcEENS_9allocatorIcEEEENS6_IS8_EEEES8_EEESC_EEbRKNS_16reverse_iteratorIT_EERKNSD_IT0_EEQrqXnecldtfp_4baseEcldtfp0_4baseERNS_14convertible_toIbEEE, symObjAddr: 0x89488, symBinAddr: 0x10008AB38, symSize: 0xA0 }
  - { offset: 0x506D0, size: 0x8, addend: 0x0, symName: __ZNSt3__112__to_addressB8ne180100INS_16reverse_iteratorIPNS_5tupleIJNS_6vectorINS_12basic_stringIcNS_11char_traitsIcEENS_9allocatorIcEEEENS7_IS9_EEEES9_EEEEEvEEu7__decayIDTclsr19__to_address_helperIT_EE6__callclsr3stdE7declvalIRKSF_EEEEESH_, symObjAddr: 0x89558, symBinAddr: 0x10008AC08, symSize: 0x58 }
  - { offset: 0x50707, size: 0x8, addend: 0x0, symName: __ZNSt3__112__destroy_atB8ne180100INS_5tupleIJNS_6vectorINS_12basic_stringIcNS_11char_traitsIcEENS_9allocatorIcEEEENS6_IS8_EEEES8_EEETnNS_9enable_ifIXntsr8is_arrayIT_EE5valueEiE4typeELi0EEEvPSD_, symObjAddr: 0x89768, symBinAddr: 0x10008AE18, symSize: 0x60 }
  - { offset: 0x50769, size: 0x8, addend: 0x0, symName: __ZNSt3__14prevB8ne180100IPNS_5tupleIJNS_6vectorINS_12basic_stringIcNS_11char_traitsIcEENS_9allocatorIcEEEENS6_IS8_EEEES8_EEETnNS_9enable_ifIXsr29__has_input_iterator_categoryIT_EE5valueEiE4typeELi0EEESE_SE_NS_15iterator_traitsISE_E15difference_typeE, symObjAddr: 0x898C8, symBinAddr: 0x10008AF78, symSize: 0x190 }
  - { offset: 0x507B9, size: 0x8, addend: 0x0, symName: __ZNSt3__19__advanceB8ne180100IPNS_5tupleIJNS_6vectorINS_12basic_stringIcNS_11char_traitsIcEENS_9allocatorIcEEEENS6_IS8_EEEES8_EEEEEvRT_NS_15iterator_traitsISD_E15difference_typeENS_26random_access_iterator_tagE, symObjAddr: 0x89AC8, symBinAddr: 0x10008B178, symSize: 0xF8 }
  - { offset: 0x50856, size: 0x8, addend: 0x0, symName: __ZNSt3__1eqB8ne180100IPKNS_5tupleIJNS_6vectorINS_12basic_stringIcNS_11char_traitsIcEENS_9allocatorIcEEEENS6_IS8_EEEES8_EEEEEbRKNS_11__wrap_iterIT_EESI_, symObjAddr: 0x8D048, symBinAddr: 0x10008E6F8, symSize: 0xA0 }
  - { offset: 0x512C3, size: 0x8, addend: 0x0, symName: __ZNSt3__13getB8ne180100ILm0EJNS_6vectorINS_12basic_stringIcNS_11char_traitsIcEENS_9allocatorIcEEEENS5_IS7_EEEEPKcEEERKNS_13tuple_elementIXT_ENS_5tupleIJDpT0_EEEE4typeERKSG_, symObjAddr: 0x90BD8, symBinAddr: 0x100092288, symSize: 0xA8 }
  - { offset: 0x5130A, size: 0x8, addend: 0x0, symName: __ZNSt3__13getB8ne180100ILm1EJNS_6vectorINS_12basic_stringIcNS_11char_traitsIcEENS_9allocatorIcEEEENS5_IS7_EEEEPKcEEERKNS_13tuple_elementIXT_ENS_5tupleIJDpT0_EEEE4typeERKSG_, symObjAddr: 0x90D18, symBinAddr: 0x1000923C8, symSize: 0xB8 }
  - { offset: 0x51351, size: 0x8, addend: 0x0, symName: __ZNSt3__130__uninitialized_allocator_copyB8ne180100INS_9allocatorINS_5tupleIJNS_6vectorINS_12basic_stringIcNS_11char_traitsIcEENS1_IcEEEENS1_IS8_EEEES8_EEEEEPKSB_SE_PSB_EET2_RT_T0_T1_SG_, symObjAddr: 0x91828, symBinAddr: 0x100092ED8, symSize: 0x230 }
  - { offset: 0x513F7, size: 0x8, addend: 0x0, symName: __ZNSt3__114__unwrap_rangeB8ne180100IPKNS_5tupleIJNS_6vectorINS_12basic_stringIcNS_11char_traitsIcEENS_9allocatorIcEEEENS6_IS8_EEEES8_EEESD_EEDaT_T0_, symObjAddr: 0x91A58, symBinAddr: 0x100093108, symSize: 0x40 }
  - { offset: 0x51479, size: 0x8, addend: 0x0, symName: __ZNSt3__113__unwrap_iterB8ne180100IPKNS_5tupleIJNS_6vectorINS_12basic_stringIcNS_11char_traitsIcEENS_9allocatorIcEEEENS6_IS8_EEEES8_EEENS_18__unwrap_iter_implISD_Lb1EEETnNS_9enable_ifIXsr21is_copy_constructibleIT_EE5valueEiE4typeELi0EEEDTclsrT0_8__unwrapclsr3stdE7declvalISH_EEEESH_, symObjAddr: 0x91C88, symBinAddr: 0x100093338, symSize: 0x30 }
  - { offset: 0x51511, size: 0x8, addend: 0x0, symName: __ZNSt3__110make_tupleB8ne180100IJN7testing8internal10ValueArrayIJNS_5tupleIJNS_6vectorINS_12basic_stringIcNS_11char_traitsIcEENS_9allocatorIcEEEENS9_ISB_EEEEPKcEEESG_SG_SG_EEEEEENS4_IJDpNS_18__unwrap_ref_decayIT_E4typeEEEEDpOSJ_, symObjAddr: 0x92218, symBinAddr: 0x1000938C8, symSize: 0x98 }
  - { offset: 0x5155F, size: 0x8, addend: 0x0, symName: __ZNSt3__112__to_addressB8ne180100INS_10shared_ptrIN7testing8internal26ParameterizedTestSuiteInfoIN12_GLOBAL__N_120CaesarDec_NumWordsInEE8TestInfoEEEEEPT_SB_, symObjAddr: 0x94348, symBinAddr: 0x1000959F8, symSize: 0x18 }
  - { offset: 0x51594, size: 0x8, addend: 0x0, symName: __ZNSt3__114__construct_atB8ne180100INS_10shared_ptrIN7testing8internal26ParameterizedTestSuiteInfoIN12_GLOBAL__N_120CaesarDec_NumWordsInEE8TestInfoEEEJPS8_EPS9_EEPT_SD_DpOT0_, symObjAddr: 0x94DA8, symBinAddr: 0x100096458, symSize: 0x70 }
  - { offset: 0x5160E, size: 0x8, addend: 0x0, symName: __ZNSt3__112construct_atB8ne180100INS_10shared_ptrIN7testing8internal26ParameterizedTestSuiteInfoIN12_GLOBAL__N_120CaesarDec_NumWordsInEE8TestInfoEEEJPS8_EPS9_EEPT_SD_DpOT0_, symObjAddr: 0x94E18, symBinAddr: 0x1000964C8, symSize: 0xF8 }
  - { offset: 0x520D2, size: 0x8, addend: 0x0, symName: __ZNSt3__119__allocate_at_leastB8ne180100INS_9allocatorINS_10shared_ptrIN7testing8internal26ParameterizedTestSuiteInfoIN12_GLOBAL__N_120CaesarDec_NumWordsInEE8TestInfoEEEEEEENS_19__allocation_resultINS_16allocator_traitsIT_E7pointerEEERSE_m, symObjAddr: 0x99DC8, symBinAddr: 0x10009B478, symSize: 0x38 }
  - { offset: 0x52115, size: 0x8, addend: 0x0, symName: __ZNSt3__142__uninitialized_allocator_move_if_noexceptB8ne180100INS_9allocatorINS_10shared_ptrIN7testing8internal26ParameterizedTestSuiteInfoIN12_GLOBAL__N_120CaesarDec_NumWordsInEE8TestInfoEEEEENS_16reverse_iteratorIPSA_EESE_SE_EET2_RT_T0_T1_SF_, symObjAddr: 0x9A628, symBinAddr: 0x10009BCD8, symSize: 0x578 }
  - { offset: 0x521C9, size: 0x8, addend: 0x0, symName: __ZNSt3__14swapB8ne180100IPNS_10shared_ptrIN7testing8internal26ParameterizedTestSuiteInfoIN12_GLOBAL__N_120CaesarDec_NumWordsInEE8TestInfoEEEEENS_9enable_ifIXaasr21is_move_constructibleIT_EE5valuesr18is_move_assignableISC_EE5valueEvE4typeERSC_SF_, symObjAddr: 0x9AC88, symBinAddr: 0x10009C338, symSize: 0x168 }
  - { offset: 0x5221A, size: 0x8, addend: 0x0, symName: __ZNSt3__122__make_exception_guardB8ne180100INS_29_AllocatorDestroyRangeReverseINS_9allocatorINS_10shared_ptrIN7testing8internal26ParameterizedTestSuiteInfoIN12_GLOBAL__N_120CaesarDec_NumWordsInEE8TestInfoEEEEENS_16reverse_iteratorIPSB_EEEEEENS_28__exception_guard_exceptionsIT_EESI_, symObjAddr: 0x9AF58, symBinAddr: 0x10009C608, symSize: 0x1F8 }
  - { offset: 0x52253, size: 0x8, addend: 0x0, symName: __ZNSt3__1neB8ne180100IPNS_10shared_ptrIN7testing8internal26ParameterizedTestSuiteInfoIN12_GLOBAL__N_120CaesarDec_NumWordsInEE8TestInfoEEESA_EEbRKNS_16reverse_iteratorIT_EERKNSB_IT0_EEQrqXnecldtfp_4baseEcldtfp0_4baseERNS_14convertible_toIbEEE, symObjAddr: 0x9B1C8, symBinAddr: 0x10009C878, symSize: 0xA0 }
  - { offset: 0x5229F, size: 0x8, addend: 0x0, symName: __ZNSt3__112__to_addressB8ne180100INS_16reverse_iteratorIPNS_10shared_ptrIN7testing8internal26ParameterizedTestSuiteInfoIN12_GLOBAL__N_120CaesarDec_NumWordsInEE8TestInfoEEEEEvEEu7__decayIDTclsr19__to_address_helperIT_EE6__callclsr3stdE7declvalIRKSD_EEEEESF_, symObjAddr: 0x9B2D8, symBinAddr: 0x10009C988, symSize: 0x58 }
  - { offset: 0x522D5, size: 0x8, addend: 0x0, symName: __ZNSt3__114__construct_atB8ne180100INS_10shared_ptrIN7testing8internal26ParameterizedTestSuiteInfoIN12_GLOBAL__N_120CaesarDec_NumWordsInEE8TestInfoEEEJS9_EPS9_EEPT_SC_DpOT0_, symObjAddr: 0x9BC98, symBinAddr: 0x10009D348, symSize: 0x70 }
  - { offset: 0x52328, size: 0x8, addend: 0x0, symName: __ZNSt3__112construct_atB8ne180100INS_10shared_ptrIN7testing8internal26ParameterizedTestSuiteInfoIN12_GLOBAL__N_120CaesarDec_NumWordsInEE8TestInfoEEEJS9_EPS9_EEPT_SC_DpOT0_, symObjAddr: 0x9BD08, symBinAddr: 0x10009D3B8, symSize: 0xD8 }
  - { offset: 0x523C5, size: 0x8, addend: 0x0, symName: __ZNSt3__14prevB8ne180100IPNS_10shared_ptrIN7testing8internal26ParameterizedTestSuiteInfoIN12_GLOBAL__N_120CaesarDec_NumWordsInEE8TestInfoEEETnNS_9enable_ifIXsr29__has_input_iterator_categoryIT_EE5valueEiE4typeELi0EEESC_SC_NS_15iterator_traitsISC_E15difference_typeE, symObjAddr: 0x9C178, symBinAddr: 0x10009D828, symSize: 0x190 }
  - { offset: 0x52415, size: 0x8, addend: 0x0, symName: __ZNSt3__19__advanceB8ne180100IPNS_10shared_ptrIN7testing8internal26ParameterizedTestSuiteInfoIN12_GLOBAL__N_120CaesarDec_NumWordsInEE8TestInfoEEEEEvRT_NS_15iterator_traitsISB_E15difference_typeENS_26random_access_iterator_tagE, symObjAddr: 0x9C378, symBinAddr: 0x10009DA28, symSize: 0xF8 }
  - { offset: 0x5245F, size: 0x8, addend: 0x0, symName: __ZNSt3__119__allocator_destroyB8ne180100INS_9allocatorINS_10shared_ptrIN7testing8internal26ParameterizedTestSuiteInfoIN12_GLOBAL__N_120CaesarDec_NumWordsInEE8TestInfoEEEEENS_16reverse_iteratorINSC_IPSA_EEEESF_EEvRT_T0_T1_, symObjAddr: 0x9C8B8, symBinAddr: 0x10009DF68, symSize: 0x2F8 }
  - { offset: 0x524CB, size: 0x8, addend: 0x0, symName: __ZNSt3__1neB8ne180100INS_16reverse_iteratorIPNS_10shared_ptrIN7testing8internal26ParameterizedTestSuiteInfoIN12_GLOBAL__N_120CaesarDec_NumWordsInEE8TestInfoEEEEESC_EEbRKNS1_IT_EERKNS1_IT0_EEQrqXnecldtfp_4baseEcldtfp0_4baseERNS_14convertible_toIbEEE, symObjAddr: 0x9CC18, symBinAddr: 0x10009E2C8, symSize: 0x220 }
  - { offset: 0x52519, size: 0x8, addend: 0x0, symName: __ZNSt3__112__to_addressB8ne180100INS_16reverse_iteratorINS1_IPNS_10shared_ptrIN7testing8internal26ParameterizedTestSuiteInfoIN12_GLOBAL__N_120CaesarDec_NumWordsInEE8TestInfoEEEEEEEvEEu7__decayIDTclsr19__to_address_helperIT_EE6__callclsr3stdE7declvalIRKSE_EEEEESG_, symObjAddr: 0x9CE68, symBinAddr: 0x10009E518, symSize: 0x58 }
  - { offset: 0x52550, size: 0x8, addend: 0x0, symName: __ZNSt3__112__destroy_atB8ne180100INS_10shared_ptrIN7testing8internal26ParameterizedTestSuiteInfoIN12_GLOBAL__N_120CaesarDec_NumWordsInEE8TestInfoEEETnNS_9enable_ifIXntsr8is_arrayIT_EE5valueEiE4typeELi0EEEvPSB_, symObjAddr: 0x9CFF8, symBinAddr: 0x10009E6A8, symSize: 0x58 }
  - { offset: 0x525B3, size: 0x8, addend: 0x0, symName: __ZNSt3__14prevB8ne180100INS_16reverse_iteratorIPNS_10shared_ptrIN7testing8internal26ParameterizedTestSuiteInfoIN12_GLOBAL__N_120CaesarDec_NumWordsInEE8TestInfoEEEEETnNS_9enable_ifIXsr29__has_input_iterator_categoryIT_EE5valueEiE4typeELi0EEESE_SE_NS_15iterator_traitsISE_E15difference_typeE, symObjAddr: 0x9D478, symBinAddr: 0x10009EB28, symSize: 0x1E0 }
  - { offset: 0x52603, size: 0x8, addend: 0x0, symName: __ZNSt3__19__advanceB8ne180100INS_16reverse_iteratorIPNS_10shared_ptrIN7testing8internal26ParameterizedTestSuiteInfoIN12_GLOBAL__N_120CaesarDec_NumWordsInEE8TestInfoEEEEEEEvRT_NS_15iterator_traitsISD_E15difference_typeENS_26random_access_iterator_tagE, symObjAddr: 0x9D6C8, symBinAddr: 0x10009ED78, symSize: 0x68 }
  - { offset: 0x5264D, size: 0x8, addend: 0x0, symName: __ZNSt3__13getB8ne180100ILm0EJNS_6vectorINS_12basic_stringIcNS_11char_traitsIcEENS_9allocatorIcEEEENS5_IS7_EEEES9_iEEERKNS_13tuple_elementIXT_ENS_5tupleIJDpT0_EEEE4typeERKSE_, symObjAddr: 0xA0998, symBinAddr: 0x1000A2048, symSize: 0xB0 }
  - { offset: 0x5269A, size: 0x8, addend: 0x0, symName: __ZNSt3__13getB8ne180100ILm1EJNS_6vectorINS_12basic_stringIcNS_11char_traitsIcEENS_9allocatorIcEEEENS5_IS7_EEEES9_iEEERKNS_13tuple_elementIXT_ENS_5tupleIJDpT0_EEEE4typeERKSE_, symObjAddr: 0xA0A48, symBinAddr: 0x1000A20F8, symSize: 0xC0 }
  - { offset: 0x526E7, size: 0x8, addend: 0x0, symName: __ZNSt3__13getB8ne180100ILm2EJNS_6vectorINS_12basic_stringIcNS_11char_traitsIcEENS_9allocatorIcEEEENS5_IS7_EEEES9_iEEERKNS_13tuple_elementIXT_ENS_5tupleIJDpT0_EEEE4typeERKSE_, symObjAddr: 0xA0B08, symBinAddr: 0x1000A21B8, symSize: 0xC0 }
  - { offset: 0x52734, size: 0x8, addend: 0x0, symName: __ZNSt3__110make_tupleB8ne180100IJNS_6vectorINS_12basic_stringIcNS_11char_traitsIcEENS_9allocatorIcEEEENS5_IS7_EEEES9_iEEENS_5tupleIJDpNS_18__unwrap_ref_decayIT_E4typeEEEEDpOSC_, symObjAddr: 0xA2028, symBinAddr: 0x1000A36D8, symSize: 0x118 }
  - { offset: 0x527BF, size: 0x8, addend: 0x0, symName: __ZNSt3__18distanceB8ne180100INS_11__wrap_iterIPKNS_5tupleIJNS_6vectorINS_12basic_stringIcNS_11char_traitsIcEENS_9allocatorIcEEEENS7_IS9_EEEESB_iEEEEEEENS_15iterator_traitsIT_E15difference_typeESH_SH_, symObjAddr: 0xA4A48, symBinAddr: 0x1000A60F8, symSize: 0x48 }
  - { offset: 0x52802, size: 0x8, addend: 0x0, symName: __ZNSt3__110__distanceB8ne180100INS_11__wrap_iterIPKNS_5tupleIJNS_6vectorINS_12basic_stringIcNS_11char_traitsIcEENS_9allocatorIcEEEENS7_IS9_EEEESB_iEEEEEEENS_15iterator_traitsIT_E15difference_typeESH_SH_NS_26random_access_iterator_tagE, symObjAddr: 0xA5088, symBinAddr: 0x1000A6738, symSize: 0x190 }
  - { offset: 0x52859, size: 0x8, addend: 0x0, symName: __ZNSt3__1miB8ne180100IPKNS_5tupleIJNS_6vectorINS_12basic_stringIcNS_11char_traitsIcEENS_9allocatorIcEEEENS6_IS8_EEEESA_iEEESD_EEDTmicldtfp_4baseEcldtfp0_4baseEERKNS_11__wrap_iterIT_EERKNSF_IT0_EE, symObjAddr: 0xA5218, symBinAddr: 0x1000A68C8, symSize: 0x98 }
  - { offset: 0x528A5, size: 0x8, addend: 0x0, symName: __ZNSt3__122__make_exception_guardB8ne180100INS_6vectorINS_5tupleIJNS1_INS_12basic_stringIcNS_11char_traitsIcEENS_9allocatorIcEEEENS6_IS8_EEEESA_iEEENS6_ISB_EEE16__destroy_vectorEEENS_28__exception_guard_exceptionsIT_EESG_, symObjAddr: 0xA5338, symBinAddr: 0x1000A69E8, symSize: 0x78 }
  - { offset: 0x528DA, size: 0x8, addend: 0x0, symName: __ZNSt3__119__allocate_at_leastB8ne180100INS_9allocatorINS_5tupleIJNS_6vectorINS_12basic_stringIcNS_11char_traitsIcEENS1_IcEEEENS1_IS8_EEEESA_iEEEEEEENS_19__allocation_resultINS_16allocator_traitsIT_E7pointerEEERSF_m, symObjAddr: 0xA61C8, symBinAddr: 0x1000A7878, symSize: 0x38 }
  - { offset: 0x5291D, size: 0x8, addend: 0x0, symName: __ZNSt3__112__to_addressB8ne180100INS_5tupleIJNS_6vectorINS_12basic_stringIcNS_11char_traitsIcEENS_9allocatorIcEEEENS6_IS8_EEEESA_iEEEEEPT_SD_, symObjAddr: 0xA6C98, symBinAddr: 0x1000A8348, symSize: 0x18 }
  - { offset: 0x52952, size: 0x8, addend: 0x0, symName: __ZNSt3__130__uninitialized_allocator_copyB8ne180100INS_9allocatorINS_5tupleIJNS_6vectorINS_12basic_stringIcNS_11char_traitsIcEENS1_IcEEEENS1_IS8_EEEESA_iEEEEENS_11__wrap_iterIPKSB_EESG_PSB_EET2_RT_T0_T1_SI_, symObjAddr: 0xA6F38, symBinAddr: 0x1000A85E8, symSize: 0x278 }
  - { offset: 0x529F8, size: 0x8, addend: 0x0, symName: __ZNSt3__114__unwrap_rangeB8ne180100INS_11__wrap_iterIPKNS_5tupleIJNS_6vectorINS_12basic_stringIcNS_11char_traitsIcEENS_9allocatorIcEEEENS7_IS9_EEEESB_iEEEEESF_EEDaT_T0_, symObjAddr: 0xA7738, symBinAddr: 0x1000A8DE8, symSize: 0x70 }
  - { offset: 0x52A44, size: 0x8, addend: 0x0, symName: __ZNSt3__135__uninitialized_allocator_copy_implB8ne180100INS_9allocatorINS_5tupleIJNS_6vectorINS_12basic_stringIcNS_11char_traitsIcEENS1_IcEEEENS1_IS8_EEEESA_iEEEEEPKSB_SE_PSB_EET2_RT_T0_T1_SG_, symObjAddr: 0xA77A8, symBinAddr: 0x1000A8E58, symSize: 0x520 }
  - { offset: 0x52AF0, size: 0x8, addend: 0x0, symName: __ZNSt3__113__unwrap_iterB8ne180100IPNS_5tupleIJNS_6vectorINS_12basic_stringIcNS_11char_traitsIcEENS_9allocatorIcEEEENS6_IS8_EEEESA_iEEENS_18__unwrap_iter_implISC_Lb1EEETnNS_9enable_ifIXsr21is_copy_constructibleIT_EE5valueEiE4typeELi0EEEDTclsrT0_8__unwrapclsr3stdE7declvalISG_EEEESG_, symObjAddr: 0xA7CC8, symBinAddr: 0x1000A9378, symSize: 0x30 }
  - { offset: 0x52B35, size: 0x8, addend: 0x0, symName: __ZNSt3__113__rewrap_iterB8ne180100IPNS_5tupleIJNS_6vectorINS_12basic_stringIcNS_11char_traitsIcEENS_9allocatorIcEEEENS6_IS8_EEEESA_iEEESC_NS_18__unwrap_iter_implISC_Lb1EEEEET_SF_T0_, symObjAddr: 0xA7CF8, symBinAddr: 0x1000A93A8, symSize: 0x50 }
  - { offset: 0x52C8D, size: 0x8, addend: 0x0, symName: __ZNSt3__113__unwrap_iterB8ne180100INS_11__wrap_iterIPKNS_5tupleIJNS_6vectorINS_12basic_stringIcNS_11char_traitsIcEENS_9allocatorIcEEEENS7_IS9_EEEESB_iEEEEENS_18__unwrap_iter_implISF_Lb1EEETnNS_9enable_ifIXsr21is_copy_constructibleIT_EE5valueEiE4typeELi0EEEDTclsrT0_8__unwrapclsr3stdE7declvalISJ_EEEESJ_, symObjAddr: 0xA7F88, symBinAddr: 0x1000A9638, symSize: 0x38 }
  - { offset: 0x52D25, size: 0x8, addend: 0x0, symName: __ZNSt3__112__to_addressB8ne180100INS_11__wrap_iterIPKNS_5tupleIJNS_6vectorINS_12basic_stringIcNS_11char_traitsIcEENS_9allocatorIcEEEENS7_IS9_EEEESB_iEEEEEvEEu7__decayIDTclsr19__to_address_helperIT_EE6__callclsr3stdE7declvalIRKSG_EEEEESI_, symObjAddr: 0xA8178, symBinAddr: 0x1000A9828, symSize: 0x60 }
  - { offset: 0x52E01, size: 0x8, addend: 0x0, symName: __ZNSt3__112__to_addressB8ne180100IKNS_5tupleIJNS_6vectorINS_12basic_stringIcNS_11char_traitsIcEENS_9allocatorIcEEEENS6_IS8_EEEESA_iEEEEEPT_SE_, symObjAddr: 0xA8368, symBinAddr: 0x1000A9A18, symSize: 0x18 }
  - { offset: 0x52E36, size: 0x8, addend: 0x0, symName: __ZNSt3__122__make_exception_guardB8ne180100INS_29_AllocatorDestroyRangeReverseINS_9allocatorINS_5tupleIJNS_6vectorINS_12basic_stringIcNS_11char_traitsIcEENS2_IcEEEENS2_IS9_EEEESB_iEEEEEPSC_EEEENS_28__exception_guard_exceptionsIT_EESH_, symObjAddr: 0xA8518, symBinAddr: 0x1000A9BC8, symSize: 0x1F8 }
  - { offset: 0x52E6F, size: 0x8, addend: 0x0, symName: __ZNSt3__114__construct_atB8ne180100INS_5tupleIJNS_6vectorINS_12basic_stringIcNS_11char_traitsIcEENS_9allocatorIcEEEENS6_IS8_EEEESA_iEEEJRKSB_EPSB_EEPT_SG_DpOT0_, symObjAddr: 0xA8F18, symBinAddr: 0x1000AA5C8, symSize: 0x70 }
  - { offset: 0x52EE9, size: 0x8, addend: 0x0, symName: __ZNSt3__112construct_atB8ne180100INS_5tupleIJNS_6vectorINS_12basic_stringIcNS_11char_traitsIcEENS_9allocatorIcEEEENS6_IS8_EEEESA_iEEEJRKSB_EPSB_EEPT_SG_DpOT0_, symObjAddr: 0xA8F88, symBinAddr: 0x1000AA638, symSize: 0xD8 }
  - { offset: 0x52F5B, size: 0x8, addend: 0x0, symName: __ZNSt3__119__allocator_destroyB8ne180100INS_9allocatorINS_5tupleIJNS_6vectorINS_12basic_stringIcNS_11char_traitsIcEENS1_IcEEEENS1_IS8_EEEESA_iEEEEENS_16reverse_iteratorIPSB_EESF_EEvRT_T0_T1_, symObjAddr: 0xA9468, symBinAddr: 0x1000AAB18, symSize: 0x1F8 }
  - { offset: 0x52FC7, size: 0x8, addend: 0x0, symName: __ZNSt3__1neB8ne180100IPNS_5tupleIJNS_6vectorINS_12basic_stringIcNS_11char_traitsIcEENS_9allocatorIcEEEENS6_IS8_EEEESA_iEEESC_EEbRKNS_16reverse_iteratorIT_EERKNSD_IT0_EEQrqXnecldtfp_4baseEcldtfp0_4baseERNS_14convertible_toIbEEE, symObjAddr: 0xA96C8, symBinAddr: 0x1000AAD78, symSize: 0xA0 }
  - { offset: 0x53013, size: 0x8, addend: 0x0, symName: __ZNSt3__112__to_addressB8ne180100INS_16reverse_iteratorIPNS_5tupleIJNS_6vectorINS_12basic_stringIcNS_11char_traitsIcEENS_9allocatorIcEEEENS7_IS9_EEEESB_iEEEEEvEEu7__decayIDTclsr19__to_address_helperIT_EE6__callclsr3stdE7declvalIRKSF_EEEEESH_, symObjAddr: 0xA9798, symBinAddr: 0x1000AAE48, symSize: 0x58 }
  - { offset: 0x5304A, size: 0x8, addend: 0x0, symName: __ZNSt3__112__destroy_atB8ne180100INS_5tupleIJNS_6vectorINS_12basic_stringIcNS_11char_traitsIcEENS_9allocatorIcEEEENS6_IS8_EEEESA_iEEETnNS_9enable_ifIXntsr8is_arrayIT_EE5valueEiE4typeELi0EEEvPSD_, symObjAddr: 0xA99A8, symBinAddr: 0x1000AB058, symSize: 0x60 }
  - { offset: 0x530AC, size: 0x8, addend: 0x0, symName: __ZNSt3__14prevB8ne180100IPNS_5tupleIJNS_6vectorINS_12basic_stringIcNS_11char_traitsIcEENS_9allocatorIcEEEENS6_IS8_EEEESA_iEEETnNS_9enable_ifIXsr29__has_input_iterator_categoryIT_EE5valueEiE4typeELi0EEESE_SE_NS_15iterator_traitsISE_E15difference_typeE, symObjAddr: 0xA9B08, symBinAddr: 0x1000AB1B8, symSize: 0x190 }
  - { offset: 0x530FC, size: 0x8, addend: 0x0, symName: __ZNSt3__19__advanceB8ne180100IPNS_5tupleIJNS_6vectorINS_12basic_stringIcNS_11char_traitsIcEENS_9allocatorIcEEEENS6_IS8_EEEESA_iEEEEEvRT_NS_15iterator_traitsISD_E15difference_typeENS_26random_access_iterator_tagE, symObjAddr: 0xA9D08, symBinAddr: 0x1000AB3B8, symSize: 0xF8 }
  - { offset: 0x53199, size: 0x8, addend: 0x0, symName: __ZNSt3__1eqB8ne180100IPKNS_5tupleIJNS_6vectorINS_12basic_stringIcNS_11char_traitsIcEENS_9allocatorIcEEEENS6_IS8_EEEESA_iEEEEEbRKNS_11__wrap_iterIT_EESI_, symObjAddr: 0xAD268, symBinAddr: 0x1000AE918, symSize: 0xA0 }
  - { offset: 0x53C06, size: 0x8, addend: 0x0, symName: __ZNSt3__130__uninitialized_allocator_copyB8ne180100INS_9allocatorINS_5tupleIJNS_6vectorINS_12basic_stringIcNS_11char_traitsIcEENS1_IcEEEENS1_IS8_EEEESA_iEEEEEPKSB_SE_PSB_EET2_RT_T0_T1_SG_, symObjAddr: 0xB1458, symBinAddr: 0x1000B2B08, symSize: 0x230 }
  - { offset: 0x53CAC, size: 0x8, addend: 0x0, symName: __ZNSt3__114__unwrap_rangeB8ne180100IPKNS_5tupleIJNS_6vectorINS_12basic_stringIcNS_11char_traitsIcEENS_9allocatorIcEEEENS6_IS8_EEEESA_iEEESD_EEDaT_T0_, symObjAddr: 0xB1688, symBinAddr: 0x1000B2D38, symSize: 0x40 }
  - { offset: 0x53D2E, size: 0x8, addend: 0x0, symName: __ZNSt3__113__unwrap_iterB8ne180100IPKNS_5tupleIJNS_6vectorINS_12basic_stringIcNS_11char_traitsIcEENS_9allocatorIcEEEENS6_IS8_EEEESA_iEEENS_18__unwrap_iter_implISD_Lb1EEETnNS_9enable_ifIXsr21is_copy_constructibleIT_EE5valueEiE4typeELi0EEEDTclsrT0_8__unwrapclsr3stdE7declvalISH_EEEESH_, symObjAddr: 0xB18B8, symBinAddr: 0x1000B2F68, symSize: 0x30 }
  - { offset: 0x53DC6, size: 0x8, addend: 0x0, symName: __ZNSt3__110make_tupleB8ne180100IJN7testing8internal10ValueArrayIJNS_5tupleIJNS_6vectorINS_12basic_stringIcNS_11char_traitsIcEENS_9allocatorIcEEEENS9_ISB_EEEESD_iEEESE_SE_EEEEEENS4_IJDpNS_18__unwrap_ref_decayIT_E4typeEEEEDpOSH_, symObjAddr: 0xB1D48, symBinAddr: 0x1000B33F8, symSize: 0x98 }
  - { offset: 0x53E14, size: 0x8, addend: 0x0, symName: __ZNSt3__112__to_addressB8ne180100INS_10shared_ptrIN7testing8internal26ParameterizedTestSuiteInfoIN12_GLOBAL__N_127CaesarDec_CommandCustomDictEE8TestInfoEEEEEPT_SB_, symObjAddr: 0xB3D08, symBinAddr: 0x1000B53B8, symSize: 0x18 }
  - { offset: 0x53E49, size: 0x8, addend: 0x0, symName: __ZNSt3__114__construct_atB8ne180100INS_10shared_ptrIN7testing8internal26ParameterizedTestSuiteInfoIN12_GLOBAL__N_127CaesarDec_CommandCustomDictEE8TestInfoEEEJPS8_EPS9_EEPT_SD_DpOT0_, symObjAddr: 0xB4768, symBinAddr: 0x1000B5E18, symSize: 0x70 }
  - { offset: 0x53EC3, size: 0x8, addend: 0x0, symName: __ZNSt3__112construct_atB8ne180100INS_10shared_ptrIN7testing8internal26ParameterizedTestSuiteInfoIN12_GLOBAL__N_127CaesarDec_CommandCustomDictEE8TestInfoEEEJPS8_EPS9_EEPT_SD_DpOT0_, symObjAddr: 0xB47D8, symBinAddr: 0x1000B5E88, symSize: 0xF8 }
  - { offset: 0x54987, size: 0x8, addend: 0x0, symName: __ZNSt3__119__allocate_at_leastB8ne180100INS_9allocatorINS_10shared_ptrIN7testing8internal26ParameterizedTestSuiteInfoIN12_GLOBAL__N_127CaesarDec_CommandCustomDictEE8TestInfoEEEEEEENS_19__allocation_resultINS_16allocator_traitsIT_E7pointerEEERSE_m, symObjAddr: 0xB9788, symBinAddr: 0x1000BAE38, symSize: 0x38 }
  - { offset: 0x549CA, size: 0x8, addend: 0x0, symName: __ZNSt3__142__uninitialized_allocator_move_if_noexceptB8ne180100INS_9allocatorINS_10shared_ptrIN7testing8internal26ParameterizedTestSuiteInfoIN12_GLOBAL__N_127CaesarDec_CommandCustomDictEE8TestInfoEEEEENS_16reverse_iteratorIPSA_EESE_SE_EET2_RT_T0_T1_SF_, symObjAddr: 0xB9FE8, symBinAddr: 0x1000BB698, symSize: 0x578 }
  - { offset: 0x54A7E, size: 0x8, addend: 0x0, symName: __ZNSt3__14swapB8ne180100IPNS_10shared_ptrIN7testing8internal26ParameterizedTestSuiteInfoIN12_GLOBAL__N_127CaesarDec_CommandCustomDictEE8TestInfoEEEEENS_9enable_ifIXaasr21is_move_constructibleIT_EE5valuesr18is_move_assignableISC_EE5valueEvE4typeERSC_SF_, symObjAddr: 0xBA648, symBinAddr: 0x1000BBCF8, symSize: 0x168 }
  - { offset: 0x54ACF, size: 0x8, addend: 0x0, symName: __ZNSt3__122__make_exception_guardB8ne180100INS_29_AllocatorDestroyRangeReverseINS_9allocatorINS_10shared_ptrIN7testing8internal26ParameterizedTestSuiteInfoIN12_GLOBAL__N_127CaesarDec_CommandCustomDictEE8TestInfoEEEEENS_16reverse_iteratorIPSB_EEEEEENS_28__exception_guard_exceptionsIT_EESI_, symObjAddr: 0xBA918, symBinAddr: 0x1000BBFC8, symSize: 0x1F8 }
  - { offset: 0x54B08, size: 0x8, addend: 0x0, symName: __ZNSt3__1neB8ne180100IPNS_10shared_ptrIN7testing8internal26ParameterizedTestSuiteInfoIN12_GLOBAL__N_127CaesarDec_CommandCustomDictEE8TestInfoEEESA_EEbRKNS_16reverse_iteratorIT_EERKNSB_IT0_EEQrqXnecldtfp_4baseEcldtfp0_4baseERNS_14convertible_toIbEEE, symObjAddr: 0xBAB88, symBinAddr: 0x1000BC238, symSize: 0xA0 }
  - { offset: 0x54B54, size: 0x8, addend: 0x0, symName: __ZNSt3__112__to_addressB8ne180100INS_16reverse_iteratorIPNS_10shared_ptrIN7testing8internal26ParameterizedTestSuiteInfoIN12_GLOBAL__N_127CaesarDec_CommandCustomDictEE8TestInfoEEEEEvEEu7__decayIDTclsr19__to_address_helperIT_EE6__callclsr3stdE7declvalIRKSD_EEEEESF_, symObjAddr: 0xBAC98, symBinAddr: 0x1000BC348, symSize: 0x58 }
  - { offset: 0x54B8A, size: 0x8, addend: 0x0, symName: __ZNSt3__114__construct_atB8ne180100INS_10shared_ptrIN7testing8internal26ParameterizedTestSuiteInfoIN12_GLOBAL__N_127CaesarDec_CommandCustomDictEE8TestInfoEEEJS9_EPS9_EEPT_SC_DpOT0_, symObjAddr: 0xBB658, symBinAddr: 0x1000BCD08, symSize: 0x70 }
  - { offset: 0x54BDD, size: 0x8, addend: 0x0, symName: __ZNSt3__112construct_atB8ne180100INS_10shared_ptrIN7testing8internal26ParameterizedTestSuiteInfoIN12_GLOBAL__N_127CaesarDec_CommandCustomDictEE8TestInfoEEEJS9_EPS9_EEPT_SC_DpOT0_, symObjAddr: 0xBB6C8, symBinAddr: 0x1000BCD78, symSize: 0xD8 }
  - { offset: 0x54C7A, size: 0x8, addend: 0x0, symName: __ZNSt3__14prevB8ne180100IPNS_10shared_ptrIN7testing8internal26ParameterizedTestSuiteInfoIN12_GLOBAL__N_127CaesarDec_CommandCustomDictEE8TestInfoEEETnNS_9enable_ifIXsr29__has_input_iterator_categoryIT_EE5valueEiE4typeELi0EEESC_SC_NS_15iterator_traitsISC_E15difference_typeE, symObjAddr: 0xBBB38, symBinAddr: 0x1000BD1E8, symSize: 0x190 }
  - { offset: 0x54CCA, size: 0x8, addend: 0x0, symName: __ZNSt3__19__advanceB8ne180100IPNS_10shared_ptrIN7testing8internal26ParameterizedTestSuiteInfoIN12_GLOBAL__N_127CaesarDec_CommandCustomDictEE8TestInfoEEEEEvRT_NS_15iterator_traitsISB_E15difference_typeENS_26random_access_iterator_tagE, symObjAddr: 0xBBD38, symBinAddr: 0x1000BD3E8, symSize: 0xF8 }
  - { offset: 0x54D14, size: 0x8, addend: 0x0, symName: __ZNSt3__119__allocator_destroyB8ne180100INS_9allocatorINS_10shared_ptrIN7testing8internal26ParameterizedTestSuiteInfoIN12_GLOBAL__N_127CaesarDec_CommandCustomDictEE8TestInfoEEEEENS_16reverse_iteratorINSC_IPSA_EEEESF_EEvRT_T0_T1_, symObjAddr: 0xBC278, symBinAddr: 0x1000BD928, symSize: 0x2F8 }
  - { offset: 0x54D80, size: 0x8, addend: 0x0, symName: __ZNSt3__1neB8ne180100INS_16reverse_iteratorIPNS_10shared_ptrIN7testing8internal26ParameterizedTestSuiteInfoIN12_GLOBAL__N_127CaesarDec_CommandCustomDictEE8TestInfoEEEEESC_EEbRKNS1_IT_EERKNS1_IT0_EEQrqXnecldtfp_4baseEcldtfp0_4baseERNS_14convertible_toIbEEE, symObjAddr: 0xBC5D8, symBinAddr: 0x1000BDC88, symSize: 0x220 }
  - { offset: 0x54DCE, size: 0x8, addend: 0x0, symName: __ZNSt3__112__to_addressB8ne180100INS_16reverse_iteratorINS1_IPNS_10shared_ptrIN7testing8internal26ParameterizedTestSuiteInfoIN12_GLOBAL__N_127CaesarDec_CommandCustomDictEE8TestInfoEEEEEEEvEEu7__decayIDTclsr19__to_address_helperIT_EE6__callclsr3stdE7declvalIRKSE_EEEEESG_, symObjAddr: 0xBC828, symBinAddr: 0x1000BDED8, symSize: 0x58 }
  - { offset: 0x54E05, size: 0x8, addend: 0x0, symName: __ZNSt3__112__destroy_atB8ne180100INS_10shared_ptrIN7testing8internal26ParameterizedTestSuiteInfoIN12_GLOBAL__N_127CaesarDec_CommandCustomDictEE8TestInfoEEETnNS_9enable_ifIXntsr8is_arrayIT_EE5valueEiE4typeELi0EEEvPSB_, symObjAddr: 0xBC9B8, symBinAddr: 0x1000BE068, symSize: 0x58 }
  - { offset: 0x54E68, size: 0x8, addend: 0x0, symName: __ZNSt3__14prevB8ne180100INS_16reverse_iteratorIPNS_10shared_ptrIN7testing8internal26ParameterizedTestSuiteInfoIN12_GLOBAL__N_127CaesarDec_CommandCustomDictEE8TestInfoEEEEETnNS_9enable_ifIXsr29__has_input_iterator_categoryIT_EE5valueEiE4typeELi0EEESE_SE_NS_15iterator_traitsISE_E15difference_typeE, symObjAddr: 0xBCE38, symBinAddr: 0x1000BE4E8, symSize: 0x1E0 }
  - { offset: 0x54EB8, size: 0x8, addend: 0x0, symName: __ZNSt3__19__advanceB8ne180100INS_16reverse_iteratorIPNS_10shared_ptrIN7testing8internal26ParameterizedTestSuiteInfoIN12_GLOBAL__N_127CaesarDec_CommandCustomDictEE8TestInfoEEEEEEEvRT_NS_15iterator_traitsISD_E15difference_typeENS_26random_access_iterator_tagE, symObjAddr: 0xBD088, symBinAddr: 0x1000BE738, symSize: 0x68 }
  - { offset: 0x54F02, size: 0x8, addend: 0x0, symName: __ZNSt3__13getB8ne180100ILm0EJNS_12basic_stringIcNS_11char_traitsIcEENS_9allocatorIcEEEENS_6vectorIS6_NS4_IS6_EEEES6_S6_EEERKNS_13tuple_elementIXT_ENS_5tupleIJDpT0_EEEE4typeERKSE_, symObjAddr: 0xC2FF8, symBinAddr: 0x1000C46A8, symSize: 0xB0 }
  - { offset: 0x54F54, size: 0x8, addend: 0x0, symName: __ZNSt3__13getB8ne180100ILm1EJNS_12basic_stringIcNS_11char_traitsIcEENS_9allocatorIcEEEENS_6vectorIS6_NS4_IS6_EEEES6_S6_EEERKNS_13tuple_elementIXT_ENS_5tupleIJDpT0_EEEE4typeERKSE_, symObjAddr: 0xC30A8, symBinAddr: 0x1000C4758, symSize: 0xC0 }
  - { offset: 0x54FA6, size: 0x8, addend: 0x0, symName: __ZNSt3__13getB8ne180100ILm2EJNS_12basic_stringIcNS_11char_traitsIcEENS_9allocatorIcEEEENS_6vectorIS6_NS4_IS6_EEEES6_S6_EEERKNS_13tuple_elementIXT_ENS_5tupleIJDpT0_EEEE4typeERKSE_, symObjAddr: 0xC3168, symBinAddr: 0x1000C4818, symSize: 0xC0 }
  - { offset: 0x54FF8, size: 0x8, addend: 0x0, symName: __ZNSt3__13getB8ne180100ILm3EJNS_12basic_stringIcNS_11char_traitsIcEENS_9allocatorIcEEEENS_6vectorIS6_NS4_IS6_EEEES6_S6_EEERKNS_13tuple_elementIXT_ENS_5tupleIJDpT0_EEEE4typeERKSE_, symObjAddr: 0xC3228, symBinAddr: 0x1000C48D8, symSize: 0xC0 }
  - { offset: 0x5504A, size: 0x8, addend: 0x0, symName: __ZNSt3__1lsB8ne180100IcNS_11char_traitsIcEENS_9allocatorIcEEEERNS_13basic_ostreamIT_T0_EES9_RKNS_12basic_stringIS6_S7_T1_EE, symObjAddr: 0xC32E8, symBinAddr: 0x1000C4998, symSize: 0x100 }
  - { offset: 0x550A2, size: 0x8, addend: 0x0, symName: __ZNSt3__1plB8ne180100IcNS_11char_traitsIcEENS_9allocatorIcEEEENS_12basic_stringIT_T0_T1_EEOS9_PKS6_, symObjAddr: 0xC5378, symBinAddr: 0x1000C6A28, symSize: 0xD8 }
  - { offset: 0x550FA, size: 0x8, addend: 0x0, symName: __ZNSt3__110__str_findB8ne180100IcmNS_11char_traitsIcEETnT0_Lm18446744073709551615EEES3_PKT_S3_S6_S3_S3_, symObjAddr: 0xC9CE8, symBinAddr: 0x1000CB398, symSize: 0x240 }
  - { offset: 0x551A1, size: 0x8, addend: 0x0, symName: __ZNSt3__118__search_substringB8ne180100IcNS_11char_traitsIcEEEEPKT_S5_S5_S5_S5_, symObjAddr: 0xC9F28, symBinAddr: 0x1000CB5D8, symSize: 0x440 }
  - { offset: 0x55245, size: 0x8, addend: 0x0, symName: __ZNSt3__118__constexpr_memchrB8ne180100IKccEEPT_S3_T0_m, symObjAddr: 0xCA438, symBinAddr: 0x1000CBAE8, symSize: 0x48 }
  - { offset: 0x552BB, size: 0x8, addend: 0x0, symName: __ZNSt3__13getB8ne180100ILm1EJPKN7testing8internal11MatcherBaseIRKNS_12basic_stringIcNS_11char_traitsIcEENS_9allocatorIcEEEEEEPKNS1_16MatcherInterfaceISB_EEEEEONS_13tuple_elementIXT_ENS_5tupleIJDpT0_EEEE4typeEOSN_, symObjAddr: 0xCC218, symBinAddr: 0x1000CD8C8, symSize: 0xC0 }
  - { offset: 0x55303, size: 0x8, addend: 0x0, symName: __ZNSt3__110make_tupleB8ne180100IJPKN7testing8internal11MatcherBaseIRKNS_12basic_stringIcNS_11char_traitsIcEENS_9allocatorIcEEEEEEPKNS1_16MatcherInterfaceISB_EEEEENS_5tupleIJDpNS_18__unwrap_ref_decayIT_E4typeEEEEDpOSL_, symObjAddr: 0xCC2D8, symBinAddr: 0x1000CD988, symSize: 0x1D8 }
  - { offset: 0x55752, size: 0x8, addend: 0x0, symName: __ZNSt3__122__cxx_atomic_fetch_subB8ne180100IiEET_PNS_22__cxx_atomic_base_implIS1_EES1_NS_12memory_orderE, symObjAddr: 0xCEC58, symBinAddr: 0x1000D0308, symSize: 0x278 }
  - { offset: 0x557A7, size: 0x8, addend: 0x0, symName: __ZNSt3__119__str_find_first_ofB8ne180100IcmNS_11char_traitsIcEETnT0_Lm18446744073709551615EEES3_PKT_S3_S6_S3_S3_, symObjAddr: 0xD07A8, symBinAddr: 0x1000D1E58, symSize: 0x270 }
  - { offset: 0x5584E, size: 0x8, addend: 0x0, symName: __ZNSt3__118__find_first_of_ceB8ne180100IPKcS2_RDoFbccEEET_S5_S5_T0_S6_OT1_, symObjAddr: 0xD0A18, symBinAddr: 0x1000D20C8, symSize: 0x290 }
  - { offset: 0x558E9, size: 0x8, addend: 0x0, symName: __ZNSt3__111make_uniqueB8ne180100INS_12basic_stringIcNS_11char_traitsIcEENS_9allocatorIcEEEEJEEENS_11__unique_ifIT_E15__unique_singleEDpOT0_, symObjAddr: 0xD1298, symBinAddr: 0x1000D2948, symSize: 0xA8 }
  - { offset: 0x55917, size: 0x8, addend: 0x0, symName: __ZNSt3__134__libcpp_atomic_refcount_incrementB8ne180100IlEET_RS1_, symObjAddr: 0xD25E8, symBinAddr: 0x1000D3C98, symSize: 0x78 }
  - { offset: 0x56376, size: 0x8, addend: 0x0, symName: __ZNSt3__110make_tupleB8ne180100IJRA10_KcNS_6vectorINS_12basic_stringIcNS_11char_traitsIcEENS_9allocatorIcEEEENS8_ISA_EEEERKSA_S3_EEENS_5tupleIJDpNS_18__unwrap_ref_decayIT_E4typeEEEEDpOSH_, symObjAddr: 0xD8018, symBinAddr: 0x1000D96C8, symSize: 0x130 }
  - { offset: 0x563EB, size: 0x8, addend: 0x0, symName: __ZNSt3__110make_tupleB8ne180100IJRA6_KcNS_6vectorINS_12basic_stringIcNS_11char_traitsIcEENS_9allocatorIcEEEENS8_ISA_EEEES3_RA17_S1_EEENS_5tupleIJDpNS_18__unwrap_ref_decayIT_E4typeEEEEDpOSH_, symObjAddr: 0xD8148, symBinAddr: 0x1000D97F8, symSize: 0x120 }
  - { offset: 0x56460, size: 0x8, addend: 0x0, symName: __ZNSt3__110make_tupleB8ne180100IJRA3_KcNS_6vectorINS_12basic_stringIcNS_11char_traitsIcEENS_9allocatorIcEEEENS8_ISA_EEEERA9_S1_RA19_S1_EEENS_5tupleIJDpNS_18__unwrap_ref_decayIT_E4typeEEEEDpOSJ_, symObjAddr: 0xD8268, symBinAddr: 0x1000D9918, symSize: 0x120 }
  - { offset: 0x564D5, size: 0x8, addend: 0x0, symName: __ZNSt3__110make_tupleB8ne180100IJRA3_KcNS_6vectorINS_12basic_stringIcNS_11char_traitsIcEENS_9allocatorIcEEEENS8_ISA_EEEERA6_S1_RA19_S1_EEENS_5tupleIJDpNS_18__unwrap_ref_decayIT_E4typeEEEEDpOSJ_, symObjAddr: 0xD8388, symBinAddr: 0x1000D9A38, symSize: 0x120 }
  - { offset: 0x5654A, size: 0x8, addend: 0x0, symName: __ZNSt3__110make_tupleB8ne180100IJRA10_KcNS_6vectorINS_12basic_stringIcNS_11char_traitsIcEENS_9allocatorIcEEEENS8_ISA_EEEERA8_S1_RA18_S1_EEENS_5tupleIJDpNS_18__unwrap_ref_decayIT_E4typeEEEEDpOSJ_, symObjAddr: 0xD84A8, symBinAddr: 0x1000D9B58, symSize: 0x120 }
  - { offset: 0x565BF, size: 0x8, addend: 0x0, symName: __ZNSt3__110make_tupleB8ne180100IJRA15_KcNS_6vectorINS_12basic_stringIcNS_11char_traitsIcEENS_9allocatorIcEEEENS8_ISA_EEEES3_RA26_S1_EEENS_5tupleIJDpNS_18__unwrap_ref_decayIT_E4typeEEEEDpOSH_, symObjAddr: 0xD85C8, symBinAddr: 0x1000D9C78, symSize: 0x120 }
  - { offset: 0x56634, size: 0x8, addend: 0x0, symName: __ZNSt3__110make_tupleB8ne180100IJRA10_KcNS_6vectorINS_12basic_stringIcNS_11char_traitsIcEENS_9allocatorIcEEEENS8_ISA_EEEERKSA_RA24_S1_EEENS_5tupleIJDpNS_18__unwrap_ref_decayIT_E4typeEEEEDpOSJ_, symObjAddr: 0xD86E8, symBinAddr: 0x1000D9D98, symSize: 0x130 }
  - { offset: 0x566A9, size: 0x8, addend: 0x0, symName: __ZNSt3__110make_tupleB8ne180100IJRA401_KcNS_6vectorINS_12basic_stringIcNS_11char_traitsIcEENS_9allocatorIcEEEENS8_ISA_EEEES3_RA15_S1_EEENS_5tupleIJDpNS_18__unwrap_ref_decayIT_E4typeEEEEDpOSH_, symObjAddr: 0xD8818, symBinAddr: 0x1000D9EC8, symSize: 0x118 }
  - { offset: 0x574CB, size: 0x8, addend: 0x0, symName: __ZNSt3__18distanceB8ne180100INS_11__wrap_iterIPKNS_5tupleIJNS_12basic_stringIcNS_11char_traitsIcEENS_9allocatorIcEEEENS_6vectorIS8_NS6_IS8_EEEES8_S8_EEEEEEENS_15iterator_traitsIT_E15difference_typeESH_SH_, symObjAddr: 0xDEC28, symBinAddr: 0x1000E02D8, symSize: 0x48 }
  - { offset: 0x5750E, size: 0x8, addend: 0x0, symName: __ZNSt3__110__distanceB8ne180100INS_11__wrap_iterIPKNS_5tupleIJNS_12basic_stringIcNS_11char_traitsIcEENS_9allocatorIcEEEENS_6vectorIS8_NS6_IS8_EEEES8_S8_EEEEEEENS_15iterator_traitsIT_E15difference_typeESH_SH_NS_26random_access_iterator_tagE, symObjAddr: 0xDF268, symBinAddr: 0x1000E0918, symSize: 0x190 }
  - { offset: 0x57565, size: 0x8, addend: 0x0, symName: __ZNSt3__1miB8ne180100IPKNS_5tupleIJNS_12basic_stringIcNS_11char_traitsIcEENS_9allocatorIcEEEENS_6vectorIS7_NS5_IS7_EEEES7_S7_EEESD_EEDTmicldtfp_4baseEcldtfp0_4baseEERKNS_11__wrap_iterIT_EERKNSF_IT0_EE, symObjAddr: 0xDF3F8, symBinAddr: 0x1000E0AA8, symSize: 0x98 }
  - { offset: 0x575B1, size: 0x8, addend: 0x0, symName: __ZNSt3__122__make_exception_guardB8ne180100INS_6vectorINS_5tupleIJNS_12basic_stringIcNS_11char_traitsIcEENS_9allocatorIcEEEENS1_IS8_NS6_IS8_EEEES8_S8_EEENS6_ISB_EEE16__destroy_vectorEEENS_28__exception_guard_exceptionsIT_EESG_, symObjAddr: 0xDF518, symBinAddr: 0x1000E0BC8, symSize: 0x78 }
  - { offset: 0x575E6, size: 0x8, addend: 0x0, symName: __ZNSt3__119__allocate_at_leastB8ne180100INS_9allocatorINS_5tupleIJNS_12basic_stringIcNS_11char_traitsIcEENS1_IcEEEENS_6vectorIS7_NS1_IS7_EEEES7_S7_EEEEEEENS_19__allocation_resultINS_16allocator_traitsIT_E7pointerEEERSF_m, symObjAddr: 0xE03A8, symBinAddr: 0x1000E1A58, symSize: 0x38 }
  - { offset: 0x57629, size: 0x8, addend: 0x0, symName: __ZNSt3__112__to_addressB8ne180100INS_5tupleIJNS_12basic_stringIcNS_11char_traitsIcEENS_9allocatorIcEEEENS_6vectorIS7_NS5_IS7_EEEES7_S7_EEEEEPT_SD_, symObjAddr: 0xE0E88, symBinAddr: 0x1000E2538, symSize: 0x18 }
  - { offset: 0x5765E, size: 0x8, addend: 0x0, symName: __ZNSt3__130__uninitialized_allocator_copyB8ne180100INS_9allocatorINS_5tupleIJNS_12basic_stringIcNS_11char_traitsIcEENS1_IcEEEENS_6vectorIS7_NS1_IS7_EEEES7_S7_EEEEENS_11__wrap_iterIPKSB_EESG_PSB_EET2_RT_T0_T1_SI_, symObjAddr: 0xE1128, symBinAddr: 0x1000E27D8, symSize: 0x278 }
  - { offset: 0x57704, size: 0x8, addend: 0x0, symName: __ZNSt3__114__unwrap_rangeB8ne180100INS_11__wrap_iterIPKNS_5tupleIJNS_12basic_stringIcNS_11char_traitsIcEENS_9allocatorIcEEEENS_6vectorIS8_NS6_IS8_EEEES8_S8_EEEEESF_EEDaT_T0_, symObjAddr: 0xE1968, symBinAddr: 0x1000E3018, symSize: 0x70 }
  - { offset: 0x57750, size: 0x8, addend: 0x0, symName: __ZNSt3__135__uninitialized_allocator_copy_implB8ne180100INS_9allocatorINS_5tupleIJNS_12basic_stringIcNS_11char_traitsIcEENS1_IcEEEENS_6vectorIS7_NS1_IS7_EEEES7_S7_EEEEEPKSB_SE_PSB_EET2_RT_T0_T1_SG_, symObjAddr: 0xE19D8, symBinAddr: 0x1000E3088, symSize: 0x520 }
  - { offset: 0x577FC, size: 0x8, addend: 0x0, symName: __ZNSt3__113__unwrap_iterB8ne180100IPNS_5tupleIJNS_12basic_stringIcNS_11char_traitsIcEENS_9allocatorIcEEEENS_6vectorIS7_NS5_IS7_EEEES7_S7_EEENS_18__unwrap_iter_implISC_Lb1EEETnNS_9enable_ifIXsr21is_copy_constructibleIT_EE5valueEiE4typeELi0EEEDTclsrT0_8__unwrapclsr3stdE7declvalISG_EEEESG_, symObjAddr: 0xE1EF8, symBinAddr: 0x1000E35A8, symSize: 0x30 }
  - { offset: 0x57841, size: 0x8, addend: 0x0, symName: __ZNSt3__113__rewrap_iterB8ne180100IPNS_5tupleIJNS_12basic_stringIcNS_11char_traitsIcEENS_9allocatorIcEEEENS_6vectorIS7_NS5_IS7_EEEES7_S7_EEESC_NS_18__unwrap_iter_implISC_Lb1EEEEET_SF_T0_, symObjAddr: 0xE1F28, symBinAddr: 0x1000E35D8, symSize: 0x50 }
  - { offset: 0x57999, size: 0x8, addend: 0x0, symName: __ZNSt3__113__unwrap_iterB8ne180100INS_11__wrap_iterIPKNS_5tupleIJNS_12basic_stringIcNS_11char_traitsIcEENS_9allocatorIcEEEENS_6vectorIS8_NS6_IS8_EEEES8_S8_EEEEENS_18__unwrap_iter_implISF_Lb1EEETnNS_9enable_ifIXsr21is_copy_constructibleIT_EE5valueEiE4typeELi0EEEDTclsrT0_8__unwrapclsr3stdE7declvalISJ_EEEESJ_, symObjAddr: 0xE21B8, symBinAddr: 0x1000E3868, symSize: 0x38 }
  - { offset: 0x57A31, size: 0x8, addend: 0x0, symName: __ZNSt3__112__to_addressB8ne180100INS_11__wrap_iterIPKNS_5tupleIJNS_12basic_stringIcNS_11char_traitsIcEENS_9allocatorIcEEEENS_6vectorIS8_NS6_IS8_EEEES8_S8_EEEEEvEEu7__decayIDTclsr19__to_address_helperIT_EE6__callclsr3stdE7declvalIRKSG_EEEEESI_, symObjAddr: 0xE23A8, symBinAddr: 0x1000E3A58, symSize: 0x60 }
  - { offset: 0x57B0D, size: 0x8, addend: 0x0, symName: __ZNSt3__112__to_addressB8ne180100IKNS_5tupleIJNS_12basic_stringIcNS_11char_traitsIcEENS_9allocatorIcEEEENS_6vectorIS7_NS5_IS7_EEEES7_S7_EEEEEPT_SE_, symObjAddr: 0xE2598, symBinAddr: 0x1000E3C48, symSize: 0x18 }
  - { offset: 0x57B42, size: 0x8, addend: 0x0, symName: __ZNSt3__122__make_exception_guardB8ne180100INS_29_AllocatorDestroyRangeReverseINS_9allocatorINS_5tupleIJNS_12basic_stringIcNS_11char_traitsIcEENS2_IcEEEENS_6vectorIS8_NS2_IS8_EEEES8_S8_EEEEEPSC_EEEENS_28__exception_guard_exceptionsIT_EESH_, symObjAddr: 0xE2748, symBinAddr: 0x1000E3DF8, symSize: 0x1F8 }
  - { offset: 0x57B7B, size: 0x8, addend: 0x0, symName: __ZNSt3__114__construct_atB8ne180100INS_5tupleIJNS_12basic_stringIcNS_11char_traitsIcEENS_9allocatorIcEEEENS_6vectorIS7_NS5_IS7_EEEES7_S7_EEEJRKSB_EPSB_EEPT_SG_DpOT0_, symObjAddr: 0xE3148, symBinAddr: 0x1000E47F8, symSize: 0x70 }
  - { offset: 0x57BF5, size: 0x8, addend: 0x0, symName: __ZNSt3__112construct_atB8ne180100INS_5tupleIJNS_12basic_stringIcNS_11char_traitsIcEENS_9allocatorIcEEEENS_6vectorIS7_NS5_IS7_EEEES7_S7_EEEJRKSB_EPSB_EEPT_SG_DpOT0_, symObjAddr: 0xE31B8, symBinAddr: 0x1000E4868, symSize: 0xD8 }
  - { offset: 0x57C67, size: 0x8, addend: 0x0, symName: __ZNSt3__119__allocator_destroyB8ne180100INS_9allocatorINS_5tupleIJNS_12basic_stringIcNS_11char_traitsIcEENS1_IcEEEENS_6vectorIS7_NS1_IS7_EEEES7_S7_EEEEENS_16reverse_iteratorIPSB_EESF_EEvRT_T0_T1_, symObjAddr: 0xE3698, symBinAddr: 0x1000E4D48, symSize: 0x1F8 }
  - { offset: 0x57CD3, size: 0x8, addend: 0x0, symName: __ZNSt3__1neB8ne180100IPNS_5tupleIJNS_12basic_stringIcNS_11char_traitsIcEENS_9allocatorIcEEEENS_6vectorIS7_NS5_IS7_EEEES7_S7_EEESC_EEbRKNS_16reverse_iteratorIT_EERKNSD_IT0_EEQrqXnecldtfp_4baseEcldtfp0_4baseERNS_14convertible_toIbEEE, symObjAddr: 0xE38F8, symBinAddr: 0x1000E4FA8, symSize: 0xA0 }
  - { offset: 0x57D1F, size: 0x8, addend: 0x0, symName: __ZNSt3__112__to_addressB8ne180100INS_16reverse_iteratorIPNS_5tupleIJNS_12basic_stringIcNS_11char_traitsIcEENS_9allocatorIcEEEENS_6vectorIS8_NS6_IS8_EEEES8_S8_EEEEEvEEu7__decayIDTclsr19__to_address_helperIT_EE6__callclsr3stdE7declvalIRKSF_EEEEESH_, symObjAddr: 0xE39C8, symBinAddr: 0x1000E5078, symSize: 0x58 }
  - { offset: 0x57D56, size: 0x8, addend: 0x0, symName: __ZNSt3__112__destroy_atB8ne180100INS_5tupleIJNS_12basic_stringIcNS_11char_traitsIcEENS_9allocatorIcEEEENS_6vectorIS7_NS5_IS7_EEEES7_S7_EEETnNS_9enable_ifIXntsr8is_arrayIT_EE5valueEiE4typeELi0EEEvPSD_, symObjAddr: 0xE3BD8, symBinAddr: 0x1000E5288, symSize: 0x60 }
  - { offset: 0x57DB8, size: 0x8, addend: 0x0, symName: __ZNSt3__14prevB8ne180100IPNS_5tupleIJNS_12basic_stringIcNS_11char_traitsIcEENS_9allocatorIcEEEENS_6vectorIS7_NS5_IS7_EEEES7_S7_EEETnNS_9enable_ifIXsr29__has_input_iterator_categoryIT_EE5valueEiE4typeELi0EEESE_SE_NS_15iterator_traitsISE_E15difference_typeE, symObjAddr: 0xE3D38, symBinAddr: 0x1000E53E8, symSize: 0x190 }
  - { offset: 0x57E08, size: 0x8, addend: 0x0, symName: __ZNSt3__19__advanceB8ne180100IPNS_5tupleIJNS_12basic_stringIcNS_11char_traitsIcEENS_9allocatorIcEEEENS_6vectorIS7_NS5_IS7_EEEES7_S7_EEEEEvRT_NS_15iterator_traitsISD_E15difference_typeENS_26random_access_iterator_tagE, symObjAddr: 0xE3F38, symBinAddr: 0x1000E55E8, symSize: 0xF8 }
  - { offset: 0x57EA5, size: 0x8, addend: 0x0, symName: __ZNSt3__1eqB8ne180100IPKNS_5tupleIJNS_12basic_stringIcNS_11char_traitsIcEENS_9allocatorIcEEEENS_6vectorIS7_NS5_IS7_EEEES7_S7_EEEEEbRKNS_11__wrap_iterIT_EESI_, symObjAddr: 0xE74B8, symBinAddr: 0x1000E8B68, symSize: 0xA0 }
  - { offset: 0x58912, size: 0x8, addend: 0x0, symName: __ZNSt3__13getB8ne180100ILm0EJPKcNS_6vectorINS_12basic_stringIcNS_11char_traitsIcEENS_9allocatorIcEEEENS7_IS9_EEEES9_S2_EEERKNS_13tuple_elementIXT_ENS_5tupleIJDpT0_EEEE4typeERKSG_, symObjAddr: 0xEB528, symBinAddr: 0x1000ECBD8, symSize: 0xB0 }
  - { offset: 0x58963, size: 0x8, addend: 0x0, symName: __ZNSt3__13getB8ne180100ILm1EJPKcNS_6vectorINS_12basic_stringIcNS_11char_traitsIcEENS_9allocatorIcEEEENS7_IS9_EEEES9_S2_EEERKNS_13tuple_elementIXT_ENS_5tupleIJDpT0_EEEE4typeERKSG_, symObjAddr: 0xEB5D8, symBinAddr: 0x1000ECC88, symSize: 0xC0 }
  - { offset: 0x589B4, size: 0x8, addend: 0x0, symName: __ZNSt3__13getB8ne180100ILm2EJPKcNS_6vectorINS_12basic_stringIcNS_11char_traitsIcEENS_9allocatorIcEEEENS7_IS9_EEEES9_S2_EEERKNS_13tuple_elementIXT_ENS_5tupleIJDpT0_EEEE4typeERKSG_, symObjAddr: 0xEB698, symBinAddr: 0x1000ECD48, symSize: 0xC0 }
  - { offset: 0x58A05, size: 0x8, addend: 0x0, symName: __ZNSt3__13getB8ne180100ILm3EJPKcNS_6vectorINS_12basic_stringIcNS_11char_traitsIcEENS_9allocatorIcEEEENS7_IS9_EEEES9_S2_EEERKNS_13tuple_elementIXT_ENS_5tupleIJDpT0_EEEE4typeERKSG_, symObjAddr: 0xEB758, symBinAddr: 0x1000ECE08, symSize: 0xB8 }
  - { offset: 0x58A56, size: 0x8, addend: 0x0, symName: __ZNSt3__13getB8ne180100ILm0EJPKcNS_6vectorINS_12basic_stringIcNS_11char_traitsIcEENS_9allocatorIcEEEENS7_IS9_EEEES2_S2_EEERKNS_13tuple_elementIXT_ENS_5tupleIJDpT0_EEEE4typeERKSG_, symObjAddr: 0xEBDE8, symBinAddr: 0x1000ED498, symSize: 0xB0 }
  - { offset: 0x58AA7, size: 0x8, addend: 0x0, symName: __ZNSt3__13getB8ne180100ILm1EJPKcNS_6vectorINS_12basic_stringIcNS_11char_traitsIcEENS_9allocatorIcEEEENS7_IS9_EEEES2_S2_EEERKNS_13tuple_elementIXT_ENS_5tupleIJDpT0_EEEE4typeERKSG_, symObjAddr: 0xEBE98, symBinAddr: 0x1000ED548, symSize: 0xC0 }
  - { offset: 0x58AF8, size: 0x8, addend: 0x0, symName: __ZNSt3__13getB8ne180100ILm2EJPKcNS_6vectorINS_12basic_stringIcNS_11char_traitsIcEENS_9allocatorIcEEEENS7_IS9_EEEES2_S2_EEERKNS_13tuple_elementIXT_ENS_5tupleIJDpT0_EEEE4typeERKSG_, symObjAddr: 0xEBF58, symBinAddr: 0x1000ED608, symSize: 0xB8 }
  - { offset: 0x58B49, size: 0x8, addend: 0x0, symName: __ZNSt3__13getB8ne180100ILm3EJPKcNS_6vectorINS_12basic_stringIcNS_11char_traitsIcEENS_9allocatorIcEEEENS7_IS9_EEEES2_S2_EEERKNS_13tuple_elementIXT_ENS_5tupleIJDpT0_EEEE4typeERKSG_, symObjAddr: 0xEC0D8, symBinAddr: 0x1000ED788, symSize: 0xB8 }
  - { offset: 0x58B9A, size: 0x8, addend: 0x0, symName: __ZNSt3__130__uninitialized_allocator_copyB8ne180100INS_9allocatorINS_5tupleIJNS_12basic_stringIcNS_11char_traitsIcEENS1_IcEEEENS_6vectorIS7_NS1_IS7_EEEES7_S7_EEEEEPKSB_SE_PSB_EET2_RT_T0_T1_SG_, symObjAddr: 0xECC68, symBinAddr: 0x1000EE318, symSize: 0x230 }
  - { offset: 0x58C40, size: 0x8, addend: 0x0, symName: __ZNSt3__114__unwrap_rangeB8ne180100IPKNS_5tupleIJNS_12basic_stringIcNS_11char_traitsIcEENS_9allocatorIcEEEENS_6vectorIS7_NS5_IS7_EEEES7_S7_EEESD_EEDaT_T0_, symObjAddr: 0xECE98, symBinAddr: 0x1000EE548, symSize: 0x40 }
  - { offset: 0x58CC2, size: 0x8, addend: 0x0, symName: __ZNSt3__113__unwrap_iterB8ne180100IPKNS_5tupleIJNS_12basic_stringIcNS_11char_traitsIcEENS_9allocatorIcEEEENS_6vectorIS7_NS5_IS7_EEEES7_S7_EEENS_18__unwrap_iter_implISD_Lb1EEETnNS_9enable_ifIXsr21is_copy_constructibleIT_EE5valueEiE4typeELi0EEEDTclsrT0_8__unwrapclsr3stdE7declvalISH_EEEESH_, symObjAddr: 0xED0C8, symBinAddr: 0x1000EE778, symSize: 0x30 }
  - { offset: 0x58D5A, size: 0x8, addend: 0x0, symName: '__ZNSt3__110make_tupleB8ne180100IJN7testing8internal10ValueArrayIJNS_5tupleIJPKcNS_6vectorINS_12basic_stringIcNS_11char_traitsIcEENS_9allocatorIcEEEENSB_ISD_EEEESD_S6_EEENS4_IJS6_SF_S6_S6_EEESH_SH_SH_SH_SG_SH_EEEZN12_GLOBAL__N_151gtest_CaesarDec_CommandCustomDict_EvalGenerateName_ERKNS1_13TestParamInfoINS4_IJSD_SF_SD_SD_EEEEEE3$_0EEENS4_IJDpNS_18__unwrap_ref_decayIT_E4typeEEEEDpOSR_', symObjAddr: 0xED718, symBinAddr: 0x1000EEDC8, symSize: 0xC8 }
  - { offset: 0x591C9, size: 0x8, addend: 0x0, symName: __ZNSt3__13getB8ne180100ILm3EJNS_12basic_stringIcNS_11char_traitsIcEENS_9allocatorIcEEEENS_6vectorIS6_NS4_IS6_EEEES6_S6_EEERNS_13tuple_elementIXT_ENS_5tupleIJDpT0_EEEE4typeERSE_, symObjAddr: 0xEEEA8, symBinAddr: 0x1000F0558, symSize: 0xB8 }
  - { offset: 0x5921B, size: 0x8, addend: 0x0, symName: __ZNSt3__112__to_addressB8ne180100INS_10shared_ptrIN7testing8internal26ParameterizedTestSuiteInfoIN12_GLOBAL__N_122CaesarDec_MainFullDictEE8TestInfoEEEEEPT_SB_, symObjAddr: 0xF0408, symBinAddr: 0x1000F1AB8, symSize: 0x18 }
  - { offset: 0x59250, size: 0x8, addend: 0x0, symName: __ZNSt3__114__construct_atB8ne180100INS_10shared_ptrIN7testing8internal26ParameterizedTestSuiteInfoIN12_GLOBAL__N_122CaesarDec_MainFullDictEE8TestInfoEEEJPS8_EPS9_EEPT_SD_DpOT0_, symObjAddr: 0xF0E68, symBinAddr: 0x1000F2518, symSize: 0x70 }
  - { offset: 0x592CA, size: 0x8, addend: 0x0, symName: __ZNSt3__112construct_atB8ne180100INS_10shared_ptrIN7testing8internal26ParameterizedTestSuiteInfoIN12_GLOBAL__N_122CaesarDec_MainFullDictEE8TestInfoEEEJPS8_EPS9_EEPT_SD_DpOT0_, symObjAddr: 0xF0ED8, symBinAddr: 0x1000F2588, symSize: 0xF8 }
  - { offset: 0x59D8E, size: 0x8, addend: 0x0, symName: __ZNSt3__119__allocate_at_leastB8ne180100INS_9allocatorINS_10shared_ptrIN7testing8internal26ParameterizedTestSuiteInfoIN12_GLOBAL__N_122CaesarDec_MainFullDictEE8TestInfoEEEEEEENS_19__allocation_resultINS_16allocator_traitsIT_E7pointerEEERSE_m, symObjAddr: 0xF5E88, symBinAddr: 0x1000F7538, symSize: 0x38 }
  - { offset: 0x59DD1, size: 0x8, addend: 0x0, symName: __ZNSt3__142__uninitialized_allocator_move_if_noexceptB8ne180100INS_9allocatorINS_10shared_ptrIN7testing8internal26ParameterizedTestSuiteInfoIN12_GLOBAL__N_122CaesarDec_MainFullDictEE8TestInfoEEEEENS_16reverse_iteratorIPSA_EESE_SE_EET2_RT_T0_T1_SF_, symObjAddr: 0xF66E8, symBinAddr: 0x1000F7D98, symSize: 0x578 }
  - { offset: 0x59E85, size: 0x8, addend: 0x0, symName: __ZNSt3__14swapB8ne180100IPNS_10shared_ptrIN7testing8internal26ParameterizedTestSuiteInfoIN12_GLOBAL__N_122CaesarDec_MainFullDictEE8TestInfoEEEEENS_9enable_ifIXaasr21is_move_constructibleIT_EE5valuesr18is_move_assignableISC_EE5valueEvE4typeERSC_SF_, symObjAddr: 0xF6D48, symBinAddr: 0x1000F83F8, symSize: 0x168 }
  - { offset: 0x59ED6, size: 0x8, addend: 0x0, symName: __ZNSt3__122__make_exception_guardB8ne180100INS_29_AllocatorDestroyRangeReverseINS_9allocatorINS_10shared_ptrIN7testing8internal26ParameterizedTestSuiteInfoIN12_GLOBAL__N_122CaesarDec_MainFullDictEE8TestInfoEEEEENS_16reverse_iteratorIPSB_EEEEEENS_28__exception_guard_exceptionsIT_EESI_, symObjAddr: 0xF7018, symBinAddr: 0x1000F86C8, symSize: 0x1F8 }
  - { offset: 0x59F0F, size: 0x8, addend: 0x0, symName: __ZNSt3__1neB8ne180100IPNS_10shared_ptrIN7testing8internal26ParameterizedTestSuiteInfoIN12_GLOBAL__N_122CaesarDec_MainFullDictEE8TestInfoEEESA_EEbRKNS_16reverse_iteratorIT_EERKNSB_IT0_EEQrqXnecldtfp_4baseEcldtfp0_4baseERNS_14convertible_toIbEEE, symObjAddr: 0xF7288, symBinAddr: 0x1000F8938, symSize: 0xA0 }
  - { offset: 0x59F5B, size: 0x8, addend: 0x0, symName: __ZNSt3__112__to_addressB8ne180100INS_16reverse_iteratorIPNS_10shared_ptrIN7testing8internal26ParameterizedTestSuiteInfoIN12_GLOBAL__N_122CaesarDec_MainFullDictEE8TestInfoEEEEEvEEu7__decayIDTclsr19__to_address_helperIT_EE6__callclsr3stdE7declvalIRKSD_EEEEESF_, symObjAddr: 0xF7398, symBinAddr: 0x1000F8A48, symSize: 0x58 }
  - { offset: 0x59F91, size: 0x8, addend: 0x0, symName: __ZNSt3__114__construct_atB8ne180100INS_10shared_ptrIN7testing8internal26ParameterizedTestSuiteInfoIN12_GLOBAL__N_122CaesarDec_MainFullDictEE8TestInfoEEEJS9_EPS9_EEPT_SC_DpOT0_, symObjAddr: 0xF7D58, symBinAddr: 0x1000F9408, symSize: 0x70 }
  - { offset: 0x59FE4, size: 0x8, addend: 0x0, symName: __ZNSt3__112construct_atB8ne180100INS_10shared_ptrIN7testing8internal26ParameterizedTestSuiteInfoIN12_GLOBAL__N_122CaesarDec_MainFullDictEE8TestInfoEEEJS9_EPS9_EEPT_SC_DpOT0_, symObjAddr: 0xF7DC8, symBinAddr: 0x1000F9478, symSize: 0xD8 }
  - { offset: 0x5A081, size: 0x8, addend: 0x0, symName: __ZNSt3__14prevB8ne180100IPNS_10shared_ptrIN7testing8internal26ParameterizedTestSuiteInfoIN12_GLOBAL__N_122CaesarDec_MainFullDictEE8TestInfoEEETnNS_9enable_ifIXsr29__has_input_iterator_categoryIT_EE5valueEiE4typeELi0EEESC_SC_NS_15iterator_traitsISC_E15difference_typeE, symObjAddr: 0xF8238, symBinAddr: 0x1000F98E8, symSize: 0x190 }
  - { offset: 0x5A0D1, size: 0x8, addend: 0x0, symName: __ZNSt3__19__advanceB8ne180100IPNS_10shared_ptrIN7testing8internal26ParameterizedTestSuiteInfoIN12_GLOBAL__N_122CaesarDec_MainFullDictEE8TestInfoEEEEEvRT_NS_15iterator_traitsISB_E15difference_typeENS_26random_access_iterator_tagE, symObjAddr: 0xF8438, symBinAddr: 0x1000F9AE8, symSize: 0xF8 }
  - { offset: 0x5A11B, size: 0x8, addend: 0x0, symName: __ZNSt3__119__allocator_destroyB8ne180100INS_9allocatorINS_10shared_ptrIN7testing8internal26ParameterizedTestSuiteInfoIN12_GLOBAL__N_122CaesarDec_MainFullDictEE8TestInfoEEEEENS_16reverse_iteratorINSC_IPSA_EEEESF_EEvRT_T0_T1_, symObjAddr: 0xF8978, symBinAddr: 0x1000FA028, symSize: 0x2F8 }
  - { offset: 0x5A187, size: 0x8, addend: 0x0, symName: __ZNSt3__1neB8ne180100INS_16reverse_iteratorIPNS_10shared_ptrIN7testing8internal26ParameterizedTestSuiteInfoIN12_GLOBAL__N_122CaesarDec_MainFullDictEE8TestInfoEEEEESC_EEbRKNS1_IT_EERKNS1_IT0_EEQrqXnecldtfp_4baseEcldtfp0_4baseERNS_14convertible_toIbEEE, symObjAddr: 0xF8CD8, symBinAddr: 0x1000FA388, symSize: 0x220 }
  - { offset: 0x5A1D5, size: 0x8, addend: 0x0, symName: __ZNSt3__112__to_addressB8ne180100INS_16reverse_iteratorINS1_IPNS_10shared_ptrIN7testing8internal26ParameterizedTestSuiteInfoIN12_GLOBAL__N_122CaesarDec_MainFullDictEE8TestInfoEEEEEEEvEEu7__decayIDTclsr19__to_address_helperIT_EE6__callclsr3stdE7declvalIRKSE_EEEEESG_, symObjAddr: 0xF8F28, symBinAddr: 0x1000FA5D8, symSize: 0x58 }
  - { offset: 0x5A20C, size: 0x8, addend: 0x0, symName: __ZNSt3__112__destroy_atB8ne180100INS_10shared_ptrIN7testing8internal26ParameterizedTestSuiteInfoIN12_GLOBAL__N_122CaesarDec_MainFullDictEE8TestInfoEEETnNS_9enable_ifIXntsr8is_arrayIT_EE5valueEiE4typeELi0EEEvPSB_, symObjAddr: 0xF90B8, symBinAddr: 0x1000FA768, symSize: 0x58 }
  - { offset: 0x5A26F, size: 0x8, addend: 0x0, symName: __ZNSt3__14prevB8ne180100INS_16reverse_iteratorIPNS_10shared_ptrIN7testing8internal26ParameterizedTestSuiteInfoIN12_GLOBAL__N_122CaesarDec_MainFullDictEE8TestInfoEEEEETnNS_9enable_ifIXsr29__has_input_iterator_categoryIT_EE5valueEiE4typeELi0EEESE_SE_NS_15iterator_traitsISE_E15difference_typeE, symObjAddr: 0xF9538, symBinAddr: 0x1000FABE8, symSize: 0x1E0 }
  - { offset: 0x5A2BF, size: 0x8, addend: 0x0, symName: __ZNSt3__19__advanceB8ne180100INS_16reverse_iteratorIPNS_10shared_ptrIN7testing8internal26ParameterizedTestSuiteInfoIN12_GLOBAL__N_122CaesarDec_MainFullDictEE8TestInfoEEEEEEEvRT_NS_15iterator_traitsISD_E15difference_typeENS_26random_access_iterator_tagE, symObjAddr: 0xF9788, symBinAddr: 0x1000FAE38, symSize: 0x68 }
  - { offset: 0x5A309, size: 0x8, addend: 0x0, symName: __ZNSt3__13getB8ne180100ILm0EJNS_12basic_stringIcNS_11char_traitsIcEENS_9allocatorIcEEEES6_S6_EEERKNS_13tuple_elementIXT_ENS_5tupleIJDpT0_EEEE4typeERKSB_, symObjAddr: 0xFDC08, symBinAddr: 0x1000FF2B8, symSize: 0xB0 }
  - { offset: 0x5A356, size: 0x8, addend: 0x0, symName: __ZNSt3__13getB8ne180100ILm1EJNS_12basic_stringIcNS_11char_traitsIcEENS_9allocatorIcEEEES6_S6_EEERKNS_13tuple_elementIXT_ENS_5tupleIJDpT0_EEEE4typeERKSB_, symObjAddr: 0xFDCB8, symBinAddr: 0x1000FF368, symSize: 0xC0 }
  - { offset: 0x5A3A3, size: 0x8, addend: 0x0, symName: __ZNSt3__13getB8ne180100ILm2EJNS_12basic_stringIcNS_11char_traitsIcEENS_9allocatorIcEEEES6_S6_EEERKNS_13tuple_elementIXT_ENS_5tupleIJDpT0_EEEE4typeERKSB_, symObjAddr: 0xFDD78, symBinAddr: 0x1000FF428, symSize: 0xB8 }
  - { offset: 0x5A3F0, size: 0x8, addend: 0x0, symName: __ZNSt3__110make_tupleB8ne180100IJRA6_KcS3_RA17_S1_EEENS_5tupleIJDpNS_18__unwrap_ref_decayIT_E4typeEEEEDpOS8_, symObjAddr: 0xFE1D8, symBinAddr: 0x1000FF888, symSize: 0x210 }
  - { offset: 0x5A454, size: 0x8, addend: 0x0, symName: __ZNSt3__110make_tupleB8ne180100IJRA36_KcS3_RA13_S1_EEENS_5tupleIJDpNS_18__unwrap_ref_decayIT_E4typeEEEEDpOS8_, symObjAddr: 0xFE3E8, symBinAddr: 0x1000FFA98, symSize: 0x208 }
  - { offset: 0x5A712, size: 0x8, addend: 0x0, symName: __ZNSt3__18distanceB8ne180100INS_11__wrap_iterIPKNS_5tupleIJNS_12basic_stringIcNS_11char_traitsIcEENS_9allocatorIcEEEES8_S8_EEEEEEENS_15iterator_traitsIT_E15difference_typeESE_SE_, symObjAddr: 0x100C58, symBinAddr: 0x100102308, symSize: 0x48 }
  - { offset: 0x5A755, size: 0x8, addend: 0x0, symName: __ZNSt3__110__distanceB8ne180100INS_11__wrap_iterIPKNS_5tupleIJNS_12basic_stringIcNS_11char_traitsIcEENS_9allocatorIcEEEES8_S8_EEEEEEENS_15iterator_traitsIT_E15difference_typeESE_SE_NS_26random_access_iterator_tagE, symObjAddr: 0x101298, symBinAddr: 0x100102948, symSize: 0x190 }
  - { offset: 0x5A7AC, size: 0x8, addend: 0x0, symName: __ZNSt3__1miB8ne180100IPKNS_5tupleIJNS_12basic_stringIcNS_11char_traitsIcEENS_9allocatorIcEEEES7_S7_EEESA_EEDTmicldtfp_4baseEcldtfp0_4baseEERKNS_11__wrap_iterIT_EERKNSC_IT0_EE, symObjAddr: 0x101428, symBinAddr: 0x100102AD8, symSize: 0x98 }
  - { offset: 0x5A7F8, size: 0x8, addend: 0x0, symName: __ZNSt3__122__make_exception_guardB8ne180100INS_6vectorINS_5tupleIJNS_12basic_stringIcNS_11char_traitsIcEENS_9allocatorIcEEEES8_S8_EEENS6_IS9_EEE16__destroy_vectorEEENS_28__exception_guard_exceptionsIT_EESE_, symObjAddr: 0x101548, symBinAddr: 0x100102BF8, symSize: 0x78 }
  - { offset: 0x5A82D, size: 0x8, addend: 0x0, symName: __ZNSt3__119__allocate_at_leastB8ne180100INS_9allocatorINS_5tupleIJNS_12basic_stringIcNS_11char_traitsIcEENS1_IcEEEES7_S7_EEEEEEENS_19__allocation_resultINS_16allocator_traitsIT_E7pointerEEERSC_m, symObjAddr: 0x1023D8, symBinAddr: 0x100103A88, symSize: 0x38 }
  - { offset: 0x5A870, size: 0x8, addend: 0x0, symName: __ZNSt3__112__to_addressB8ne180100INS_5tupleIJNS_12basic_stringIcNS_11char_traitsIcEENS_9allocatorIcEEEES7_S7_EEEEEPT_SA_, symObjAddr: 0x102EA8, symBinAddr: 0x100104558, symSize: 0x18 }
  - { offset: 0x5A8A5, size: 0x8, addend: 0x0, symName: __ZNSt3__130__uninitialized_allocator_copyB8ne180100INS_9allocatorINS_5tupleIJNS_12basic_stringIcNS_11char_traitsIcEENS1_IcEEEES7_S7_EEEEENS_11__wrap_iterIPKS8_EESD_PS8_EET2_RT_T0_T1_SF_, symObjAddr: 0x103148, symBinAddr: 0x1001047F8, symSize: 0x278 }
  - { offset: 0x5A94B, size: 0x8, addend: 0x0, symName: __ZNSt3__114__unwrap_rangeB8ne180100INS_11__wrap_iterIPKNS_5tupleIJNS_12basic_stringIcNS_11char_traitsIcEENS_9allocatorIcEEEES8_S8_EEEEESC_EEDaT_T0_, symObjAddr: 0x103968, symBinAddr: 0x100105018, symSize: 0x70 }
  - { offset: 0x5A997, size: 0x8, addend: 0x0, symName: __ZNSt3__135__uninitialized_allocator_copy_implB8ne180100INS_9allocatorINS_5tupleIJNS_12basic_stringIcNS_11char_traitsIcEENS1_IcEEEES7_S7_EEEEEPKS8_SB_PS8_EET2_RT_T0_T1_SD_, symObjAddr: 0x1039D8, symBinAddr: 0x100105088, symSize: 0x520 }
  - { offset: 0x5AA43, size: 0x8, addend: 0x0, symName: __ZNSt3__113__unwrap_iterB8ne180100IPNS_5tupleIJNS_12basic_stringIcNS_11char_traitsIcEENS_9allocatorIcEEEES7_S7_EEENS_18__unwrap_iter_implIS9_Lb1EEETnNS_9enable_ifIXsr21is_copy_constructibleIT_EE5valueEiE4typeELi0EEEDTclsrT0_8__unwrapclsr3stdE7declvalISD_EEEESD_, symObjAddr: 0x103EF8, symBinAddr: 0x1001055A8, symSize: 0x30 }
  - { offset: 0x5AA88, size: 0x8, addend: 0x0, symName: __ZNSt3__113__rewrap_iterB8ne180100IPNS_5tupleIJNS_12basic_stringIcNS_11char_traitsIcEENS_9allocatorIcEEEES7_S7_EEES9_NS_18__unwrap_iter_implIS9_Lb1EEEEET_SC_T0_, symObjAddr: 0x103F28, symBinAddr: 0x1001055D8, symSize: 0x50 }
  - { offset: 0x5ABE0, size: 0x8, addend: 0x0, symName: __ZNSt3__113__unwrap_iterB8ne180100INS_11__wrap_iterIPKNS_5tupleIJNS_12basic_stringIcNS_11char_traitsIcEENS_9allocatorIcEEEES8_S8_EEEEENS_18__unwrap_iter_implISC_Lb1EEETnNS_9enable_ifIXsr21is_copy_constructibleIT_EE5valueEiE4typeELi0EEEDTclsrT0_8__unwrapclsr3stdE7declvalISG_EEEESG_, symObjAddr: 0x1041B8, symBinAddr: 0x100105868, symSize: 0x38 }
  - { offset: 0x5AC78, size: 0x8, addend: 0x0, symName: __ZNSt3__112__to_addressB8ne180100INS_11__wrap_iterIPKNS_5tupleIJNS_12basic_stringIcNS_11char_traitsIcEENS_9allocatorIcEEEES8_S8_EEEEEvEEu7__decayIDTclsr19__to_address_helperIT_EE6__callclsr3stdE7declvalIRKSD_EEEEESF_, symObjAddr: 0x1043A8, symBinAddr: 0x100105A58, symSize: 0x60 }
  - { offset: 0x5AD54, size: 0x8, addend: 0x0, symName: __ZNSt3__112__to_addressB8ne180100IKNS_5tupleIJNS_12basic_stringIcNS_11char_traitsIcEENS_9allocatorIcEEEES7_S7_EEEEEPT_SB_, symObjAddr: 0x104598, symBinAddr: 0x100105C48, symSize: 0x18 }
  - { offset: 0x5AD89, size: 0x8, addend: 0x0, symName: __ZNSt3__122__make_exception_guardB8ne180100INS_29_AllocatorDestroyRangeReverseINS_9allocatorINS_5tupleIJNS_12basic_stringIcNS_11char_traitsIcEENS2_IcEEEES8_S8_EEEEEPS9_EEEENS_28__exception_guard_exceptionsIT_EESE_, symObjAddr: 0x104748, symBinAddr: 0x100105DF8, symSize: 0x1F8 }
  - { offset: 0x5ADC2, size: 0x8, addend: 0x0, symName: __ZNSt3__114__construct_atB8ne180100INS_5tupleIJNS_12basic_stringIcNS_11char_traitsIcEENS_9allocatorIcEEEES7_S7_EEEJRKS8_EPS8_EEPT_SD_DpOT0_, symObjAddr: 0x105148, symBinAddr: 0x1001067F8, symSize: 0x70 }
  - { offset: 0x5AE3C, size: 0x8, addend: 0x0, symName: __ZNSt3__112construct_atB8ne180100INS_5tupleIJNS_12basic_stringIcNS_11char_traitsIcEENS_9allocatorIcEEEES7_S7_EEEJRKS8_EPS8_EEPT_SD_DpOT0_, symObjAddr: 0x1051B8, symBinAddr: 0x100106868, symSize: 0xD8 }
  - { offset: 0x5AEAE, size: 0x8, addend: 0x0, symName: __ZNSt3__119__allocator_destroyB8ne180100INS_9allocatorINS_5tupleIJNS_12basic_stringIcNS_11char_traitsIcEENS1_IcEEEES7_S7_EEEEENS_16reverse_iteratorIPS8_EESC_EEvRT_T0_T1_, symObjAddr: 0x105698, symBinAddr: 0x100106D48, symSize: 0x1F8 }
  - { offset: 0x5AF1A, size: 0x8, addend: 0x0, symName: __ZNSt3__1neB8ne180100IPNS_5tupleIJNS_12basic_stringIcNS_11char_traitsIcEENS_9allocatorIcEEEES7_S7_EEES9_EEbRKNS_16reverse_iteratorIT_EERKNSA_IT0_EEQrqXnecldtfp_4baseEcldtfp0_4baseERNS_14convertible_toIbEEE, symObjAddr: 0x1058F8, symBinAddr: 0x100106FA8, symSize: 0xA0 }
  - { offset: 0x5AF66, size: 0x8, addend: 0x0, symName: __ZNSt3__112__to_addressB8ne180100INS_16reverse_iteratorIPNS_5tupleIJNS_12basic_stringIcNS_11char_traitsIcEENS_9allocatorIcEEEES8_S8_EEEEEvEEu7__decayIDTclsr19__to_address_helperIT_EE6__callclsr3stdE7declvalIRKSC_EEEEESE_, symObjAddr: 0x1059C8, symBinAddr: 0x100107078, symSize: 0x58 }
  - { offset: 0x5AF9D, size: 0x8, addend: 0x0, symName: __ZNSt3__112__destroy_atB8ne180100INS_5tupleIJNS_12basic_stringIcNS_11char_traitsIcEENS_9allocatorIcEEEES7_S7_EEETnNS_9enable_ifIXntsr8is_arrayIT_EE5valueEiE4typeELi0EEEvPSA_, symObjAddr: 0x105BD8, symBinAddr: 0x100107288, symSize: 0x60 }
  - { offset: 0x5AFFF, size: 0x8, addend: 0x0, symName: __ZNSt3__14prevB8ne180100IPNS_5tupleIJNS_12basic_stringIcNS_11char_traitsIcEENS_9allocatorIcEEEES7_S7_EEETnNS_9enable_ifIXsr29__has_input_iterator_categoryIT_EE5valueEiE4typeELi0EEESB_SB_NS_15iterator_traitsISB_E15difference_typeE, symObjAddr: 0x105D38, symBinAddr: 0x1001073E8, symSize: 0x190 }
  - { offset: 0x5B04F, size: 0x8, addend: 0x0, symName: __ZNSt3__19__advanceB8ne180100IPNS_5tupleIJNS_12basic_stringIcNS_11char_traitsIcEENS_9allocatorIcEEEES7_S7_EEEEEvRT_NS_15iterator_traitsISA_E15difference_typeENS_26random_access_iterator_tagE, symObjAddr: 0x105F38, symBinAddr: 0x1001075E8, symSize: 0xF8 }
  - { offset: 0x5B0EC, size: 0x8, addend: 0x0, symName: __ZNSt3__1eqB8ne180100IPKNS_5tupleIJNS_12basic_stringIcNS_11char_traitsIcEENS_9allocatorIcEEEES7_S7_EEEEEbRKNS_11__wrap_iterIT_EESF_, symObjAddr: 0x1094A8, symBinAddr: 0x10010AB58, symSize: 0xA0 }
  - { offset: 0x5BB59, size: 0x8, addend: 0x0, symName: __ZNSt3__13getB8ne180100ILm0EJPKcS2_S2_EEERKNS_13tuple_elementIXT_ENS_5tupleIJDpT0_EEEE4typeERKS7_, symObjAddr: 0x10CFA8, symBinAddr: 0x10010E658, symSize: 0xB0 }
  - { offset: 0x5BBA5, size: 0x8, addend: 0x0, symName: __ZNSt3__13getB8ne180100ILm1EJPKcS2_S2_EEERKNS_13tuple_elementIXT_ENS_5tupleIJDpT0_EEEE4typeERKS7_, symObjAddr: 0x10D058, symBinAddr: 0x10010E708, symSize: 0xC0 }
  - { offset: 0x5BBF1, size: 0x8, addend: 0x0, symName: __ZNSt3__13getB8ne180100ILm2EJPKcS2_S2_EEERKNS_13tuple_elementIXT_ENS_5tupleIJDpT0_EEEE4typeERKS7_, symObjAddr: 0x10D118, symBinAddr: 0x10010E7C8, symSize: 0xB8 }
  - { offset: 0x5BC3D, size: 0x8, addend: 0x0, symName: __ZNSt3__130__uninitialized_allocator_copyB8ne180100INS_9allocatorINS_5tupleIJNS_12basic_stringIcNS_11char_traitsIcEENS1_IcEEEES7_S7_EEEEEPKS8_SB_PS8_EET2_RT_T0_T1_SD_, symObjAddr: 0x10DC18, symBinAddr: 0x10010F2C8, symSize: 0x230 }
  - { offset: 0x5BCE3, size: 0x8, addend: 0x0, symName: __ZNSt3__114__unwrap_rangeB8ne180100IPKNS_5tupleIJNS_12basic_stringIcNS_11char_traitsIcEENS_9allocatorIcEEEES7_S7_EEESA_EEDaT_T0_, symObjAddr: 0x10DE48, symBinAddr: 0x10010F4F8, symSize: 0x40 }
  - { offset: 0x5BD65, size: 0x8, addend: 0x0, symName: __ZNSt3__113__unwrap_iterB8ne180100IPKNS_5tupleIJNS_12basic_stringIcNS_11char_traitsIcEENS_9allocatorIcEEEES7_S7_EEENS_18__unwrap_iter_implISA_Lb1EEETnNS_9enable_ifIXsr21is_copy_constructibleIT_EE5valueEiE4typeELi0EEEDTclsrT0_8__unwrapclsr3stdE7declvalISE_EEEESE_, symObjAddr: 0x10E078, symBinAddr: 0x10010F728, symSize: 0x30 }
  - { offset: 0x5BDFD, size: 0x8, addend: 0x0, symName: '__ZNSt3__110make_tupleB8ne180100IJN7testing8internal10ValueArrayIJNS_5tupleIJPKcS6_S6_EEES7_EEEZN12_GLOBAL__N_146gtest_CaesarDec_MainFullDict_EvalGenerateName_ERKNS1_13TestParamInfoINS4_IJNS_12basic_stringIcNS_11char_traitsIcEENS_9allocatorIcEEEESG_SG_EEEEEE3$_0EEENS4_IJDpNS_18__unwrap_ref_decayIT_E4typeEEEEDpOSN_', symObjAddr: 0x10E2C8, symBinAddr: 0x10010F978, symSize: 0xC8 }
  - { offset: 0x5C246, size: 0x8, addend: 0x0, symName: __ZNSt3__13getB8ne180100ILm2EJNS_12basic_stringIcNS_11char_traitsIcEENS_9allocatorIcEEEES6_S6_EEERNS_13tuple_elementIXT_ENS_5tupleIJDpT0_EEEE4typeERSB_, symObjAddr: 0x10EA68, symBinAddr: 0x100110118, symSize: 0xB8 }
  - { offset: 0x5C293, size: 0x8, addend: 0x0, symName: __ZNSt3__1eqB8ne180100ERKNS_19__hash_map_iteratorINS_15__hash_iteratorIPNS_11__hash_nodeINS_17__hash_value_typeINS_12basic_stringIcNS_11char_traitsIcEENS_9allocatorIcEEEEmEEPvEEEEEESH_, symObjAddr: 0x10EE28, symBinAddr: 0x1001104D8, symSize: 0x98 }
  - { offset: 0x5C2D0, size: 0x8, addend: 0x0, symName: __ZNSt3__116__constrain_hashB8ne180100Emm, symObjAddr: 0x110738, symBinAddr: 0x100111DE8, symSize: 0xB8 }
  - { offset: 0x5C30A, size: 0x8, addend: 0x0, symName: __ZNSt3__116__do_string_hashB8ne180100IPKcEEmT_S3_, symObjAddr: 0x111218, symBinAddr: 0x1001128C8, symSize: 0x168 }
  - { offset: 0x5C352, size: 0x8, addend: 0x0, symName: __ZNSt3__110__loadwordB8ne180100ImEET_PKv, symObjAddr: 0x1134F8, symBinAddr: 0x100114BA8, symSize: 0x30 }
  - { offset: 0x5C395, size: 0x8, addend: 0x0, symName: __ZNSt3__14swapB8ne180100ImEENS_9enable_ifIXaasr21is_move_constructibleIT_EE5valuesr18is_move_assignableIS2_EE5valueEvE4typeERS2_S5_, symObjAddr: 0x113A68, symBinAddr: 0x100115118, symSize: 0x170 }
  - { offset: 0x5C3E6, size: 0x8, addend: 0x0, symName: __ZNSt3__110__loadwordB8ne180100IjEET_PKv, symObjAddr: 0x113D18, symBinAddr: 0x1001153C8, symSize: 0x30 }
  - { offset: 0x5C429, size: 0x8, addend: 0x0, symName: __ZNSt3__17launderB8ne180100IKNS_4pairIKNS_12basic_stringIcNS_11char_traitsIcEENS_9allocatorIcEEEEmEEEEPT_SC_, symObjAddr: 0x1149F8, symBinAddr: 0x1001160A8, symSize: 0x30 }
  - { offset: 0x5C460, size: 0x8, addend: 0x0, symName: __ZNSt3__19__launderB8ne180100IKNS_4pairIKNS_12basic_stringIcNS_11char_traitsIcEENS_9allocatorIcEEEEmEEEEPT_SC_, symObjAddr: 0x114A28, symBinAddr: 0x1001160D8, symSize: 0x20 }
  - { offset: 0x5C4CA, size: 0x8, addend: 0x0, symName: __ZNSt3__1eqB8ne180100ERKNS_15__hash_iteratorIPNS_11__hash_nodeINS_17__hash_value_typeINS_12basic_stringIcNS_11char_traitsIcEENS_9allocatorIcEEEEmEEPvEEEESF_, symObjAddr: 0x114B58, symBinAddr: 0x100116208, symSize: 0xE0 }
  - { offset: 0x5C56D, size: 0x8, addend: 0x0, symName: __ZNSt3__17launderB8ne180100INS_4pairIKNS_12basic_stringIcNS_11char_traitsIcEENS_9allocatorIcEEEEmEEEEPT_SB_, symObjAddr: 0x114E38, symBinAddr: 0x1001164E8, symSize: 0x30 }
  - { offset: 0x5C5A4, size: 0x8, addend: 0x0, symName: __ZNSt3__19__launderB8ne180100INS_4pairIKNS_12basic_stringIcNS_11char_traitsIcEENS_9allocatorIcEEEEmEEEEPT_SB_, symObjAddr: 0x114E68, symBinAddr: 0x100116518, symSize: 0x18 }
  - { offset: 0x5C5DB, size: 0x8, addend: 0x0, symName: __ZNSt3__112__to_addressB8ne180100IN7testing8internal26ParameterizedTestSuiteInfoIN12_GLOBAL__N_115CaesarDec_CleanEE17InstantiationInfoEEEPT_S9_, symObjAddr: 0x1194C8, symBinAddr: 0x10011AB78, symSize: 0x20 }
  - { offset: 0x5C611, size: 0x8, addend: 0x0, symName: __ZNSt3__112__destroy_atB8ne180100IN7testing8internal26ParameterizedTestSuiteInfoIN12_GLOBAL__N_115CaesarDec_CleanEE17InstantiationInfoETnNS_9enable_ifIXntsr8is_arrayIT_EE5valueEiE4typeELi0EEEvPS9_, symObjAddr: 0x1194E8, symBinAddr: 0x10011AB98, symSize: 0x58 }
  - { offset: 0x5C649, size: 0x8, addend: 0x0, symName: __ZNSt3__1neB8ne180100IPNS_10shared_ptrIN7testing8internal26ParameterizedTestSuiteInfoIN12_GLOBAL__N_115CaesarDec_CleanEE8TestInfoEEEEEbRKNS_11__wrap_iterIT_EESF_, symObjAddr: 0x11A568, symBinAddr: 0x10011BC18, symSize: 0x98 }
  - { offset: 0x5C68C, size: 0x8, addend: 0x0, symName: __ZNSt3__1neB8ne180100IPN7testing8internal26ParameterizedTestSuiteInfoIN12_GLOBAL__N_115CaesarDec_CleanEE17InstantiationInfoEEEbRKNS_11__wrap_iterIT_EESD_, symObjAddr: 0x11A7D8, symBinAddr: 0x10011BE88, symSize: 0x98 }
  - { offset: 0x5C6CF, size: 0x8, addend: 0x0, symName: __ZNSt3__1plB8ne180100IcNS_11char_traitsIcEENS_9allocatorIcEEEENS_12basic_stringIT_T0_T1_EERKS9_PKS6_, symObjAddr: 0x11A928, symBinAddr: 0x10011BFD8, symSize: 0x498 }
  - { offset: 0x5D4C4, size: 0x8, addend: 0x0, symName: __ZNSt3__1eqB8ne180100IPNS_10shared_ptrIN7testing8internal26ParameterizedTestSuiteInfoIN12_GLOBAL__N_115CaesarDec_CleanEE8TestInfoEEEEEbRKNS_11__wrap_iterIT_EESF_, symObjAddr: 0x11D878, symBinAddr: 0x10011EF28, symSize: 0x98 }
  - { offset: 0x5D507, size: 0x8, addend: 0x0, symName: __ZNSt3__1eqB8ne180100IPN7testing8internal26ParameterizedTestSuiteInfoIN12_GLOBAL__N_115CaesarDec_CleanEE17InstantiationInfoEEEbRKNS_11__wrap_iterIT_EESD_, symObjAddr: 0x11DC18, symBinAddr: 0x10011F2C8, symSize: 0x98 }
  - { offset: 0x5D54A, size: 0x8, addend: 0x0, symName: __ZNSt3__14copyB8ne180100IPKcPcEET0_T_S5_S4_, symObjAddr: 0x11F238, symBinAddr: 0x1001208E8, symSize: 0x1C0 }
  - { offset: 0x5D5A7, size: 0x8, addend: 0x0, symName: __ZNSt3__16__copyB8ne180100INS_17_ClassicAlgPolicyEPKcS3_PcEENS_4pairIT0_T2_EES6_T1_S7_, symObjAddr: 0x11F3F8, symBinAddr: 0x100120AA8, symSize: 0x50 }
  - { offset: 0x5D613, size: 0x8, addend: 0x0, symName: __ZNSt3__123__dispatch_copy_or_moveB8ne180100INS_17_ClassicAlgPolicyENS_11__copy_loopIS1_EENS_14__copy_trivialEPKcS6_PcEENS_4pairIT2_T4_EES9_T3_SA_, symObjAddr: 0x11F448, symBinAddr: 0x100120AF8, symSize: 0x50 }
  - { offset: 0x5D691, size: 0x8, addend: 0x0, symName: __ZNSt3__121__unwrap_and_dispatchB8ne180100INS_10__overloadINS_11__copy_loopINS_17_ClassicAlgPolicyEEENS_14__copy_trivialEEEPKcS8_PcTnNS_9enable_ifIXsr12__can_rewrapIT0_T1_T2_EE5valueEiE4typeELi0EEENS_4pairISB_SD_EESB_SC_SD_, symObjAddr: 0x11F498, symBinAddr: 0x100120B48, symSize: 0x380 }
  - { offset: 0x5D72B, size: 0x8, addend: 0x0, symName: __ZNSt3__114__unwrap_rangeB8ne180100IPKcS2_EEDaT_T0_, symObjAddr: 0x11F818, symBinAddr: 0x100120EC8, symSize: 0x38 }
  - { offset: 0x5D8C3, size: 0x8, addend: 0x0, symName: __ZNSt3__113__unwrap_iterB8ne180100IPcNS_18__unwrap_iter_implIS1_Lb1EEETnNS_9enable_ifIXsr21is_copy_constructibleIT_EE5valueEiE4typeELi0EEEDTclsrT0_8__unwrapclsr3stdE7declvalIS5_EEEES5_, symObjAddr: 0x11F8C8, symBinAddr: 0x100120F78, symSize: 0x30 }
  - { offset: 0x5D908, size: 0x8, addend: 0x0, symName: __ZNSt3__19make_pairB8ne180100IPKcPcEENS_4pairINS_18__unwrap_ref_decayIT_E4typeENS5_IT0_E4typeEEEOS6_OS9_, symObjAddr: 0x11F8F8, symBinAddr: 0x100120FA8, symSize: 0x1E0 }
  - { offset: 0x5D959, size: 0x8, addend: 0x0, symName: __ZNSt3__114__rewrap_rangeB8ne180100IPKcS2_S2_EET0_S3_T1_, symObjAddr: 0x11FAD8, symBinAddr: 0x100121188, symSize: 0x30 }
  - { offset: 0x5D9AE, size: 0x8, addend: 0x0, symName: __ZNSt3__113__rewrap_iterB8ne180100IPcS1_NS_18__unwrap_iter_implIS1_Lb1EEEEET_S4_T0_, symObjAddr: 0x11FB08, symBinAddr: 0x1001211B8, symSize: 0x50 }
  - { offset: 0x5DB20, size: 0x8, addend: 0x0, symName: __ZNSt3__113__unwrap_iterB8ne180100IPKcNS_18__unwrap_iter_implIS2_Lb1EEETnNS_9enable_ifIXsr21is_copy_constructibleIT_EE5valueEiE4typeELi0EEEDTclsrT0_8__unwrapclsr3stdE7declvalIS6_EEEES6_, symObjAddr: 0x11FD48, symBinAddr: 0x1001213F8, symSize: 0x28 }
  - { offset: 0x5DBB8, size: 0x8, addend: 0x0, symName: __ZNSt3__119__copy_trivial_implB8ne180100IKccEENS_4pairIPT_PT0_EES4_S4_S6_, symObjAddr: 0x11FF98, symBinAddr: 0x100121648, symSize: 0x260 }
  - { offset: 0x5DC27, size: 0x8, addend: 0x0, symName: __ZNSt3__119__constexpr_memmoveB8ne180100IcKcTnNS_9enable_ifIXsr23__is_always_bitcastableIT0_T_EE5valueEiE4typeELi0EEEPS4_S7_PS3_NS_15__element_countE, symObjAddr: 0x1201F8, symBinAddr: 0x1001218A8, symSize: 0x60 }
  - { offset: 0x5DC96, size: 0x8, addend: 0x0, symName: __ZNSt3__19make_pairB8ne180100IRPKcPcEENS_4pairINS_18__unwrap_ref_decayIT_E4typeENS6_IT0_E4typeEEEOS7_OSA_, symObjAddr: 0x120258, symBinAddr: 0x100121908, symSize: 0x1D8 }
  - { offset: 0x5DD3A, size: 0x8, addend: 0x0, symName: __ZNSt3__113__rewrap_iterB8ne180100IPKcS2_NS_18__unwrap_iter_implIS2_Lb1EEEEET_S5_T0_, symObjAddr: 0x120878, symBinAddr: 0x100121F28, symSize: 0x50 }
  - { offset: 0x5DD8F, size: 0x8, addend: 0x0, symName: __ZNSt3__16fill_nB8ne180100IPcmcEET_S2_T0_RKT1_, symObjAddr: 0x120A08, symBinAddr: 0x1001220B8, symSize: 0x70 }
  - { offset: 0x5DDF2, size: 0x8, addend: 0x0, symName: __ZNSt3__18__fill_nB8ne180100IPcmcEET_S2_T0_RKT1_, symObjAddr: 0x120A78, symBinAddr: 0x100122128, symSize: 0x150 }
  - { offset: 0x5DE55, size: 0x8, addend: 0x0, symName: __ZNSt3__121__convert_to_integralB8ne180100Em, symObjAddr: 0x120BC8, symBinAddr: 0x100122278, symSize: 0x18 }
  - { offset: 0x5DEB4, size: 0x8, addend: 0x0, symName: __ZNSt3__1ltB8ne180100ENS_15strong_orderingENS_20_CmpUnspecifiedParamE, symObjAddr: 0x123F88, symBinAddr: 0x100125638, symSize: 0x30 }
  - { offset: 0x5DEEB, size: 0x8, addend: 0x0, symName: __ZNSt3__1ssB8ne180100IcNS_11char_traitsIcEENS_9allocatorIcEEEEDaRKNS_12basic_stringIT_T0_T1_EESB_, symObjAddr: 0x123FB8, symBinAddr: 0x100125668, symSize: 0xA8 }
  - { offset: 0x5DF5F, size: 0x8, addend: 0x0, symName: __ZNSt3__1ssB8ne180100IcNS_11char_traitsIcEEEEDaNS_17basic_string_viewIT_T0_EENS_13type_identityIS6_E4typeE, symObjAddr: 0x1240B8, symBinAddr: 0x100125768, symSize: 0x1E8 }
  - { offset: 0x5DFD1, size: 0x8, addend: 0x0, symName: __ZNSt3__114__construct_atB8ne180100INS_12basic_stringIcNS_11char_traitsIcEENS_9allocatorIcEEEEJS6_EPS6_EEPT_S9_DpOT0_, symObjAddr: 0x127A78, symBinAddr: 0x100129128, symSize: 0x70 }
  - { offset: 0x5E024, size: 0x8, addend: 0x0, symName: __ZNSt3__112construct_atB8ne180100INS_12basic_stringIcNS_11char_traitsIcEENS_9allocatorIcEEEEJS6_EPS6_EEPT_S9_DpOT0_, symObjAddr: 0x127AE8, symBinAddr: 0x100129198, symSize: 0xD8 }
  - { offset: 0x5E096, size: 0x8, addend: 0x0, symName: __ZNSt3__127__tree_balance_after_insertB8ne180100IPNS_16__tree_node_baseIPvEEEEvT_S5_, symObjAddr: 0x127E88, symBinAddr: 0x100129538, symSize: 0x14C8 }
  - { offset: 0x5E10A, size: 0x8, addend: 0x0, symName: __ZNSt3__120__tree_is_left_childB8ne180100IPNS_16__tree_node_baseIPvEEEEbT_, symObjAddr: 0x1294D8, symBinAddr: 0x10012AB88, symSize: 0x160 }
  - { offset: 0x5E140, size: 0x8, addend: 0x0, symName: __ZNSt3__118__tree_left_rotateB8ne180100IPNS_16__tree_node_baseIPvEEEEvT_, symObjAddr: 0x129638, symBinAddr: 0x10012ACE8, symSize: 0x8D0 }
  - { offset: 0x5E17F, size: 0x8, addend: 0x0, symName: __ZNSt3__119__tree_right_rotateB8ne180100IPNS_16__tree_node_baseIPvEEEEvT_, symObjAddr: 0x129F08, symBinAddr: 0x10012B5B8, symSize: 0x8B8 }
  - { offset: 0x5E1C1, size: 0x8, addend: 0x0, symName: __ZNSt3__116__is_hash_power2B8ne180100Em, symObjAddr: 0x12EF28, symBinAddr: 0x1001305D8, symSize: 0x50 }
  - { offset: 0x5E1F2, size: 0x8, addend: 0x0, symName: __ZNSt3__16__math4ceilB8ne180100Ef, symObjAddr: 0x12EF78, symBinAddr: 0x100130628, symSize: 0x18 }
  - { offset: 0x5E281, size: 0x8, addend: 0x0, symName: __ZNSt3__114__construct_atB8ne180100INS_11__hash_nodeINS_17__hash_value_typeINS_12basic_stringIcNS_11char_traitsIcEENS_9allocatorIcEEEEmEEPvEEJDnRmEPSB_EEPT_SF_DpOT0_, symObjAddr: 0x12F6F8, symBinAddr: 0x100130DA8, symSize: 0xA8 }
  - { offset: 0x5E30E, size: 0x8, addend: 0x0, symName: __ZNSt3__112construct_atB8ne180100INS_11__hash_nodeINS_17__hash_value_typeINS_12basic_stringIcNS_11char_traitsIcEENS_9allocatorIcEEEEmEEPvEEJDnRmEPSB_EEPT_SF_DpOT0_, symObjAddr: 0x1302A8, symBinAddr: 0x100131958, symSize: 0x108 }
  - { offset: 0x5E393, size: 0x8, addend: 0x0, symName: __ZNSt3__114__construct_atB8ne180100INS_4pairIKNS_12basic_stringIcNS_11char_traitsIcEENS_9allocatorIcEEEEmEEJS7_mEPS9_EEPT_SC_DpOT0_, symObjAddr: 0x1306E8, symBinAddr: 0x100131D98, symSize: 0xB0 }
  - { offset: 0x5E420, size: 0x8, addend: 0x0, symName: __ZNSt3__112construct_atB8ne180100INS_4pairIKNS_12basic_stringIcNS_11char_traitsIcEENS_9allocatorIcEEEEmEEJS7_mEPS9_EEPT_SC_DpOT0_, symObjAddr: 0x130798, symBinAddr: 0x100131E48, symSize: 0x108 }
  - { offset: 0x5E4A5, size: 0x8, addend: 0x0, symName: __ZNSt3__116__next_hash_pow2B8ne180100Em, symObjAddr: 0x1322D8, symBinAddr: 0x100133988, symSize: 0xB8 }
  - { offset: 0x5E4D1, size: 0x8, addend: 0x0, symName: __ZNSt3__112__libcpp_clzB8ne180100Em, symObjAddr: 0x132F88, symBinAddr: 0x100134638, symSize: 0x48 }
  - { offset: 0x5E4FE, size: 0x8, addend: 0x0, symName: __ZNSt3__112__destroy_atB8ne180100INS_11__hash_nodeINS_17__hash_value_typeINS_12basic_stringIcNS_11char_traitsIcEENS_9allocatorIcEEEEmEEPvEETnNS_9enable_ifIXntsr8is_arrayIT_EE5valueEiE4typeELi0EEEvPSD_, symObjAddr: 0x133698, symBinAddr: 0x100134D48, symSize: 0x60 }
  - { offset: 0x5E537, size: 0x8, addend: 0x0, symName: __ZNSt3__112__destroy_atB8ne180100INS_4pairIKNS_12basic_stringIcNS_11char_traitsIcEENS_9allocatorIcEEEEmEETnNS_9enable_ifIXntsr8is_arrayIT_EE5valueEiE4typeELi0EEEvPSB_, symObjAddr: 0x133738, symBinAddr: 0x100134DE8, symSize: 0x58 }
  - { offset: 0x5E56F, size: 0x8, addend: 0x0, symName: __ZNSt3__112__to_addressB8ne180100IPN7testing8internal30ParameterizedTestSuiteInfoBaseEEEPT_S6_, symObjAddr: 0x134868, symBinAddr: 0x100135F18, symSize: 0x18 }
  - { offset: 0x5E5A4, size: 0x8, addend: 0x0, symName: __ZNSt3__114__construct_atB8ne180100IPN7testing8internal30ParameterizedTestSuiteInfoBaseEJS4_EPS4_EEPT_S7_DpOT0_, symObjAddr: 0x1351E8, symBinAddr: 0x100136898, symSize: 0x70 }
  - { offset: 0x5E61E, size: 0x8, addend: 0x0, symName: __ZNSt3__112construct_atB8ne180100IPN7testing8internal30ParameterizedTestSuiteInfoBaseEJS4_EPS4_EEPT_S7_DpOT0_, symObjAddr: 0x135258, symBinAddr: 0x100136908, symSize: 0x128 }
  - { offset: 0x5E690, size: 0x8, addend: 0x0, symName: __ZNSt3__119__allocate_at_leastB8ne180100INS_9allocatorIPN7testing8internal30ParameterizedTestSuiteInfoBaseEEEEENS_19__allocation_resultINS_16allocator_traitsIT_E7pointerEEERS9_m, symObjAddr: 0x136E78, symBinAddr: 0x100138528, symSize: 0x38 }
  - { offset: 0x5E6D3, size: 0x8, addend: 0x0, symName: __ZNSt3__142__uninitialized_allocator_move_if_noexceptB8ne180100INS_9allocatorIPN7testing8internal30ParameterizedTestSuiteInfoBaseEEENS_16reverse_iteratorIPS5_EES9_S5_vEET1_RT_T0_SD_SA_, symObjAddr: 0x1376C8, symBinAddr: 0x100138D78, symSize: 0x258 }
  - { offset: 0x5E756, size: 0x8, addend: 0x0, symName: __ZNSt3__14swapB8ne180100IPPN7testing8internal30ParameterizedTestSuiteInfoBaseEEENS_9enable_ifIXaasr21is_move_constructibleIT_EE5valuesr18is_move_assignableIS7_EE5valueEvE4typeERS7_SA_, symObjAddr: 0x137A08, symBinAddr: 0x1001390B8, symSize: 0x168 }
  - { offset: 0x5E7A7, size: 0x8, addend: 0x0, symName: __ZNSt3__14moveB8ne180100INS_16reverse_iteratorIPPN7testing8internal30ParameterizedTestSuiteInfoBaseEEES7_EET0_T_S9_S8_, symObjAddr: 0x137CC8, symBinAddr: 0x100139378, symSize: 0x290 }
  - { offset: 0x5E804, size: 0x8, addend: 0x0, symName: __ZNSt3__16__moveB8ne180100INS_17_ClassicAlgPolicyENS_16reverse_iteratorIPPN7testing8internal30ParameterizedTestSuiteInfoBaseEEES8_S8_EENS_4pairIT0_T2_EESA_T1_SB_, symObjAddr: 0x137F58, symBinAddr: 0x100139608, symSize: 0x220 }
  - { offset: 0x5E876, size: 0x8, addend: 0x0, symName: __ZNSt3__123__dispatch_copy_or_moveB8ne180100INS_17_ClassicAlgPolicyENS_11__move_loopIS1_EENS_14__move_trivialENS_16reverse_iteratorIPPN7testing8internal30ParameterizedTestSuiteInfoBaseEEESB_SB_EENS_4pairIT2_T4_EESD_T3_SE_, symObjAddr: 0x138178, symBinAddr: 0x100139828, symSize: 0x220 }
  - { offset: 0x5E8FA, size: 0x8, addend: 0x0, symName: __ZNSt3__121__unwrap_and_dispatchB8ne180100INS_10__overloadINS_11__move_loopINS_17_ClassicAlgPolicyEEENS_14__move_trivialEEENS_16reverse_iteratorIPPN7testing8internal30ParameterizedTestSuiteInfoBaseEEESD_SD_TnNS_9enable_ifIXsr12__can_rewrapIT0_T1_T2_EE5valueEiE4typeELi0EEENS_4pairISF_SH_EESF_SG_SH_, symObjAddr: 0x138398, symBinAddr: 0x100139A48, symSize: 0x480 }
  - { offset: 0x5E998, size: 0x8, addend: 0x0, symName: __ZNSt3__114__unwrap_rangeB8ne180100INS_16reverse_iteratorIPPN7testing8internal30ParameterizedTestSuiteInfoBaseEEES7_EEDaT_T0_, symObjAddr: 0x138818, symBinAddr: 0x100139EC8, symSize: 0x68 }
  - { offset: 0x5EB15, size: 0x8, addend: 0x0, symName: __ZNSt3__113__unwrap_iterB8ne180100INS_16reverse_iteratorIPPN7testing8internal30ParameterizedTestSuiteInfoBaseEEENS_18__unwrap_iter_implIS7_Lb0EEETnNS_9enable_ifIXsr21is_copy_constructibleIT_EE5valueEiE4typeELi0EEEDTclsrT0_8__unwrapclsr3stdE7declvalISB_EEEESB_, symObjAddr: 0x138C68, symBinAddr: 0x10013A318, symSize: 0x50 }
  - { offset: 0x5EB5A, size: 0x8, addend: 0x0, symName: __ZNSt3__19make_pairB8ne180100INS_16reverse_iteratorIPPN7testing8internal30ParameterizedTestSuiteInfoBaseEEES7_EENS_4pairINS_18__unwrap_ref_decayIT_E4typeENS9_IT0_E4typeEEEOSA_OSD_, symObjAddr: 0x138CB8, symBinAddr: 0x10013A368, symSize: 0xE0 }
  - { offset: 0x5EBA9, size: 0x8, addend: 0x0, symName: __ZNSt3__114__rewrap_rangeB8ne180100INS_16reverse_iteratorIPPN7testing8internal30ParameterizedTestSuiteInfoBaseEEES7_S7_EET0_S8_T1_, symObjAddr: 0x138D98, symBinAddr: 0x10013A448, symSize: 0x80 }
  - { offset: 0x5EBFE, size: 0x8, addend: 0x0, symName: __ZNSt3__113__rewrap_iterB8ne180100INS_16reverse_iteratorIPPN7testing8internal30ParameterizedTestSuiteInfoBaseEEES7_NS_18__unwrap_iter_implIS7_Lb0EEEEET_SA_T0_, symObjAddr: 0x138E18, symBinAddr: 0x10013A4C8, symSize: 0xA0 }
  - { offset: 0x5ECA3, size: 0x8, addend: 0x0, symName: __ZNSt3__1neB8ne180100IPPN7testing8internal30ParameterizedTestSuiteInfoBaseES5_EEbRKNS_16reverse_iteratorIT_EERKNS6_IT0_EEQrqXnecldtfp_4baseEcldtfp0_4baseERNS_14convertible_toIbEEE, symObjAddr: 0x139218, symBinAddr: 0x10013A8C8, symSize: 0xA0 }
  - { offset: 0x5ED9B, size: 0x8, addend: 0x0, symName: __ZNSt3__112__destroy_atB8ne180100IPN7testing8internal30ParameterizedTestSuiteInfoBaseETnNS_9enable_ifIXntsr8is_arrayIT_EE5valueEiE4typeELi0EEEvPS6_, symObjAddr: 0x139CA8, symBinAddr: 0x10013B358, symSize: 0x18 }
  - { offset: 0x5EDD3, size: 0x8, addend: 0x0, symName: __ZNSt3__114__construct_atB8ne180100IN7testing8internal26ParameterizedTestSuiteInfoIN12_GLOBAL__N_115CaesarDec_CleanEE17InstantiationInfoEJNS_12basic_stringIcNS_11char_traitsIcEENS_9allocatorIcEEEERPFNS2_14ParamGeneratorINS_5tupleIJSD_SD_EEEEEvERPFSD_RKNS1_13TestParamInfoISG_EEERPKcRiEPS7_EEPT_SY_DpOT0_, symObjAddr: 0x13B7A8, symBinAddr: 0x10013CE58, symSize: 0x160 }
  - { offset: 0x5EE99, size: 0x8, addend: 0x0, symName: __ZNSt3__112construct_atB8ne180100IN7testing8internal26ParameterizedTestSuiteInfoIN12_GLOBAL__N_115CaesarDec_CleanEE17InstantiationInfoEJNS_12basic_stringIcNS_11char_traitsIcEENS_9allocatorIcEEEERPFNS2_14ParamGeneratorINS_5tupleIJSD_SD_EEEEEvERPFSD_RKNS1_13TestParamInfoISG_EEERPKcRiEPS7_EEPT_SY_DpOT0_, symObjAddr: 0x13B908, symBinAddr: 0x10013CFB8, symSize: 0x4D8 }
  - { offset: 0x5EF5E, size: 0x8, addend: 0x0, symName: __ZNSt3__119__allocate_at_leastB8ne180100INS_9allocatorIN7testing8internal26ParameterizedTestSuiteInfoIN12_GLOBAL__N_115CaesarDec_CleanEE17InstantiationInfoEEEEENS_19__allocation_resultINS_16allocator_traitsIT_E7pointerEEERSC_m, symObjAddr: 0x13DA18, symBinAddr: 0x10013F0C8, symSize: 0x38 }
  - { offset: 0x5EFA1, size: 0x8, addend: 0x0, symName: __ZNSt3__142__uninitialized_allocator_move_if_noexceptB8ne180100INS_9allocatorIN7testing8internal26ParameterizedTestSuiteInfoIN12_GLOBAL__N_115CaesarDec_CleanEE17InstantiationInfoEEENS_16reverse_iteratorIPS8_EESC_SC_EET2_RT_T0_T1_SD_, symObjAddr: 0x13E098, symBinAddr: 0x10013F748, symSize: 0x578 }
  - { offset: 0x5F055, size: 0x8, addend: 0x0, symName: __ZNSt3__14swapB8ne180100IPN7testing8internal26ParameterizedTestSuiteInfoIN12_GLOBAL__N_115CaesarDec_CleanEE17InstantiationInfoEEENS_9enable_ifIXaasr21is_move_constructibleIT_EE5valuesr18is_move_assignableISA_EE5valueEvE4typeERSA_SD_, symObjAddr: 0x13E6F8, symBinAddr: 0x10013FDA8, symSize: 0x168 }
  - { offset: 0x5F0A6, size: 0x8, addend: 0x0, symName: __ZNSt3__122__make_exception_guardB8ne180100INS_29_AllocatorDestroyRangeReverseINS_9allocatorIN7testing8internal26ParameterizedTestSuiteInfoIN12_GLOBAL__N_115CaesarDec_CleanEE17InstantiationInfoEEENS_16reverse_iteratorIPS9_EEEEEENS_28__exception_guard_exceptionsIT_EESG_, symObjAddr: 0x13E9B8, symBinAddr: 0x100140068, symSize: 0x1F8 }
  - { offset: 0x5F0DF, size: 0x8, addend: 0x0, symName: __ZNSt3__1neB8ne180100IPN7testing8internal26ParameterizedTestSuiteInfoIN12_GLOBAL__N_115CaesarDec_CleanEE17InstantiationInfoES8_EEbRKNS_16reverse_iteratorIT_EERKNS9_IT0_EEQrqXnecldtfp_4baseEcldtfp0_4baseERNS_14convertible_toIbEEE, symObjAddr: 0x13EC28, symBinAddr: 0x1001402D8, symSize: 0xA0 }
  - { offset: 0x5F12B, size: 0x8, addend: 0x0, symName: __ZNSt3__112__to_addressB8ne180100INS_16reverse_iteratorIPN7testing8internal26ParameterizedTestSuiteInfoIN12_GLOBAL__N_115CaesarDec_CleanEE17InstantiationInfoEEEvEEu7__decayIDTclsr19__to_address_helperIT_EE6__callclsr3stdE7declvalIRKSB_EEEEESD_, symObjAddr: 0x13ED38, symBinAddr: 0x1001403E8, symSize: 0x58 }
  - { offset: 0x5F161, size: 0x8, addend: 0x0, symName: __ZNSt3__114__construct_atB8ne180100IN7testing8internal26ParameterizedTestSuiteInfoIN12_GLOBAL__N_115CaesarDec_CleanEE17InstantiationInfoEJS7_EPS7_EEPT_SA_DpOT0_, symObjAddr: 0x13F6F8, symBinAddr: 0x100140DA8, symSize: 0x70 }
  - { offset: 0x5F1B4, size: 0x8, addend: 0x0, symName: __ZNSt3__112construct_atB8ne180100IN7testing8internal26ParameterizedTestSuiteInfoIN12_GLOBAL__N_115CaesarDec_CleanEE17InstantiationInfoEJS7_EPS7_EEPT_SA_DpOT0_, symObjAddr: 0x13F768, symBinAddr: 0x100140E18, symSize: 0xD8 }
  - { offset: 0x5F251, size: 0x8, addend: 0x0, symName: __ZNSt3__14prevB8ne180100IPN7testing8internal26ParameterizedTestSuiteInfoIN12_GLOBAL__N_115CaesarDec_CleanEE17InstantiationInfoETnNS_9enable_ifIXsr29__has_input_iterator_categoryIT_EE5valueEiE4typeELi0EEESA_SA_NS_15iterator_traitsISA_E15difference_typeE, symObjAddr: 0x13FA88, symBinAddr: 0x100141138, symSize: 0x190 }
  - { offset: 0x5F2A1, size: 0x8, addend: 0x0, symName: __ZNSt3__19__advanceB8ne180100IPN7testing8internal26ParameterizedTestSuiteInfoIN12_GLOBAL__N_115CaesarDec_CleanEE17InstantiationInfoEEEvRT_NS_15iterator_traitsIS9_E15difference_typeENS_26random_access_iterator_tagE, symObjAddr: 0x13FC88, symBinAddr: 0x100141338, symSize: 0xF8 }
  - { offset: 0x5F2EB, size: 0x8, addend: 0x0, symName: __ZNSt3__119__allocator_destroyB8ne180100INS_9allocatorIN7testing8internal26ParameterizedTestSuiteInfoIN12_GLOBAL__N_115CaesarDec_CleanEE17InstantiationInfoEEENS_16reverse_iteratorINSA_IPS8_EEEESD_EEvRT_T0_T1_, symObjAddr: 0x1401C8, symBinAddr: 0x100141878, symSize: 0x2F8 }
  - { offset: 0x5F357, size: 0x8, addend: 0x0, symName: __ZNSt3__1neB8ne180100INS_16reverse_iteratorIPN7testing8internal26ParameterizedTestSuiteInfoIN12_GLOBAL__N_115CaesarDec_CleanEE17InstantiationInfoEEESA_EEbRKNS1_IT_EERKNS1_IT0_EEQrqXnecldtfp_4baseEcldtfp0_4baseERNS_14convertible_toIbEEE, symObjAddr: 0x140528, symBinAddr: 0x100141BD8, symSize: 0x220 }
  - { offset: 0x5F3A5, size: 0x8, addend: 0x0, symName: __ZNSt3__112__to_addressB8ne180100INS_16reverse_iteratorINS1_IPN7testing8internal26ParameterizedTestSuiteInfoIN12_GLOBAL__N_115CaesarDec_CleanEE17InstantiationInfoEEEEEvEEu7__decayIDTclsr19__to_address_helperIT_EE6__callclsr3stdE7declvalIRKSC_EEEEESE_, symObjAddr: 0x140748, symBinAddr: 0x100141DF8, symSize: 0x58 }
  - { offset: 0x5F406, size: 0x8, addend: 0x0, symName: __ZNSt3__14prevB8ne180100INS_16reverse_iteratorIPN7testing8internal26ParameterizedTestSuiteInfoIN12_GLOBAL__N_115CaesarDec_CleanEE17InstantiationInfoEEETnNS_9enable_ifIXsr29__has_input_iterator_categoryIT_EE5valueEiE4typeELi0EEESC_SC_NS_15iterator_traitsISC_E15difference_typeE, symObjAddr: 0x140B08, symBinAddr: 0x1001421B8, symSize: 0x1E0 }
  - { offset: 0x5F456, size: 0x8, addend: 0x0, symName: __ZNSt3__19__advanceB8ne180100INS_16reverse_iteratorIPN7testing8internal26ParameterizedTestSuiteInfoIN12_GLOBAL__N_115CaesarDec_CleanEE17InstantiationInfoEEEEEvRT_NS_15iterator_traitsISB_E15difference_typeENS_26random_access_iterator_tagE, symObjAddr: 0x140D58, symBinAddr: 0x100142408, symSize: 0x68 }
  - { offset: 0x5F4A0, size: 0x8, addend: 0x0, symName: __ZNSt3__112__to_addressB8ne180100IN7testing8internal26ParameterizedTestSuiteInfoIN12_GLOBAL__N_121CaesarDec_SplitSpacesEE17InstantiationInfoEEEPT_S9_, symObjAddr: 0x146208, symBinAddr: 0x1001478B8, symSize: 0x20 }
  - { offset: 0x5F4D6, size: 0x8, addend: 0x0, symName: __ZNSt3__112__destroy_atB8ne180100IN7testing8internal26ParameterizedTestSuiteInfoIN12_GLOBAL__N_121CaesarDec_SplitSpacesEE17InstantiationInfoETnNS_9enable_ifIXntsr8is_arrayIT_EE5valueEiE4typeELi0EEEvPS9_, symObjAddr: 0x146228, symBinAddr: 0x1001478D8, symSize: 0x58 }
  - { offset: 0x5F50E, size: 0x8, addend: 0x0, symName: __ZNSt3__1neB8ne180100IPNS_10shared_ptrIN7testing8internal26ParameterizedTestSuiteInfoIN12_GLOBAL__N_121CaesarDec_SplitSpacesEE8TestInfoEEEEEbRKNS_11__wrap_iterIT_EESF_, symObjAddr: 0x1472A8, symBinAddr: 0x100148958, symSize: 0x98 }
  - { offset: 0x5F551, size: 0x8, addend: 0x0, symName: __ZNSt3__1neB8ne180100IPN7testing8internal26ParameterizedTestSuiteInfoIN12_GLOBAL__N_121CaesarDec_SplitSpacesEE17InstantiationInfoEEEbRKNS_11__wrap_iterIT_EESD_, symObjAddr: 0x147518, symBinAddr: 0x100148BC8, symSize: 0x98 }
  - { offset: 0x5F594, size: 0x8, addend: 0x0, symName: __ZNSt3__1eqB8ne180100IPNS_10shared_ptrIN7testing8internal26ParameterizedTestSuiteInfoIN12_GLOBAL__N_121CaesarDec_SplitSpacesEE8TestInfoEEEEEbRKNS_11__wrap_iterIT_EESF_, symObjAddr: 0x149818, symBinAddr: 0x10014AEC8, symSize: 0x98 }
  - { offset: 0x5F5D7, size: 0x8, addend: 0x0, symName: __ZNSt3__1eqB8ne180100IPN7testing8internal26ParameterizedTestSuiteInfoIN12_GLOBAL__N_121CaesarDec_SplitSpacesEE17InstantiationInfoEEEbRKNS_11__wrap_iterIT_EESD_, symObjAddr: 0x149BB8, symBinAddr: 0x10014B268, symSize: 0x98 }
  - { offset: 0x5F61A, size: 0x8, addend: 0x0, symName: __ZNSt3__114__construct_atB8ne180100IN7testing8internal26ParameterizedTestSuiteInfoIN12_GLOBAL__N_121CaesarDec_SplitSpacesEE17InstantiationInfoEJNS_12basic_stringIcNS_11char_traitsIcEENS_9allocatorIcEEEERPFNS2_14ParamGeneratorINS_5tupleIJSD_NS_6vectorISD_NSB_ISD_EEEEEEEEEvERPFSD_RKNS1_13TestParamInfoISJ_EEERPKcRiEPS7_EEPT_S11_DpOT0_, symObjAddr: 0x14D2E8, symBinAddr: 0x10014E998, symSize: 0x160 }
  - { offset: 0x5F6E0, size: 0x8, addend: 0x0, symName: __ZNSt3__112construct_atB8ne180100IN7testing8internal26ParameterizedTestSuiteInfoIN12_GLOBAL__N_121CaesarDec_SplitSpacesEE17InstantiationInfoEJNS_12basic_stringIcNS_11char_traitsIcEENS_9allocatorIcEEEERPFNS2_14ParamGeneratorINS_5tupleIJSD_NS_6vectorISD_NSB_ISD_EEEEEEEEEvERPFSD_RKNS1_13TestParamInfoISJ_EEERPKcRiEPS7_EEPT_S11_DpOT0_, symObjAddr: 0x14D448, symBinAddr: 0x10014EAF8, symSize: 0x4D8 }
  - { offset: 0x5F7A5, size: 0x8, addend: 0x0, symName: __ZNSt3__119__allocate_at_leastB8ne180100INS_9allocatorIN7testing8internal26ParameterizedTestSuiteInfoIN12_GLOBAL__N_121CaesarDec_SplitSpacesEE17InstantiationInfoEEEEENS_19__allocation_resultINS_16allocator_traitsIT_E7pointerEEERSC_m, symObjAddr: 0x14F558, symBinAddr: 0x100150C08, symSize: 0x38 }
  - { offset: 0x5F7E8, size: 0x8, addend: 0x0, symName: __ZNSt3__142__uninitialized_allocator_move_if_noexceptB8ne180100INS_9allocatorIN7testing8internal26ParameterizedTestSuiteInfoIN12_GLOBAL__N_121CaesarDec_SplitSpacesEE17InstantiationInfoEEENS_16reverse_iteratorIPS8_EESC_SC_EET2_RT_T0_T1_SD_, symObjAddr: 0x14FBD8, symBinAddr: 0x100151288, symSize: 0x578 }
  - { offset: 0x5F89C, size: 0x8, addend: 0x0, symName: __ZNSt3__14swapB8ne180100IPN7testing8internal26ParameterizedTestSuiteInfoIN12_GLOBAL__N_121CaesarDec_SplitSpacesEE17InstantiationInfoEEENS_9enable_ifIXaasr21is_move_constructibleIT_EE5valuesr18is_move_assignableISA_EE5valueEvE4typeERSA_SD_, symObjAddr: 0x150238, symBinAddr: 0x1001518E8, symSize: 0x168 }
  - { offset: 0x5F8ED, size: 0x8, addend: 0x0, symName: __ZNSt3__122__make_exception_guardB8ne180100INS_29_AllocatorDestroyRangeReverseINS_9allocatorIN7testing8internal26ParameterizedTestSuiteInfoIN12_GLOBAL__N_121CaesarDec_SplitSpacesEE17InstantiationInfoEEENS_16reverse_iteratorIPS9_EEEEEENS_28__exception_guard_exceptionsIT_EESG_, symObjAddr: 0x1504F8, symBinAddr: 0x100151BA8, symSize: 0x1F8 }
  - { offset: 0x5F926, size: 0x8, addend: 0x0, symName: __ZNSt3__1neB8ne180100IPN7testing8internal26ParameterizedTestSuiteInfoIN12_GLOBAL__N_121CaesarDec_SplitSpacesEE17InstantiationInfoES8_EEbRKNS_16reverse_iteratorIT_EERKNS9_IT0_EEQrqXnecldtfp_4baseEcldtfp0_4baseERNS_14convertible_toIbEEE, symObjAddr: 0x150768, symBinAddr: 0x100151E18, symSize: 0xA0 }
  - { offset: 0x5F972, size: 0x8, addend: 0x0, symName: __ZNSt3__112__to_addressB8ne180100INS_16reverse_iteratorIPN7testing8internal26ParameterizedTestSuiteInfoIN12_GLOBAL__N_121CaesarDec_SplitSpacesEE17InstantiationInfoEEEvEEu7__decayIDTclsr19__to_address_helperIT_EE6__callclsr3stdE7declvalIRKSB_EEEEESD_, symObjAddr: 0x150878, symBinAddr: 0x100151F28, symSize: 0x58 }
  - { offset: 0x5F9A8, size: 0x8, addend: 0x0, symName: __ZNSt3__114__construct_atB8ne180100IN7testing8internal26ParameterizedTestSuiteInfoIN12_GLOBAL__N_121CaesarDec_SplitSpacesEE17InstantiationInfoEJS7_EPS7_EEPT_SA_DpOT0_, symObjAddr: 0x151238, symBinAddr: 0x1001528E8, symSize: 0x70 }
  - { offset: 0x5F9FB, size: 0x8, addend: 0x0, symName: __ZNSt3__112construct_atB8ne180100IN7testing8internal26ParameterizedTestSuiteInfoIN12_GLOBAL__N_121CaesarDec_SplitSpacesEE17InstantiationInfoEJS7_EPS7_EEPT_SA_DpOT0_, symObjAddr: 0x1512A8, symBinAddr: 0x100152958, symSize: 0xD8 }
  - { offset: 0x5FA98, size: 0x8, addend: 0x0, symName: __ZNSt3__14prevB8ne180100IPN7testing8internal26ParameterizedTestSuiteInfoIN12_GLOBAL__N_121CaesarDec_SplitSpacesEE17InstantiationInfoETnNS_9enable_ifIXsr29__has_input_iterator_categoryIT_EE5valueEiE4typeELi0EEESA_SA_NS_15iterator_traitsISA_E15difference_typeE, symObjAddr: 0x1515C8, symBinAddr: 0x100152C78, symSize: 0x190 }
  - { offset: 0x5FAE8, size: 0x8, addend: 0x0, symName: __ZNSt3__19__advanceB8ne180100IPN7testing8internal26ParameterizedTestSuiteInfoIN12_GLOBAL__N_121CaesarDec_SplitSpacesEE17InstantiationInfoEEEvRT_NS_15iterator_traitsIS9_E15difference_typeENS_26random_access_iterator_tagE, symObjAddr: 0x1517C8, symBinAddr: 0x100152E78, symSize: 0xF8 }
  - { offset: 0x5FB32, size: 0x8, addend: 0x0, symName: __ZNSt3__119__allocator_destroyB8ne180100INS_9allocatorIN7testing8internal26ParameterizedTestSuiteInfoIN12_GLOBAL__N_121CaesarDec_SplitSpacesEE17InstantiationInfoEEENS_16reverse_iteratorINSA_IPS8_EEEESD_EEvRT_T0_T1_, symObjAddr: 0x151D08, symBinAddr: 0x1001533B8, symSize: 0x2F8 }
  - { offset: 0x5FB9E, size: 0x8, addend: 0x0, symName: __ZNSt3__1neB8ne180100INS_16reverse_iteratorIPN7testing8internal26ParameterizedTestSuiteInfoIN12_GLOBAL__N_121CaesarDec_SplitSpacesEE17InstantiationInfoEEESA_EEbRKNS1_IT_EERKNS1_IT0_EEQrqXnecldtfp_4baseEcldtfp0_4baseERNS_14convertible_toIbEEE, symObjAddr: 0x152068, symBinAddr: 0x100153718, symSize: 0x220 }
  - { offset: 0x5FBEC, size: 0x8, addend: 0x0, symName: __ZNSt3__112__to_addressB8ne180100INS_16reverse_iteratorINS1_IPN7testing8internal26ParameterizedTestSuiteInfoIN12_GLOBAL__N_121CaesarDec_SplitSpacesEE17InstantiationInfoEEEEEvEEu7__decayIDTclsr19__to_address_helperIT_EE6__callclsr3stdE7declvalIRKSC_EEEEESE_, symObjAddr: 0x152288, symBinAddr: 0x100153938, symSize: 0x58 }
  - { offset: 0x5FC4D, size: 0x8, addend: 0x0, symName: __ZNSt3__14prevB8ne180100INS_16reverse_iteratorIPN7testing8internal26ParameterizedTestSuiteInfoIN12_GLOBAL__N_121CaesarDec_SplitSpacesEE17InstantiationInfoEEETnNS_9enable_ifIXsr29__has_input_iterator_categoryIT_EE5valueEiE4typeELi0EEESC_SC_NS_15iterator_traitsISC_E15difference_typeE, symObjAddr: 0x152648, symBinAddr: 0x100153CF8, symSize: 0x1E0 }
  - { offset: 0x5FC9D, size: 0x8, addend: 0x0, symName: __ZNSt3__19__advanceB8ne180100INS_16reverse_iteratorIPN7testing8internal26ParameterizedTestSuiteInfoIN12_GLOBAL__N_121CaesarDec_SplitSpacesEE17InstantiationInfoEEEEEvRT_NS_15iterator_traitsISB_E15difference_typeENS_26random_access_iterator_tagE, symObjAddr: 0x152898, symBinAddr: 0x100153F48, symSize: 0x68 }
  - { offset: 0x5FCE7, size: 0x8, addend: 0x0, symName: __ZNSt3__112__to_addressB8ne180100IN7testing8internal26ParameterizedTestSuiteInfoIN12_GLOBAL__N_124CaesarDec_JoinWithSpacesEE17InstantiationInfoEEEPT_S9_, symObjAddr: 0x157D48, symBinAddr: 0x1001593F8, symSize: 0x20 }
  - { offset: 0x5FD1D, size: 0x8, addend: 0x0, symName: __ZNSt3__112__destroy_atB8ne180100IN7testing8internal26ParameterizedTestSuiteInfoIN12_GLOBAL__N_124CaesarDec_JoinWithSpacesEE17InstantiationInfoETnNS_9enable_ifIXntsr8is_arrayIT_EE5valueEiE4typeELi0EEEvPS9_, symObjAddr: 0x157D68, symBinAddr: 0x100159418, symSize: 0x58 }
  - { offset: 0x5FD55, size: 0x8, addend: 0x0, symName: __ZNSt3__1neB8ne180100IPNS_10shared_ptrIN7testing8internal26ParameterizedTestSuiteInfoIN12_GLOBAL__N_124CaesarDec_JoinWithSpacesEE8TestInfoEEEEEbRKNS_11__wrap_iterIT_EESF_, symObjAddr: 0x158DE8, symBinAddr: 0x10015A498, symSize: 0x98 }
  - { offset: 0x5FD98, size: 0x8, addend: 0x0, symName: __ZNSt3__1neB8ne180100IPN7testing8internal26ParameterizedTestSuiteInfoIN12_GLOBAL__N_124CaesarDec_JoinWithSpacesEE17InstantiationInfoEEEbRKNS_11__wrap_iterIT_EESD_, symObjAddr: 0x159058, symBinAddr: 0x10015A708, symSize: 0x98 }
  - { offset: 0x5FDDB, size: 0x8, addend: 0x0, symName: __ZNSt3__1eqB8ne180100IPNS_10shared_ptrIN7testing8internal26ParameterizedTestSuiteInfoIN12_GLOBAL__N_124CaesarDec_JoinWithSpacesEE8TestInfoEEEEEbRKNS_11__wrap_iterIT_EESF_, symObjAddr: 0x15B358, symBinAddr: 0x10015CA08, symSize: 0x98 }
  - { offset: 0x5FE1E, size: 0x8, addend: 0x0, symName: __ZNSt3__1eqB8ne180100IPN7testing8internal26ParameterizedTestSuiteInfoIN12_GLOBAL__N_124CaesarDec_JoinWithSpacesEE17InstantiationInfoEEEbRKNS_11__wrap_iterIT_EESD_, symObjAddr: 0x15B6F8, symBinAddr: 0x10015CDA8, symSize: 0x98 }
  - { offset: 0x5FE61, size: 0x8, addend: 0x0, symName: __ZNSt3__114__construct_atB8ne180100IN7testing8internal26ParameterizedTestSuiteInfoIN12_GLOBAL__N_124CaesarDec_JoinWithSpacesEE17InstantiationInfoEJNS_12basic_stringIcNS_11char_traitsIcEENS_9allocatorIcEEEERPFNS2_14ParamGeneratorINS_5tupleIJNS_6vectorISD_NSB_ISD_EEEESD_EEEEEvERPFSD_RKNS1_13TestParamInfoISJ_EEERPKcRiEPS7_EEPT_S11_DpOT0_, symObjAddr: 0x15EE28, symBinAddr: 0x1001604D8, symSize: 0x160 }
  - { offset: 0x5FF27, size: 0x8, addend: 0x0, symName: __ZNSt3__112construct_atB8ne180100IN7testing8internal26ParameterizedTestSuiteInfoIN12_GLOBAL__N_124CaesarDec_JoinWithSpacesEE17InstantiationInfoEJNS_12basic_stringIcNS_11char_traitsIcEENS_9allocatorIcEEEERPFNS2_14ParamGeneratorINS_5tupleIJNS_6vectorISD_NSB_ISD_EEEESD_EEEEEvERPFSD_RKNS1_13TestParamInfoISJ_EEERPKcRiEPS7_EEPT_S11_DpOT0_, symObjAddr: 0x15EF88, symBinAddr: 0x100160638, symSize: 0x4D8 }
  - { offset: 0x5FFEC, size: 0x8, addend: 0x0, symName: __ZNSt3__119__allocate_at_leastB8ne180100INS_9allocatorIN7testing8internal26ParameterizedTestSuiteInfoIN12_GLOBAL__N_124CaesarDec_JoinWithSpacesEE17InstantiationInfoEEEEENS_19__allocation_resultINS_16allocator_traitsIT_E7pointerEEERSC_m, symObjAddr: 0x161098, symBinAddr: 0x100162748, symSize: 0x38 }
  - { offset: 0x6002F, size: 0x8, addend: 0x0, symName: __ZNSt3__142__uninitialized_allocator_move_if_noexceptB8ne180100INS_9allocatorIN7testing8internal26ParameterizedTestSuiteInfoIN12_GLOBAL__N_124CaesarDec_JoinWithSpacesEE17InstantiationInfoEEENS_16reverse_iteratorIPS8_EESC_SC_EET2_RT_T0_T1_SD_, symObjAddr: 0x161718, symBinAddr: 0x100162DC8, symSize: 0x578 }
  - { offset: 0x600E3, size: 0x8, addend: 0x0, symName: __ZNSt3__14swapB8ne180100IPN7testing8internal26ParameterizedTestSuiteInfoIN12_GLOBAL__N_124CaesarDec_JoinWithSpacesEE17InstantiationInfoEEENS_9enable_ifIXaasr21is_move_constructibleIT_EE5valuesr18is_move_assignableISA_EE5valueEvE4typeERSA_SD_, symObjAddr: 0x161D78, symBinAddr: 0x100163428, symSize: 0x168 }
  - { offset: 0x60134, size: 0x8, addend: 0x0, symName: __ZNSt3__122__make_exception_guardB8ne180100INS_29_AllocatorDestroyRangeReverseINS_9allocatorIN7testing8internal26ParameterizedTestSuiteInfoIN12_GLOBAL__N_124CaesarDec_JoinWithSpacesEE17InstantiationInfoEEENS_16reverse_iteratorIPS9_EEEEEENS_28__exception_guard_exceptionsIT_EESG_, symObjAddr: 0x162038, symBinAddr: 0x1001636E8, symSize: 0x1F8 }
  - { offset: 0x6016D, size: 0x8, addend: 0x0, symName: __ZNSt3__1neB8ne180100IPN7testing8internal26ParameterizedTestSuiteInfoIN12_GLOBAL__N_124CaesarDec_JoinWithSpacesEE17InstantiationInfoES8_EEbRKNS_16reverse_iteratorIT_EERKNS9_IT0_EEQrqXnecldtfp_4baseEcldtfp0_4baseERNS_14convertible_toIbEEE, symObjAddr: 0x1622A8, symBinAddr: 0x100163958, symSize: 0xA0 }
  - { offset: 0x601B9, size: 0x8, addend: 0x0, symName: __ZNSt3__112__to_addressB8ne180100INS_16reverse_iteratorIPN7testing8internal26ParameterizedTestSuiteInfoIN12_GLOBAL__N_124CaesarDec_JoinWithSpacesEE17InstantiationInfoEEEvEEu7__decayIDTclsr19__to_address_helperIT_EE6__callclsr3stdE7declvalIRKSB_EEEEESD_, symObjAddr: 0x1623B8, symBinAddr: 0x100163A68, symSize: 0x58 }
  - { offset: 0x601EF, size: 0x8, addend: 0x0, symName: __ZNSt3__114__construct_atB8ne180100IN7testing8internal26ParameterizedTestSuiteInfoIN12_GLOBAL__N_124CaesarDec_JoinWithSpacesEE17InstantiationInfoEJS7_EPS7_EEPT_SA_DpOT0_, symObjAddr: 0x162D78, symBinAddr: 0x100164428, symSize: 0x70 }
  - { offset: 0x60242, size: 0x8, addend: 0x0, symName: __ZNSt3__112construct_atB8ne180100IN7testing8internal26ParameterizedTestSuiteInfoIN12_GLOBAL__N_124CaesarDec_JoinWithSpacesEE17InstantiationInfoEJS7_EPS7_EEPT_SA_DpOT0_, symObjAddr: 0x162DE8, symBinAddr: 0x100164498, symSize: 0xD8 }
  - { offset: 0x602DF, size: 0x8, addend: 0x0, symName: __ZNSt3__14prevB8ne180100IPN7testing8internal26ParameterizedTestSuiteInfoIN12_GLOBAL__N_124CaesarDec_JoinWithSpacesEE17InstantiationInfoETnNS_9enable_ifIXsr29__has_input_iterator_categoryIT_EE5valueEiE4typeELi0EEESA_SA_NS_15iterator_traitsISA_E15difference_typeE, symObjAddr: 0x163108, symBinAddr: 0x1001647B8, symSize: 0x190 }
  - { offset: 0x6032F, size: 0x8, addend: 0x0, symName: __ZNSt3__19__advanceB8ne180100IPN7testing8internal26ParameterizedTestSuiteInfoIN12_GLOBAL__N_124CaesarDec_JoinWithSpacesEE17InstantiationInfoEEEvRT_NS_15iterator_traitsIS9_E15difference_typeENS_26random_access_iterator_tagE, symObjAddr: 0x163308, symBinAddr: 0x1001649B8, symSize: 0xF8 }
  - { offset: 0x60379, size: 0x8, addend: 0x0, symName: __ZNSt3__119__allocator_destroyB8ne180100INS_9allocatorIN7testing8internal26ParameterizedTestSuiteInfoIN12_GLOBAL__N_124CaesarDec_JoinWithSpacesEE17InstantiationInfoEEENS_16reverse_iteratorINSA_IPS8_EEEESD_EEvRT_T0_T1_, symObjAddr: 0x163848, symBinAddr: 0x100164EF8, symSize: 0x2F8 }
  - { offset: 0x603E5, size: 0x8, addend: 0x0, symName: __ZNSt3__1neB8ne180100INS_16reverse_iteratorIPN7testing8internal26ParameterizedTestSuiteInfoIN12_GLOBAL__N_124CaesarDec_JoinWithSpacesEE17InstantiationInfoEEESA_EEbRKNS1_IT_EERKNS1_IT0_EEQrqXnecldtfp_4baseEcldtfp0_4baseERNS_14convertible_toIbEEE, symObjAddr: 0x163BA8, symBinAddr: 0x100165258, symSize: 0x220 }
  - { offset: 0x60433, size: 0x8, addend: 0x0, symName: __ZNSt3__112__to_addressB8ne180100INS_16reverse_iteratorINS1_IPN7testing8internal26ParameterizedTestSuiteInfoIN12_GLOBAL__N_124CaesarDec_JoinWithSpacesEE17InstantiationInfoEEEEEvEEu7__decayIDTclsr19__to_address_helperIT_EE6__callclsr3stdE7declvalIRKSC_EEEEESE_, symObjAddr: 0x163DC8, symBinAddr: 0x100165478, symSize: 0x58 }
  - { offset: 0x60494, size: 0x8, addend: 0x0, symName: __ZNSt3__14prevB8ne180100INS_16reverse_iteratorIPN7testing8internal26ParameterizedTestSuiteInfoIN12_GLOBAL__N_124CaesarDec_JoinWithSpacesEE17InstantiationInfoEEETnNS_9enable_ifIXsr29__has_input_iterator_categoryIT_EE5valueEiE4typeELi0EEESC_SC_NS_15iterator_traitsISC_E15difference_typeE, symObjAddr: 0x164188, symBinAddr: 0x100165838, symSize: 0x1E0 }
  - { offset: 0x604E4, size: 0x8, addend: 0x0, symName: __ZNSt3__19__advanceB8ne180100INS_16reverse_iteratorIPN7testing8internal26ParameterizedTestSuiteInfoIN12_GLOBAL__N_124CaesarDec_JoinWithSpacesEE17InstantiationInfoEEEEEvRT_NS_15iterator_traitsISB_E15difference_typeENS_26random_access_iterator_tagE, symObjAddr: 0x1643D8, symBinAddr: 0x100165A88, symSize: 0x68 }
  - { offset: 0x6052E, size: 0x8, addend: 0x0, symName: __ZNSt3__112__to_addressB8ne180100IN7testing8internal26ParameterizedTestSuiteInfoIN12_GLOBAL__N_120CaesarDec_NumWordsInEE17InstantiationInfoEEEPT_S9_, symObjAddr: 0x169868, symBinAddr: 0x10016AF18, symSize: 0x20 }
  - { offset: 0x60564, size: 0x8, addend: 0x0, symName: __ZNSt3__112__destroy_atB8ne180100IN7testing8internal26ParameterizedTestSuiteInfoIN12_GLOBAL__N_120CaesarDec_NumWordsInEE17InstantiationInfoETnNS_9enable_ifIXntsr8is_arrayIT_EE5valueEiE4typeELi0EEEvPS9_, symObjAddr: 0x169888, symBinAddr: 0x10016AF38, symSize: 0x58 }
  - { offset: 0x6059C, size: 0x8, addend: 0x0, symName: __ZNSt3__1neB8ne180100IPNS_10shared_ptrIN7testing8internal26ParameterizedTestSuiteInfoIN12_GLOBAL__N_120CaesarDec_NumWordsInEE8TestInfoEEEEEbRKNS_11__wrap_iterIT_EESF_, symObjAddr: 0x16A908, symBinAddr: 0x10016BFB8, symSize: 0x98 }
  - { offset: 0x605DF, size: 0x8, addend: 0x0, symName: __ZNSt3__1neB8ne180100IPN7testing8internal26ParameterizedTestSuiteInfoIN12_GLOBAL__N_120CaesarDec_NumWordsInEE17InstantiationInfoEEEbRKNS_11__wrap_iterIT_EESD_, symObjAddr: 0x16AB78, symBinAddr: 0x10016C228, symSize: 0x98 }
  - { offset: 0x60622, size: 0x8, addend: 0x0, symName: __ZNSt3__1eqB8ne180100IPNS_10shared_ptrIN7testing8internal26ParameterizedTestSuiteInfoIN12_GLOBAL__N_120CaesarDec_NumWordsInEE8TestInfoEEEEEbRKNS_11__wrap_iterIT_EESF_, symObjAddr: 0x16CE78, symBinAddr: 0x10016E528, symSize: 0x98 }
  - { offset: 0x60665, size: 0x8, addend: 0x0, symName: __ZNSt3__1eqB8ne180100IPN7testing8internal26ParameterizedTestSuiteInfoIN12_GLOBAL__N_120CaesarDec_NumWordsInEE17InstantiationInfoEEEbRKNS_11__wrap_iterIT_EESD_, symObjAddr: 0x16D218, symBinAddr: 0x10016E8C8, symSize: 0x98 }
  - { offset: 0x606A8, size: 0x8, addend: 0x0, symName: __ZNSt3__114__construct_atB8ne180100IN7testing8internal26ParameterizedTestSuiteInfoIN12_GLOBAL__N_120CaesarDec_NumWordsInEE17InstantiationInfoEJNS_12basic_stringIcNS_11char_traitsIcEENS_9allocatorIcEEEERPFNS2_14ParamGeneratorINS_5tupleIJNS_6vectorISD_NSB_ISD_EEEESI_iEEEEEvERPFSD_RKNS1_13TestParamInfoISJ_EEERPKcRiEPS7_EEPT_S11_DpOT0_, symObjAddr: 0x170A68, symBinAddr: 0x100172118, symSize: 0x160 }
  - { offset: 0x6076E, size: 0x8, addend: 0x0, symName: __ZNSt3__112construct_atB8ne180100IN7testing8internal26ParameterizedTestSuiteInfoIN12_GLOBAL__N_120CaesarDec_NumWordsInEE17InstantiationInfoEJNS_12basic_stringIcNS_11char_traitsIcEENS_9allocatorIcEEEERPFNS2_14ParamGeneratorINS_5tupleIJNS_6vectorISD_NSB_ISD_EEEESI_iEEEEEvERPFSD_RKNS1_13TestParamInfoISJ_EEERPKcRiEPS7_EEPT_S11_DpOT0_, symObjAddr: 0x170BC8, symBinAddr: 0x100172278, symSize: 0x4D8 }
  - { offset: 0x60833, size: 0x8, addend: 0x0, symName: __ZNSt3__119__allocate_at_leastB8ne180100INS_9allocatorIN7testing8internal26ParameterizedTestSuiteInfoIN12_GLOBAL__N_120CaesarDec_NumWordsInEE17InstantiationInfoEEEEENS_19__allocation_resultINS_16allocator_traitsIT_E7pointerEEERSC_m, symObjAddr: 0x172CD8, symBinAddr: 0x100174388, symSize: 0x38 }
  - { offset: 0x60876, size: 0x8, addend: 0x0, symName: __ZNSt3__142__uninitialized_allocator_move_if_noexceptB8ne180100INS_9allocatorIN7testing8internal26ParameterizedTestSuiteInfoIN12_GLOBAL__N_120CaesarDec_NumWordsInEE17InstantiationInfoEEENS_16reverse_iteratorIPS8_EESC_SC_EET2_RT_T0_T1_SD_, symObjAddr: 0x173358, symBinAddr: 0x100174A08, symSize: 0x578 }
  - { offset: 0x6092A, size: 0x8, addend: 0x0, symName: __ZNSt3__14swapB8ne180100IPN7testing8internal26ParameterizedTestSuiteInfoIN12_GLOBAL__N_120CaesarDec_NumWordsInEE17InstantiationInfoEEENS_9enable_ifIXaasr21is_move_constructibleIT_EE5valuesr18is_move_assignableISA_EE5valueEvE4typeERSA_SD_, symObjAddr: 0x1739B8, symBinAddr: 0x100175068, symSize: 0x168 }
  - { offset: 0x6097B, size: 0x8, addend: 0x0, symName: __ZNSt3__122__make_exception_guardB8ne180100INS_29_AllocatorDestroyRangeReverseINS_9allocatorIN7testing8internal26ParameterizedTestSuiteInfoIN12_GLOBAL__N_120CaesarDec_NumWordsInEE17InstantiationInfoEEENS_16reverse_iteratorIPS9_EEEEEENS_28__exception_guard_exceptionsIT_EESG_, symObjAddr: 0x173C78, symBinAddr: 0x100175328, symSize: 0x1F8 }
  - { offset: 0x609B4, size: 0x8, addend: 0x0, symName: __ZNSt3__1neB8ne180100IPN7testing8internal26ParameterizedTestSuiteInfoIN12_GLOBAL__N_120CaesarDec_NumWordsInEE17InstantiationInfoES8_EEbRKNS_16reverse_iteratorIT_EERKNS9_IT0_EEQrqXnecldtfp_4baseEcldtfp0_4baseERNS_14convertible_toIbEEE, symObjAddr: 0x173EE8, symBinAddr: 0x100175598, symSize: 0xA0 }
  - { offset: 0x60A00, size: 0x8, addend: 0x0, symName: __ZNSt3__112__to_addressB8ne180100INS_16reverse_iteratorIPN7testing8internal26ParameterizedTestSuiteInfoIN12_GLOBAL__N_120CaesarDec_NumWordsInEE17InstantiationInfoEEEvEEu7__decayIDTclsr19__to_address_helperIT_EE6__callclsr3stdE7declvalIRKSB_EEEEESD_, symObjAddr: 0x173FF8, symBinAddr: 0x1001756A8, symSize: 0x58 }
  - { offset: 0x60A36, size: 0x8, addend: 0x0, symName: __ZNSt3__114__construct_atB8ne180100IN7testing8internal26ParameterizedTestSuiteInfoIN12_GLOBAL__N_120CaesarDec_NumWordsInEE17InstantiationInfoEJS7_EPS7_EEPT_SA_DpOT0_, symObjAddr: 0x1749B8, symBinAddr: 0x100176068, symSize: 0x70 }
  - { offset: 0x60A89, size: 0x8, addend: 0x0, symName: __ZNSt3__112construct_atB8ne180100IN7testing8internal26ParameterizedTestSuiteInfoIN12_GLOBAL__N_120CaesarDec_NumWordsInEE17InstantiationInfoEJS7_EPS7_EEPT_SA_DpOT0_, symObjAddr: 0x174A28, symBinAddr: 0x1001760D8, symSize: 0xD8 }
  - { offset: 0x60B26, size: 0x8, addend: 0x0, symName: __ZNSt3__14prevB8ne180100IPN7testing8internal26ParameterizedTestSuiteInfoIN12_GLOBAL__N_120CaesarDec_NumWordsInEE17InstantiationInfoETnNS_9enable_ifIXsr29__has_input_iterator_categoryIT_EE5valueEiE4typeELi0EEESA_SA_NS_15iterator_traitsISA_E15difference_typeE, symObjAddr: 0x174D48, symBinAddr: 0x1001763F8, symSize: 0x190 }
  - { offset: 0x60B76, size: 0x8, addend: 0x0, symName: __ZNSt3__19__advanceB8ne180100IPN7testing8internal26ParameterizedTestSuiteInfoIN12_GLOBAL__N_120CaesarDec_NumWordsInEE17InstantiationInfoEEEvRT_NS_15iterator_traitsIS9_E15difference_typeENS_26random_access_iterator_tagE, symObjAddr: 0x174F48, symBinAddr: 0x1001765F8, symSize: 0xF8 }
  - { offset: 0x60BC0, size: 0x8, addend: 0x0, symName: __ZNSt3__119__allocator_destroyB8ne180100INS_9allocatorIN7testing8internal26ParameterizedTestSuiteInfoIN12_GLOBAL__N_120CaesarDec_NumWordsInEE17InstantiationInfoEEENS_16reverse_iteratorINSA_IPS8_EEEESD_EEvRT_T0_T1_, symObjAddr: 0x175488, symBinAddr: 0x100176B38, symSize: 0x2F8 }
  - { offset: 0x60C2C, size: 0x8, addend: 0x0, symName: __ZNSt3__1neB8ne180100INS_16reverse_iteratorIPN7testing8internal26ParameterizedTestSuiteInfoIN12_GLOBAL__N_120CaesarDec_NumWordsInEE17InstantiationInfoEEESA_EEbRKNS1_IT_EERKNS1_IT0_EEQrqXnecldtfp_4baseEcldtfp0_4baseERNS_14convertible_toIbEEE, symObjAddr: 0x1757E8, symBinAddr: 0x100176E98, symSize: 0x220 }
  - { offset: 0x60C7A, size: 0x8, addend: 0x0, symName: __ZNSt3__112__to_addressB8ne180100INS_16reverse_iteratorINS1_IPN7testing8internal26ParameterizedTestSuiteInfoIN12_GLOBAL__N_120CaesarDec_NumWordsInEE17InstantiationInfoEEEEEvEEu7__decayIDTclsr19__to_address_helperIT_EE6__callclsr3stdE7declvalIRKSC_EEEEESE_, symObjAddr: 0x175A08, symBinAddr: 0x1001770B8, symSize: 0x58 }
  - { offset: 0x60CDB, size: 0x8, addend: 0x0, symName: __ZNSt3__14prevB8ne180100INS_16reverse_iteratorIPN7testing8internal26ParameterizedTestSuiteInfoIN12_GLOBAL__N_120CaesarDec_NumWordsInEE17InstantiationInfoEEETnNS_9enable_ifIXsr29__has_input_iterator_categoryIT_EE5valueEiE4typeELi0EEESC_SC_NS_15iterator_traitsISC_E15difference_typeE, symObjAddr: 0x175DC8, symBinAddr: 0x100177478, symSize: 0x1E0 }
  - { offset: 0x60D2B, size: 0x8, addend: 0x0, symName: __ZNSt3__19__advanceB8ne180100INS_16reverse_iteratorIPN7testing8internal26ParameterizedTestSuiteInfoIN12_GLOBAL__N_120CaesarDec_NumWordsInEE17InstantiationInfoEEEEEvRT_NS_15iterator_traitsISB_E15difference_typeENS_26random_access_iterator_tagE, symObjAddr: 0x176018, symBinAddr: 0x1001776C8, symSize: 0x68 }
  - { offset: 0x60D75, size: 0x8, addend: 0x0, symName: __ZNSt3__112__to_addressB8ne180100IN7testing8internal26ParameterizedTestSuiteInfoIN12_GLOBAL__N_127CaesarDec_CommandCustomDictEE17InstantiationInfoEEEPT_S9_, symObjAddr: 0x17B4F8, symBinAddr: 0x10017CBA8, symSize: 0x20 }
  - { offset: 0x60DAB, size: 0x8, addend: 0x0, symName: __ZNSt3__112__destroy_atB8ne180100IN7testing8internal26ParameterizedTestSuiteInfoIN12_GLOBAL__N_127CaesarDec_CommandCustomDictEE17InstantiationInfoETnNS_9enable_ifIXntsr8is_arrayIT_EE5valueEiE4typeELi0EEEvPS9_, symObjAddr: 0x17B518, symBinAddr: 0x10017CBC8, symSize: 0x58 }
  - { offset: 0x60DE3, size: 0x8, addend: 0x0, symName: __ZNSt3__1neB8ne180100IPNS_10shared_ptrIN7testing8internal26ParameterizedTestSuiteInfoIN12_GLOBAL__N_127CaesarDec_CommandCustomDictEE8TestInfoEEEEEbRKNS_11__wrap_iterIT_EESF_, symObjAddr: 0x17C598, symBinAddr: 0x10017DC48, symSize: 0x98 }
  - { offset: 0x60E26, size: 0x8, addend: 0x0, symName: __ZNSt3__1neB8ne180100IPN7testing8internal26ParameterizedTestSuiteInfoIN12_GLOBAL__N_127CaesarDec_CommandCustomDictEE17InstantiationInfoEEEbRKNS_11__wrap_iterIT_EESD_, symObjAddr: 0x17C808, symBinAddr: 0x10017DEB8, symSize: 0x98 }
  - { offset: 0x60E69, size: 0x8, addend: 0x0, symName: __ZNSt3__1eqB8ne180100IPNS_10shared_ptrIN7testing8internal26ParameterizedTestSuiteInfoIN12_GLOBAL__N_127CaesarDec_CommandCustomDictEE8TestInfoEEEEEbRKNS_11__wrap_iterIT_EESF_, symObjAddr: 0x17EB08, symBinAddr: 0x1001801B8, symSize: 0x98 }
  - { offset: 0x60EAC, size: 0x8, addend: 0x0, symName: __ZNSt3__1eqB8ne180100IPN7testing8internal26ParameterizedTestSuiteInfoIN12_GLOBAL__N_127CaesarDec_CommandCustomDictEE17InstantiationInfoEEEbRKNS_11__wrap_iterIT_EESD_, symObjAddr: 0x17EEA8, symBinAddr: 0x100180558, symSize: 0x98 }
  - { offset: 0x60EEF, size: 0x8, addend: 0x0, symName: __ZNSt3__114__construct_atB8ne180100IN7testing8internal26ParameterizedTestSuiteInfoIN12_GLOBAL__N_127CaesarDec_CommandCustomDictEE17InstantiationInfoEJNS_12basic_stringIcNS_11char_traitsIcEENS_9allocatorIcEEEERPFNS2_14ParamGeneratorINS_5tupleIJSD_NS_6vectorISD_NSB_ISD_EEEESD_SD_EEEEEvERPFSD_RKNS1_13TestParamInfoISJ_EEERPKcRiEPS7_EEPT_S11_DpOT0_, symObjAddr: 0x182818, symBinAddr: 0x100183EC8, symSize: 0x160 }
  - { offset: 0x60FB5, size: 0x8, addend: 0x0, symName: __ZNSt3__112construct_atB8ne180100IN7testing8internal26ParameterizedTestSuiteInfoIN12_GLOBAL__N_127CaesarDec_CommandCustomDictEE17InstantiationInfoEJNS_12basic_stringIcNS_11char_traitsIcEENS_9allocatorIcEEEERPFNS2_14ParamGeneratorINS_5tupleIJSD_NS_6vectorISD_NSB_ISD_EEEESD_SD_EEEEEvERPFSD_RKNS1_13TestParamInfoISJ_EEERPKcRiEPS7_EEPT_S11_DpOT0_, symObjAddr: 0x182978, symBinAddr: 0x100184028, symSize: 0x4D8 }
  - { offset: 0x6107A, size: 0x8, addend: 0x0, symName: __ZNSt3__119__allocate_at_leastB8ne180100INS_9allocatorIN7testing8internal26ParameterizedTestSuiteInfoIN12_GLOBAL__N_127CaesarDec_CommandCustomDictEE17InstantiationInfoEEEEENS_19__allocation_resultINS_16allocator_traitsIT_E7pointerEEERSC_m, symObjAddr: 0x184A88, symBinAddr: 0x100186138, symSize: 0x38 }
  - { offset: 0x610BD, size: 0x8, addend: 0x0, symName: __ZNSt3__142__uninitialized_allocator_move_if_noexceptB8ne180100INS_9allocatorIN7testing8internal26ParameterizedTestSuiteInfoIN12_GLOBAL__N_127CaesarDec_CommandCustomDictEE17InstantiationInfoEEENS_16reverse_iteratorIPS8_EESC_SC_EET2_RT_T0_T1_SD_, symObjAddr: 0x185108, symBinAddr: 0x1001867B8, symSize: 0x578 }
  - { offset: 0x61171, size: 0x8, addend: 0x0, symName: __ZNSt3__14swapB8ne180100IPN7testing8internal26ParameterizedTestSuiteInfoIN12_GLOBAL__N_127CaesarDec_CommandCustomDictEE17InstantiationInfoEEENS_9enable_ifIXaasr21is_move_constructibleIT_EE5valuesr18is_move_assignableISA_EE5valueEvE4typeERSA_SD_, symObjAddr: 0x185768, symBinAddr: 0x100186E18, symSize: 0x168 }
  - { offset: 0x611C2, size: 0x8, addend: 0x0, symName: __ZNSt3__122__make_exception_guardB8ne180100INS_29_AllocatorDestroyRangeReverseINS_9allocatorIN7testing8internal26ParameterizedTestSuiteInfoIN12_GLOBAL__N_127CaesarDec_CommandCustomDictEE17InstantiationInfoEEENS_16reverse_iteratorIPS9_EEEEEENS_28__exception_guard_exceptionsIT_EESG_, symObjAddr: 0x185A28, symBinAddr: 0x1001870D8, symSize: 0x1F8 }
  - { offset: 0x611FB, size: 0x8, addend: 0x0, symName: __ZNSt3__1neB8ne180100IPN7testing8internal26ParameterizedTestSuiteInfoIN12_GLOBAL__N_127CaesarDec_CommandCustomDictEE17InstantiationInfoES8_EEbRKNS_16reverse_iteratorIT_EERKNS9_IT0_EEQrqXnecldtfp_4baseEcldtfp0_4baseERNS_14convertible_toIbEEE, symObjAddr: 0x185C98, symBinAddr: 0x100187348, symSize: 0xA0 }
  - { offset: 0x61247, size: 0x8, addend: 0x0, symName: __ZNSt3__112__to_addressB8ne180100INS_16reverse_iteratorIPN7testing8internal26ParameterizedTestSuiteInfoIN12_GLOBAL__N_127CaesarDec_CommandCustomDictEE17InstantiationInfoEEEvEEu7__decayIDTclsr19__to_address_helperIT_EE6__callclsr3stdE7declvalIRKSB_EEEEESD_, symObjAddr: 0x185DA8, symBinAddr: 0x100187458, symSize: 0x58 }
  - { offset: 0x6127D, size: 0x8, addend: 0x0, symName: __ZNSt3__114__construct_atB8ne180100IN7testing8internal26ParameterizedTestSuiteInfoIN12_GLOBAL__N_127CaesarDec_CommandCustomDictEE17InstantiationInfoEJS7_EPS7_EEPT_SA_DpOT0_, symObjAddr: 0x186768, symBinAddr: 0x100187E18, symSize: 0x70 }
  - { offset: 0x612D0, size: 0x8, addend: 0x0, symName: __ZNSt3__112construct_atB8ne180100IN7testing8internal26ParameterizedTestSuiteInfoIN12_GLOBAL__N_127CaesarDec_CommandCustomDictEE17InstantiationInfoEJS7_EPS7_EEPT_SA_DpOT0_, symObjAddr: 0x1867D8, symBinAddr: 0x100187E88, symSize: 0xD8 }
  - { offset: 0x6136D, size: 0x8, addend: 0x0, symName: __ZNSt3__14prevB8ne180100IPN7testing8internal26ParameterizedTestSuiteInfoIN12_GLOBAL__N_127CaesarDec_CommandCustomDictEE17InstantiationInfoETnNS_9enable_ifIXsr29__has_input_iterator_categoryIT_EE5valueEiE4typeELi0EEESA_SA_NS_15iterator_traitsISA_E15difference_typeE, symObjAddr: 0x186AF8, symBinAddr: 0x1001881A8, symSize: 0x190 }
  - { offset: 0x613BD, size: 0x8, addend: 0x0, symName: __ZNSt3__19__advanceB8ne180100IPN7testing8internal26ParameterizedTestSuiteInfoIN12_GLOBAL__N_127CaesarDec_CommandCustomDictEE17InstantiationInfoEEEvRT_NS_15iterator_traitsIS9_E15difference_typeENS_26random_access_iterator_tagE, symObjAddr: 0x186CF8, symBinAddr: 0x1001883A8, symSize: 0xF8 }
  - { offset: 0x61407, size: 0x8, addend: 0x0, symName: __ZNSt3__119__allocator_destroyB8ne180100INS_9allocatorIN7testing8internal26ParameterizedTestSuiteInfoIN12_GLOBAL__N_127CaesarDec_CommandCustomDictEE17InstantiationInfoEEENS_16reverse_iteratorINSA_IPS8_EEEESD_EEvRT_T0_T1_, symObjAddr: 0x187238, symBinAddr: 0x1001888E8, symSize: 0x2F8 }
  - { offset: 0x61473, size: 0x8, addend: 0x0, symName: __ZNSt3__1neB8ne180100INS_16reverse_iteratorIPN7testing8internal26ParameterizedTestSuiteInfoIN12_GLOBAL__N_127CaesarDec_CommandCustomDictEE17InstantiationInfoEEESA_EEbRKNS1_IT_EERKNS1_IT0_EEQrqXnecldtfp_4baseEcldtfp0_4baseERNS_14convertible_toIbEEE, symObjAddr: 0x187598, symBinAddr: 0x100188C48, symSize: 0x220 }
  - { offset: 0x614C1, size: 0x8, addend: 0x0, symName: __ZNSt3__112__to_addressB8ne180100INS_16reverse_iteratorINS1_IPN7testing8internal26ParameterizedTestSuiteInfoIN12_GLOBAL__N_127CaesarDec_CommandCustomDictEE17InstantiationInfoEEEEEvEEu7__decayIDTclsr19__to_address_helperIT_EE6__callclsr3stdE7declvalIRKSC_EEEEESE_, symObjAddr: 0x1877B8, symBinAddr: 0x100188E68, symSize: 0x58 }
  - { offset: 0x61522, size: 0x8, addend: 0x0, symName: __ZNSt3__14prevB8ne180100INS_16reverse_iteratorIPN7testing8internal26ParameterizedTestSuiteInfoIN12_GLOBAL__N_127CaesarDec_CommandCustomDictEE17InstantiationInfoEEETnNS_9enable_ifIXsr29__has_input_iterator_categoryIT_EE5valueEiE4typeELi0EEESC_SC_NS_15iterator_traitsISC_E15difference_typeE, symObjAddr: 0x187B78, symBinAddr: 0x100189228, symSize: 0x1E0 }
  - { offset: 0x61572, size: 0x8, addend: 0x0, symName: __ZNSt3__19__advanceB8ne180100INS_16reverse_iteratorIPN7testing8internal26ParameterizedTestSuiteInfoIN12_GLOBAL__N_127CaesarDec_CommandCustomDictEE17InstantiationInfoEEEEEvRT_NS_15iterator_traitsISB_E15difference_typeENS_26random_access_iterator_tagE, symObjAddr: 0x187DC8, symBinAddr: 0x100189478, symSize: 0x68 }
  - { offset: 0x615BC, size: 0x8, addend: 0x0, symName: __ZNSt3__112__to_addressB8ne180100IN7testing8internal26ParameterizedTestSuiteInfoIN12_GLOBAL__N_122CaesarDec_MainFullDictEE17InstantiationInfoEEEPT_S9_, symObjAddr: 0x18D278, symBinAddr: 0x10018E928, symSize: 0x20 }
  - { offset: 0x615F2, size: 0x8, addend: 0x0, symName: __ZNSt3__112__destroy_atB8ne180100IN7testing8internal26ParameterizedTestSuiteInfoIN12_GLOBAL__N_122CaesarDec_MainFullDictEE17InstantiationInfoETnNS_9enable_ifIXntsr8is_arrayIT_EE5valueEiE4typeELi0EEEvPS9_, symObjAddr: 0x18D298, symBinAddr: 0x10018E948, symSize: 0x58 }
  - { offset: 0x6162A, size: 0x8, addend: 0x0, symName: __ZNSt3__1neB8ne180100IPNS_10shared_ptrIN7testing8internal26ParameterizedTestSuiteInfoIN12_GLOBAL__N_122CaesarDec_MainFullDictEE8TestInfoEEEEEbRKNS_11__wrap_iterIT_EESF_, symObjAddr: 0x18E318, symBinAddr: 0x10018F9C8, symSize: 0x98 }
  - { offset: 0x6166D, size: 0x8, addend: 0x0, symName: __ZNSt3__1neB8ne180100IPN7testing8internal26ParameterizedTestSuiteInfoIN12_GLOBAL__N_122CaesarDec_MainFullDictEE17InstantiationInfoEEEbRKNS_11__wrap_iterIT_EESD_, symObjAddr: 0x18E588, symBinAddr: 0x10018FC38, symSize: 0x98 }
  - { offset: 0x616B0, size: 0x8, addend: 0x0, symName: __ZNSt3__1eqB8ne180100IPNS_10shared_ptrIN7testing8internal26ParameterizedTestSuiteInfoIN12_GLOBAL__N_122CaesarDec_MainFullDictEE8TestInfoEEEEEbRKNS_11__wrap_iterIT_EESF_, symObjAddr: 0x190888, symBinAddr: 0x100191F38, symSize: 0x98 }
  - { offset: 0x616F3, size: 0x8, addend: 0x0, symName: __ZNSt3__1eqB8ne180100IPN7testing8internal26ParameterizedTestSuiteInfoIN12_GLOBAL__N_122CaesarDec_MainFullDictEE17InstantiationInfoEEEbRKNS_11__wrap_iterIT_EESD_, symObjAddr: 0x190C28, symBinAddr: 0x1001922D8, symSize: 0x98 }
  - { offset: 0x61736, size: 0x8, addend: 0x0, symName: __ZNSt3__114__construct_atB8ne180100IN7testing8internal26ParameterizedTestSuiteInfoIN12_GLOBAL__N_122CaesarDec_MainFullDictEE17InstantiationInfoEJNS_12basic_stringIcNS_11char_traitsIcEENS_9allocatorIcEEEERPFNS2_14ParamGeneratorINS_5tupleIJSD_SD_SD_EEEEEvERPFSD_RKNS1_13TestParamInfoISG_EEERPKcRiEPS7_EEPT_SY_DpOT0_, symObjAddr: 0x194478, symBinAddr: 0x100195B28, symSize: 0x160 }
  - { offset: 0x617FC, size: 0x8, addend: 0x0, symName: __ZNSt3__112construct_atB8ne180100IN7testing8internal26ParameterizedTestSuiteInfoIN12_GLOBAL__N_122CaesarDec_MainFullDictEE17InstantiationInfoEJNS_12basic_stringIcNS_11char_traitsIcEENS_9allocatorIcEEEERPFNS2_14ParamGeneratorINS_5tupleIJSD_SD_SD_EEEEEvERPFSD_RKNS1_13TestParamInfoISG_EEERPKcRiEPS7_EEPT_SY_DpOT0_, symObjAddr: 0x1945D8, symBinAddr: 0x100195C88, symSize: 0x4D8 }
  - { offset: 0x618C1, size: 0x8, addend: 0x0, symName: __ZNSt3__119__allocate_at_leastB8ne180100INS_9allocatorIN7testing8internal26ParameterizedTestSuiteInfoIN12_GLOBAL__N_122CaesarDec_MainFullDictEE17InstantiationInfoEEEEENS_19__allocation_resultINS_16allocator_traitsIT_E7pointerEEERSC_m, symObjAddr: 0x1966E8, symBinAddr: 0x100197D98, symSize: 0x38 }
  - { offset: 0x61904, size: 0x8, addend: 0x0, symName: __ZNSt3__142__uninitialized_allocator_move_if_noexceptB8ne180100INS_9allocatorIN7testing8internal26ParameterizedTestSuiteInfoIN12_GLOBAL__N_122CaesarDec_MainFullDictEE17InstantiationInfoEEENS_16reverse_iteratorIPS8_EESC_SC_EET2_RT_T0_T1_SD_, symObjAddr: 0x196D68, symBinAddr: 0x100198418, symSize: 0x578 }
  - { offset: 0x619B8, size: 0x8, addend: 0x0, symName: __ZNSt3__14swapB8ne180100IPN7testing8internal26ParameterizedTestSuiteInfoIN12_GLOBAL__N_122CaesarDec_MainFullDictEE17InstantiationInfoEEENS_9enable_ifIXaasr21is_move_constructibleIT_EE5valuesr18is_move_assignableISA_EE5valueEvE4typeERSA_SD_, symObjAddr: 0x1973C8, symBinAddr: 0x100198A78, symSize: 0x168 }
  - { offset: 0x61A09, size: 0x8, addend: 0x0, symName: __ZNSt3__122__make_exception_guardB8ne180100INS_29_AllocatorDestroyRangeReverseINS_9allocatorIN7testing8internal26ParameterizedTestSuiteInfoIN12_GLOBAL__N_122CaesarDec_MainFullDictEE17InstantiationInfoEEENS_16reverse_iteratorIPS9_EEEEEENS_28__exception_guard_exceptionsIT_EESG_, symObjAddr: 0x197688, symBinAddr: 0x100198D38, symSize: 0x1F8 }
  - { offset: 0x61A42, size: 0x8, addend: 0x0, symName: __ZNSt3__1neB8ne180100IPN7testing8internal26ParameterizedTestSuiteInfoIN12_GLOBAL__N_122CaesarDec_MainFullDictEE17InstantiationInfoES8_EEbRKNS_16reverse_iteratorIT_EERKNS9_IT0_EEQrqXnecldtfp_4baseEcldtfp0_4baseERNS_14convertible_toIbEEE, symObjAddr: 0x1978F8, symBinAddr: 0x100198FA8, symSize: 0xA0 }
  - { offset: 0x61A8E, size: 0x8, addend: 0x0, symName: __ZNSt3__112__to_addressB8ne180100INS_16reverse_iteratorIPN7testing8internal26ParameterizedTestSuiteInfoIN12_GLOBAL__N_122CaesarDec_MainFullDictEE17InstantiationInfoEEEvEEu7__decayIDTclsr19__to_address_helperIT_EE6__callclsr3stdE7declvalIRKSB_EEEEESD_, symObjAddr: 0x197A08, symBinAddr: 0x1001990B8, symSize: 0x58 }
  - { offset: 0x61AC4, size: 0x8, addend: 0x0, symName: __ZNSt3__114__construct_atB8ne180100IN7testing8internal26ParameterizedTestSuiteInfoIN12_GLOBAL__N_122CaesarDec_MainFullDictEE17InstantiationInfoEJS7_EPS7_EEPT_SA_DpOT0_, symObjAddr: 0x1983C8, symBinAddr: 0x100199A78, symSize: 0x70 }
  - { offset: 0x61B17, size: 0x8, addend: 0x0, symName: __ZNSt3__112construct_atB8ne180100IN7testing8internal26ParameterizedTestSuiteInfoIN12_GLOBAL__N_122CaesarDec_MainFullDictEE17InstantiationInfoEJS7_EPS7_EEPT_SA_DpOT0_, symObjAddr: 0x198438, symBinAddr: 0x100199AE8, symSize: 0xD8 }
  - { offset: 0x61BB4, size: 0x8, addend: 0x0, symName: __ZNSt3__14prevB8ne180100IPN7testing8internal26ParameterizedTestSuiteInfoIN12_GLOBAL__N_122CaesarDec_MainFullDictEE17InstantiationInfoETnNS_9enable_ifIXsr29__has_input_iterator_categoryIT_EE5valueEiE4typeELi0EEESA_SA_NS_15iterator_traitsISA_E15difference_typeE, symObjAddr: 0x198758, symBinAddr: 0x100199E08, symSize: 0x190 }
  - { offset: 0x61C04, size: 0x8, addend: 0x0, symName: __ZNSt3__19__advanceB8ne180100IPN7testing8internal26ParameterizedTestSuiteInfoIN12_GLOBAL__N_122CaesarDec_MainFullDictEE17InstantiationInfoEEEvRT_NS_15iterator_traitsIS9_E15difference_typeENS_26random_access_iterator_tagE, symObjAddr: 0x198958, symBinAddr: 0x10019A008, symSize: 0xF8 }
  - { offset: 0x61C4E, size: 0x8, addend: 0x0, symName: __ZNSt3__119__allocator_destroyB8ne180100INS_9allocatorIN7testing8internal26ParameterizedTestSuiteInfoIN12_GLOBAL__N_122CaesarDec_MainFullDictEE17InstantiationInfoEEENS_16reverse_iteratorINSA_IPS8_EEEESD_EEvRT_T0_T1_, symObjAddr: 0x198E98, symBinAddr: 0x10019A548, symSize: 0x2F8 }
  - { offset: 0x61CBA, size: 0x8, addend: 0x0, symName: __ZNSt3__1neB8ne180100INS_16reverse_iteratorIPN7testing8internal26ParameterizedTestSuiteInfoIN12_GLOBAL__N_122CaesarDec_MainFullDictEE17InstantiationInfoEEESA_EEbRKNS1_IT_EERKNS1_IT0_EEQrqXnecldtfp_4baseEcldtfp0_4baseERNS_14convertible_toIbEEE, symObjAddr: 0x1991F8, symBinAddr: 0x10019A8A8, symSize: 0x220 }
  - { offset: 0x61D08, size: 0x8, addend: 0x0, symName: __ZNSt3__112__to_addressB8ne180100INS_16reverse_iteratorINS1_IPN7testing8internal26ParameterizedTestSuiteInfoIN12_GLOBAL__N_122CaesarDec_MainFullDictEE17InstantiationInfoEEEEEvEEu7__decayIDTclsr19__to_address_helperIT_EE6__callclsr3stdE7declvalIRKSC_EEEEESE_, symObjAddr: 0x199418, symBinAddr: 0x10019AAC8, symSize: 0x58 }
  - { offset: 0x61D69, size: 0x8, addend: 0x0, symName: __ZNSt3__14prevB8ne180100INS_16reverse_iteratorIPN7testing8internal26ParameterizedTestSuiteInfoIN12_GLOBAL__N_122CaesarDec_MainFullDictEE17InstantiationInfoEEETnNS_9enable_ifIXsr29__has_input_iterator_categoryIT_EE5valueEiE4typeELi0EEESC_SC_NS_15iterator_traitsISC_E15difference_typeE, symObjAddr: 0x1997D8, symBinAddr: 0x10019AE88, symSize: 0x1E0 }
  - { offset: 0x61DB9, size: 0x8, addend: 0x0, symName: __ZNSt3__19__advanceB8ne180100INS_16reverse_iteratorIPN7testing8internal26ParameterizedTestSuiteInfoIN12_GLOBAL__N_122CaesarDec_MainFullDictEE17InstantiationInfoEEEEEvRT_NS_15iterator_traitsISB_E15difference_typeENS_26random_access_iterator_tagE, symObjAddr: 0x199A28, symBinAddr: 0x10019B0D8, symSize: 0x68 }
  - { offset: 0x6399F, size: 0x8, addend: 0x0, symName: __ZSt28__throw_bad_array_new_lengthB8ne180100v, symObjAddr: 0x28948, symBinAddr: 0x100029FF8, symSize: 0x80 }
  - { offset: 0x640F2, size: 0x8, addend: 0x0, symName: _.str.4, symObjAddr: 0x1A41C0, symBinAddr: 0x100383C80, symSize: 0x0 }
  - { offset: 0x6412B, size: 0x8, addend: 0x0, symName: _.str.6, symObjAddr: 0x1A41E0, symBinAddr: 0x100383CA0, symSize: 0x0 }
  - { offset: 0x64219, size: 0x8, addend: 0x0, symName: _.str.9, symObjAddr: 0x1A4200, symBinAddr: 0x100383CC0, symSize: 0x0 }
  - { offset: 0x64236, size: 0x8, addend: 0x0, symName: _.str.10, symObjAddr: 0x1B95C0, symBinAddr: 0x100280D80, symSize: 0x0 }
  - { offset: 0x64464, size: 0x8, addend: 0x0, symName: _.str.13, symObjAddr: 0x1A42A0, symBinAddr: 0x100383D60, symSize: 0x0 }
  - { offset: 0x644F9, size: 0x8, addend: 0x0, symName: _.str.16, symObjAddr: 0x1A4360, symBinAddr: 0x100383E20, symSize: 0x0 }
  - { offset: 0x6459F, size: 0x8, addend: 0x0, symName: _.str.19, symObjAddr: 0x1A4420, symBinAddr: 0x100383EE0, symSize: 0x0 }
  - { offset: 0x645BC, size: 0x8, addend: 0x0, symName: _.str.21, symObjAddr: 0x1A44E0, symBinAddr: 0x100383FA0, symSize: 0x0 }
  - { offset: 0x645D9, size: 0x8, addend: 0x0, symName: _.str.23, symObjAddr: 0x1A4540, symBinAddr: 0x100384000, symSize: 0x0 }
  - { offset: 0x64A56, size: 0x8, addend: 0x0, symName: _.str.26, symObjAddr: 0x1A4580, symBinAddr: 0x100384040, symSize: 0x0 }
  - { offset: 0x64ACA, size: 0x8, addend: 0x0, symName: _.str.29, symObjAddr: 0x1A4640, symBinAddr: 0x100384100, symSize: 0x0 }
  - { offset: 0x64AE7, size: 0x8, addend: 0x0, symName: _.str.33, symObjAddr: 0x1A47E0, symBinAddr: 0x1003842A0, symSize: 0x0 }
  - { offset: 0x64AF8, size: 0x8, addend: 0x0, symName: _.str.34, symObjAddr: 0x1A4800, symBinAddr: 0x1003842C0, symSize: 0x0 }
  - { offset: 0x64B15, size: 0x8, addend: 0x0, symName: _.str.46, symObjAddr: 0x1A4820, symBinAddr: 0x1003842E0, symSize: 0x0 }
  - { offset: 0x64B32, size: 0x8, addend: 0x0, symName: _.str.56, symObjAddr: 0x1A4920, symBinAddr: 0x1003843E0, symSize: 0x0 }
  - { offset: 0x64B43, size: 0x8, addend: 0x0, symName: _.str.57, symObjAddr: 0x1A4940, symBinAddr: 0x100384400, symSize: 0x0 }
  - { offset: 0x64B54, size: 0x8, addend: 0x0, symName: _.str.58, symObjAddr: 0x1A4960, symBinAddr: 0x100384420, symSize: 0x0 }
  - { offset: 0x64B71, size: 0x8, addend: 0x0, symName: _.str.59, symObjAddr: 0x1A4980, symBinAddr: 0x100384440, symSize: 0x0 }
  - { offset: 0x64B82, size: 0x8, addend: 0x0, symName: _.str.60, symObjAddr: 0x1A49A0, symBinAddr: 0x100384460, symSize: 0x0 }
  - { offset: 0x64BA1, size: 0x8, addend: 0x0, symName: _.str.65, symObjAddr: 0x1A4A20, symBinAddr: 0x1003844E0, symSize: 0x0 }
  - { offset: 0x64BBE, size: 0x8, addend: 0x0, symName: _.str.74, symObjAddr: 0x1A4A40, symBinAddr: 0x100384500, symSize: 0x0 }
  - { offset: 0x64BCF, size: 0x8, addend: 0x0, symName: _.str.75, symObjAddr: 0x1A4B40, symBinAddr: 0x100384600, symSize: 0x0 }
  - { offset: 0x64BE0, size: 0x8, addend: 0x0, symName: _.str.76, symObjAddr: 0x1A4B60, symBinAddr: 0x100384620, symSize: 0x0 }
  - { offset: 0x64BF1, size: 0x8, addend: 0x0, symName: _.str.77, symObjAddr: 0x1A4B80, symBinAddr: 0x100384640, symSize: 0x0 }
  - { offset: 0x64C02, size: 0x8, addend: 0x0, symName: _.str.78, symObjAddr: 0x1A4BA0, symBinAddr: 0x100384660, symSize: 0x0 }
  - { offset: 0x64C13, size: 0x8, addend: 0x0, symName: _.str.79, symObjAddr: 0x1A4BC0, symBinAddr: 0x100384680, symSize: 0x0 }
  - { offset: 0x64C29, size: 0x8, addend: 0x0, symName: _.str.87, symObjAddr: 0x1A5000, symBinAddr: 0x100384AC0, symSize: 0x0 }
  - { offset: 0x64C3C, size: 0x8, addend: 0x0, symName: _.str.88, symObjAddr: 0x1A5020, symBinAddr: 0x100384AE0, symSize: 0x0 }
  - { offset: 0x64C5B, size: 0x8, addend: 0x0, symName: _.str.89, symObjAddr: 0x1A5080, symBinAddr: 0x100384B40, symSize: 0x0 }
  - { offset: 0x64C7A, size: 0x8, addend: 0x0, symName: _.str.90, symObjAddr: 0x1A5100, symBinAddr: 0x100384BC0, symSize: 0x0 }
  - { offset: 0x64C97, size: 0x8, addend: 0x0, symName: _.str.92, symObjAddr: 0x1A5160, symBinAddr: 0x100384C20, symSize: 0x0 }
  - { offset: 0x64CA8, size: 0x8, addend: 0x0, symName: _.str.93, symObjAddr: 0x1A51A0, symBinAddr: 0x100384C60, symSize: 0x0 }
  - { offset: 0x64CC5, size: 0x8, addend: 0x0, symName: _.str.94, symObjAddr: 0x1A51E0, symBinAddr: 0x100384CA0, symSize: 0x0 }
  - { offset: 0x64CD6, size: 0x8, addend: 0x0, symName: _.str.95, symObjAddr: 0x1A5200, symBinAddr: 0x100384CC0, symSize: 0x0 }
  - { offset: 0x64CF5, size: 0x8, addend: 0x0, symName: _.str.97, symObjAddr: 0x1A5220, symBinAddr: 0x100384CE0, symSize: 0x0 }
  - { offset: 0x64D14, size: 0x8, addend: 0x0, symName: _.str.98, symObjAddr: 0x1A5280, symBinAddr: 0x100384D40, symSize: 0x0 }
  - { offset: 0x64D33, size: 0x8, addend: 0x0, symName: _.str.99, symObjAddr: 0x1A52E0, symBinAddr: 0x100384DA0, symSize: 0x0 }
  - { offset: 0x64D46, size: 0x8, addend: 0x0, symName: _.str.100, symObjAddr: 0x1A5320, symBinAddr: 0x100384DE0, symSize: 0x0 }
  - { offset: 0x64D68, size: 0x8, addend: 0x0, symName: _.str.101, symObjAddr: 0x1A57E0, symBinAddr: 0x1003852A0, symSize: 0x0 }
  - { offset: 0x64D85, size: 0x8, addend: 0x0, symName: _.str.102, symObjAddr: 0x1A5800, symBinAddr: 0x1003852C0, symSize: 0x0 }
  - { offset: 0x64D96, size: 0x8, addend: 0x0, symName: _.str.103, symObjAddr: 0x1A5820, symBinAddr: 0x1003852E0, symSize: 0x0 }
  - { offset: 0x64DA7, size: 0x8, addend: 0x0, symName: _.str.104, symObjAddr: 0x1A5840, symBinAddr: 0x100385300, symSize: 0x0 }
  - { offset: 0x64DC4, size: 0x8, addend: 0x0, symName: _.str.105, symObjAddr: 0x1A5860, symBinAddr: 0x100385320, symSize: 0x0 }
  - { offset: 0x64DE1, size: 0x8, addend: 0x0, symName: _.str.106, symObjAddr: 0x1A5880, symBinAddr: 0x100385340, symSize: 0x0 }
  - { offset: 0x64DF2, size: 0x8, addend: 0x0, symName: _.str.107, symObjAddr: 0x1A58A0, symBinAddr: 0x100385360, symSize: 0x0 }
  - { offset: 0x64E03, size: 0x8, addend: 0x0, symName: _.str.108, symObjAddr: 0x1A58C0, symBinAddr: 0x100385380, symSize: 0x0 }
  - { offset: 0x64E14, size: 0x8, addend: 0x0, symName: _.str.109, symObjAddr: 0x1A58E0, symBinAddr: 0x1003853A0, symSize: 0x0 }
  - { offset: 0x64E31, size: 0x8, addend: 0x0, symName: _.str.110, symObjAddr: 0x1A5920, symBinAddr: 0x1003853E0, symSize: 0x0 }
  - { offset: 0x64E42, size: 0x8, addend: 0x0, symName: _.str.111, symObjAddr: 0x1A5940, symBinAddr: 0x100385400, symSize: 0x0 }
  - { offset: 0x64E53, size: 0x8, addend: 0x0, symName: _.str.112, symObjAddr: 0x1A5960, symBinAddr: 0x100385420, symSize: 0x0 }
  - { offset: 0x64E64, size: 0x8, addend: 0x0, symName: _.str.113, symObjAddr: 0x1A5980, symBinAddr: 0x100385440, symSize: 0x0 }
  - { offset: 0x64E75, size: 0x8, addend: 0x0, symName: _.str.114, symObjAddr: 0x1A59A0, symBinAddr: 0x100385460, symSize: 0x0 }
  - { offset: 0x64E92, size: 0x8, addend: 0x0, symName: _.str.115, symObjAddr: 0x1A59C0, symBinAddr: 0x100385480, symSize: 0x0 }
  - { offset: 0x64EAF, size: 0x8, addend: 0x0, symName: _.str.116, symObjAddr: 0x1A5A00, symBinAddr: 0x1003854C0, symSize: 0x0 }
  - { offset: 0x64EC0, size: 0x8, addend: 0x0, symName: _.str.117, symObjAddr: 0x1A5A20, symBinAddr: 0x1003854E0, symSize: 0x0 }
  - { offset: 0x64ED6, size: 0x8, addend: 0x0, symName: _.str.118, symObjAddr: 0x1A5E80, symBinAddr: 0x100385940, symSize: 0x0 }
  - { offset: 0x64EE7, size: 0x8, addend: 0x0, symName: _.str.119, symObjAddr: 0x1A5EA0, symBinAddr: 0x100385960, symSize: 0x0 }
  - { offset: 0x64EF8, size: 0x8, addend: 0x0, symName: _.str.120, symObjAddr: 0x1A5EC0, symBinAddr: 0x100385980, symSize: 0x0 }
  - { offset: 0x64F09, size: 0x8, addend: 0x0, symName: _.str.121, symObjAddr: 0x1A5EE0, symBinAddr: 0x1003859A0, symSize: 0x0 }
  - { offset: 0x64F1A, size: 0x8, addend: 0x0, symName: _.str.122, symObjAddr: 0x1A5F00, symBinAddr: 0x1003859C0, symSize: 0x0 }
  - { offset: 0x64F2B, size: 0x8, addend: 0x0, symName: _.str.123, symObjAddr: 0x1A5F20, symBinAddr: 0x1003859E0, symSize: 0x0 }
  - { offset: 0x64F3C, size: 0x8, addend: 0x0, symName: _.str.124, symObjAddr: 0x1A5F40, symBinAddr: 0x100385A00, symSize: 0x0 }
  - { offset: 0x64F4D, size: 0x8, addend: 0x0, symName: _.str.125, symObjAddr: 0x1A5F60, symBinAddr: 0x100385A20, symSize: 0x0 }
  - { offset: 0x64F5E, size: 0x8, addend: 0x0, symName: _.str.126, symObjAddr: 0x1A5F80, symBinAddr: 0x100385A40, symSize: 0x0 }
  - { offset: 0x64F74, size: 0x8, addend: 0x0, symName: _.str.127, symObjAddr: 0x1A63E0, symBinAddr: 0x100385EA0, symSize: 0x0 }
  - { offset: 0x64F8A, size: 0x8, addend: 0x0, symName: _.str.129, symObjAddr: 0x1A6880, symBinAddr: 0x100386340, symSize: 0x0 }
  - { offset: 0x64F9B, size: 0x8, addend: 0x0, symName: _.str.130, symObjAddr: 0x1A68A0, symBinAddr: 0x100386360, symSize: 0x0 }
  - { offset: 0x64FAC, size: 0x8, addend: 0x0, symName: _.str.131, symObjAddr: 0x1A68E0, symBinAddr: 0x1003863A0, symSize: 0x0 }
  - { offset: 0x64FC9, size: 0x8, addend: 0x0, symName: _.str.132, symObjAddr: 0x1A6940, symBinAddr: 0x100386400, symSize: 0x0 }
  - { offset: 0x64FE6, size: 0x8, addend: 0x0, symName: _.str.133, symObjAddr: 0x1A69A0, symBinAddr: 0x100386460, symSize: 0x0 }
  - { offset: 0x64FF7, size: 0x8, addend: 0x0, symName: _.str.134, symObjAddr: 0x1A69C0, symBinAddr: 0x100386480, symSize: 0x0 }
  - { offset: 0x65008, size: 0x8, addend: 0x0, symName: _.str.135, symObjAddr: 0x1A69E0, symBinAddr: 0x1003864A0, symSize: 0x0 }
  - { offset: 0x6501B, size: 0x8, addend: 0x0, symName: _.str.138, symObjAddr: 0x1A6A20, symBinAddr: 0x1003864E0, symSize: 0x0 }
  - { offset: 0x6502E, size: 0x8, addend: 0x0, symName: _.str.139, symObjAddr: 0x1A6A40, symBinAddr: 0x100386500, symSize: 0x0 }
  - { offset: 0x65041, size: 0x8, addend: 0x0, symName: _.str.140, symObjAddr: 0x1A6A60, symBinAddr: 0x100386520, symSize: 0x0 }
  - { offset: 0x65054, size: 0x8, addend: 0x0, symName: _.str.141, symObjAddr: 0x1A6A80, symBinAddr: 0x100386540, symSize: 0x0 }
  - { offset: 0x65073, size: 0x8, addend: 0x0, symName: _.str.142, symObjAddr: 0x1A6B20, symBinAddr: 0x1003865E0, symSize: 0x0 }
  - { offset: 0x65090, size: 0x8, addend: 0x0, symName: _.str.143, symObjAddr: 0x1A6B40, symBinAddr: 0x100386600, symSize: 0x0 }
  - { offset: 0x650A1, size: 0x8, addend: 0x0, symName: _.str.144, symObjAddr: 0x1A6B60, symBinAddr: 0x100386620, symSize: 0x0 }
  - { offset: 0x650B4, size: 0x8, addend: 0x0, symName: _.str.145, symObjAddr: 0x1A6B80, symBinAddr: 0x100386640, symSize: 0x0 }
  - { offset: 0x650D3, size: 0x8, addend: 0x0, symName: _.str.146, symObjAddr: 0x1A6BA0, symBinAddr: 0x100386660, symSize: 0x0 }
  - { offset: 0x651D0, size: 0x8, addend: 0x0, symName: __ZN7testing8internal11MatcherBaseIRKNSt3__112basic_stringIcNS2_11char_traitsIcEENS2_9allocatorIcEEEEE9GetVTableINSB_11ValuePolicyIPKNS_16MatcherInterfaceISA_EELb1EEEEEPKNSB_6VTableEv, symObjAddr: 0xCB190, symBinAddr: 0x1000CC840, symSize: 0x58 }
  - { offset: 0x651F5, size: 0x8, addend: 0x0, symName: __ZZN7testing8internal11MatcherBaseIRKNSt3__112basic_stringIcNS2_11char_traitsIcEENS2_9allocatorIcEEEEE9GetVTableINSB_11ValuePolicyIPKNS_16MatcherInterfaceISA_EELb1EEEEEPKNSB_6VTableEvE7kVTable, symObjAddr: 0x2D2CC8, symBinAddr: 0x1003AB108, symSize: 0x0 }
  - { offset: 0x65222, size: 0x8, addend: 0x0, symName: _.str.151, symObjAddr: 0x1A6BE0, symBinAddr: 0x1003866A0, symSize: 0x0 }
  - { offset: 0x65241, size: 0x8, addend: 0x0, symName: _.str.152, symObjAddr: 0x1A6C40, symBinAddr: 0x100386700, symSize: 0x0 }
  - { offset: 0x65252, size: 0x8, addend: 0x0, symName: _.str.154, symObjAddr: 0x1A6C60, symBinAddr: 0x100386720, symSize: 0x0 }
  - { offset: 0x65265, size: 0x8, addend: 0x0, symName: _.str.155, symObjAddr: 0x1A6C80, symBinAddr: 0x100386740, symSize: 0x0 }
  - { offset: 0x65278, size: 0x8, addend: 0x0, symName: _.str.157, symObjAddr: 0x1A6CA0, symBinAddr: 0x100386760, symSize: 0x0 }
  - { offset: 0x6528B, size: 0x8, addend: 0x0, symName: _.str.158, symObjAddr: 0x1A6CC0, symBinAddr: 0x100386780, symSize: 0x0 }
  - { offset: 0x6529E, size: 0x8, addend: 0x0, symName: _.str.159, symObjAddr: 0x1A6CE0, symBinAddr: 0x1003867A0, symSize: 0x0 }
  - { offset: 0x652B1, size: 0x8, addend: 0x0, symName: _.str.160, symObjAddr: 0x1A6D00, symBinAddr: 0x1003867C0, symSize: 0x0 }
  - { offset: 0x652C4, size: 0x8, addend: 0x0, symName: _.str.161, symObjAddr: 0x1A6D40, symBinAddr: 0x100386800, symSize: 0x0 }
  - { offset: 0x652D7, size: 0x8, addend: 0x0, symName: _.str.162, symObjAddr: 0x1A6D60, symBinAddr: 0x100386820, symSize: 0x0 }
  - { offset: 0x652EA, size: 0x8, addend: 0x0, symName: _.str.163, symObjAddr: 0x1A6D80, symBinAddr: 0x100386840, symSize: 0x0 }
  - { offset: 0x652FB, size: 0x8, addend: 0x0, symName: _.str.164, symObjAddr: 0x1A6DA0, symBinAddr: 0x100386860, symSize: 0x0 }
  - { offset: 0x6530C, size: 0x8, addend: 0x0, symName: _.str.165, symObjAddr: 0x1A6DC0, symBinAddr: 0x100386880, symSize: 0x0 }
  - { offset: 0x6531D, size: 0x8, addend: 0x0, symName: _.str.166, symObjAddr: 0x1A6DE0, symBinAddr: 0x1003868A0, symSize: 0x0 }
  - { offset: 0x6532E, size: 0x8, addend: 0x0, symName: _.str.167, symObjAddr: 0x1A6E00, symBinAddr: 0x1003868C0, symSize: 0x0 }
  - { offset: 0x6533F, size: 0x8, addend: 0x0, symName: _.str.168, symObjAddr: 0x1A6E20, symBinAddr: 0x1003868E0, symSize: 0x0 }
  - { offset: 0x65350, size: 0x8, addend: 0x0, symName: _.str.169, symObjAddr: 0x1A6E60, symBinAddr: 0x100386920, symSize: 0x0 }
  - { offset: 0x65361, size: 0x8, addend: 0x0, symName: _.str.170, symObjAddr: 0x1A6E80, symBinAddr: 0x100386940, symSize: 0x0 }
  - { offset: 0x65372, size: 0x8, addend: 0x0, symName: _.str.171, symObjAddr: 0x1A6EA0, symBinAddr: 0x100386960, symSize: 0x0 }
  - { offset: 0x65383, size: 0x8, addend: 0x0, symName: _.str.172, symObjAddr: 0x1A6EC0, symBinAddr: 0x100386980, symSize: 0x0 }
  - { offset: 0x65394, size: 0x8, addend: 0x0, symName: _.str.173, symObjAddr: 0x1A6EE0, symBinAddr: 0x1003869A0, symSize: 0x0 }
  - { offset: 0x653A5, size: 0x8, addend: 0x0, symName: _.str.174, symObjAddr: 0x1A6F00, symBinAddr: 0x1003869C0, symSize: 0x0 }
  - { offset: 0x653B6, size: 0x8, addend: 0x0, symName: _.str.175, symObjAddr: 0x1A6F20, symBinAddr: 0x1003869E0, symSize: 0x0 }
  - { offset: 0x653D3, size: 0x8, addend: 0x0, symName: _.str.176, symObjAddr: 0x1A6F60, symBinAddr: 0x100386A20, symSize: 0x0 }
  - { offset: 0x653E4, size: 0x8, addend: 0x0, symName: _.str.177, symObjAddr: 0x1A6F80, symBinAddr: 0x100386A40, symSize: 0x0 }
  - { offset: 0x653F5, size: 0x8, addend: 0x0, symName: _.str.178, symObjAddr: 0x1A6FA0, symBinAddr: 0x100386A60, symSize: 0x0 }
  - { offset: 0x65406, size: 0x8, addend: 0x0, symName: _.str.179, symObjAddr: 0x1A6FC0, symBinAddr: 0x100386A80, symSize: 0x0 }
  - { offset: 0x65417, size: 0x8, addend: 0x0, symName: _.str.180, symObjAddr: 0x1A6FE0, symBinAddr: 0x100386AA0, symSize: 0x0 }
  - { offset: 0x65428, size: 0x8, addend: 0x0, symName: _.str.181, symObjAddr: 0x1A7020, symBinAddr: 0x100386AE0, symSize: 0x0 }
  - { offset: 0x65439, size: 0x8, addend: 0x0, symName: _.str.182, symObjAddr: 0x1A7040, symBinAddr: 0x100386B00, symSize: 0x0 }
  - { offset: 0x6544A, size: 0x8, addend: 0x0, symName: _.str.183, symObjAddr: 0x1A7060, symBinAddr: 0x100386B20, symSize: 0x0 }
  - { offset: 0x6545B, size: 0x8, addend: 0x0, symName: _.str.184, symObjAddr: 0x1A7080, symBinAddr: 0x100386B40, symSize: 0x0 }
  - { offset: 0x6546C, size: 0x8, addend: 0x0, symName: _.str.185, symObjAddr: 0x1A70A0, symBinAddr: 0x100386B60, symSize: 0x0 }
  - { offset: 0x6547D, size: 0x8, addend: 0x0, symName: _.str.186, symObjAddr: 0x1A70E0, symBinAddr: 0x100386BA0, symSize: 0x0 }
  - { offset: 0x6548E, size: 0x8, addend: 0x0, symName: _.str.187, symObjAddr: 0x1A7100, symBinAddr: 0x100386BC0, symSize: 0x0 }
  - { offset: 0x6549F, size: 0x8, addend: 0x0, symName: _.str.188, symObjAddr: 0x1A7120, symBinAddr: 0x100386BE0, symSize: 0x0 }
  - { offset: 0x654B0, size: 0x8, addend: 0x0, symName: _.str.189, symObjAddr: 0x1A7140, symBinAddr: 0x100386C00, symSize: 0x0 }
  - { offset: 0x654C1, size: 0x8, addend: 0x0, symName: _.str.190, symObjAddr: 0x1A7180, symBinAddr: 0x100386C40, symSize: 0x0 }
  - { offset: 0x654D2, size: 0x8, addend: 0x0, symName: _.str.191, symObjAddr: 0x1A71A0, symBinAddr: 0x100386C60, symSize: 0x0 }
  - { offset: 0x654E3, size: 0x8, addend: 0x0, symName: _.str.192, symObjAddr: 0x1A71C0, symBinAddr: 0x100386C80, symSize: 0x0 }
  - { offset: 0x654F4, size: 0x8, addend: 0x0, symName: _.str.193, symObjAddr: 0x1A7200, symBinAddr: 0x100386CC0, symSize: 0x0 }
  - { offset: 0x65513, size: 0x8, addend: 0x0, symName: _.str.194, symObjAddr: 0x1A7400, symBinAddr: 0x100386EC0, symSize: 0x0 }
  - { offset: 0x65524, size: 0x8, addend: 0x0, symName: _.str.195, symObjAddr: 0x1A7420, symBinAddr: 0x100386EE0, symSize: 0x0 }
  - { offset: 0x65535, size: 0x8, addend: 0x0, symName: _.str.196, symObjAddr: 0x1A7440, symBinAddr: 0x100386F00, symSize: 0x0 }
  - { offset: 0x65546, size: 0x8, addend: 0x0, symName: _.str.197, symObjAddr: 0x1A7460, symBinAddr: 0x100386F20, symSize: 0x0 }
  - { offset: 0x65557, size: 0x8, addend: 0x0, symName: _.str.198, symObjAddr: 0x1A7480, symBinAddr: 0x100386F40, symSize: 0x0 }
  - { offset: 0x65568, size: 0x8, addend: 0x0, symName: _.str.199, symObjAddr: 0x1A74A0, symBinAddr: 0x100386F60, symSize: 0x0 }
  - { offset: 0x65579, size: 0x8, addend: 0x0, symName: _.str.200, symObjAddr: 0x1A74C0, symBinAddr: 0x100386F80, symSize: 0x0 }
  - { offset: 0x6558A, size: 0x8, addend: 0x0, symName: _.str.201, symObjAddr: 0x1A74E0, symBinAddr: 0x100386FA0, symSize: 0x0 }
  - { offset: 0x6559B, size: 0x8, addend: 0x0, symName: _.str.202, symObjAddr: 0x1A7500, symBinAddr: 0x100386FC0, symSize: 0x0 }
  - { offset: 0x655AC, size: 0x8, addend: 0x0, symName: _.str.203, symObjAddr: 0x1A7520, symBinAddr: 0x100386FE0, symSize: 0x0 }
  - { offset: 0x655BD, size: 0x8, addend: 0x0, symName: _.str.204, symObjAddr: 0x1A7540, symBinAddr: 0x100387000, symSize: 0x0 }
  - { offset: 0x655CE, size: 0x8, addend: 0x0, symName: _.str.205, symObjAddr: 0x1A7560, symBinAddr: 0x100387020, symSize: 0x0 }
  - { offset: 0x655DF, size: 0x8, addend: 0x0, symName: _.str.206, symObjAddr: 0x1A7580, symBinAddr: 0x100387040, symSize: 0x0 }
  - { offset: 0x655F0, size: 0x8, addend: 0x0, symName: _.str.207, symObjAddr: 0x1A75A0, symBinAddr: 0x100387060, symSize: 0x0 }
  - { offset: 0x65601, size: 0x8, addend: 0x0, symName: _.str.208, symObjAddr: 0x1A75C0, symBinAddr: 0x100387080, symSize: 0x0 }
  - { offset: 0x65612, size: 0x8, addend: 0x0, symName: _.str.209, symObjAddr: 0x1A75E0, symBinAddr: 0x1003870A0, symSize: 0x0 }
  - { offset: 0x65623, size: 0x8, addend: 0x0, symName: _.str.210, symObjAddr: 0x1A7600, symBinAddr: 0x1003870C0, symSize: 0x0 }
  - { offset: 0x65634, size: 0x8, addend: 0x0, symName: _.str.211, symObjAddr: 0x1A7620, symBinAddr: 0x1003870E0, symSize: 0x0 }
  - { offset: 0x65645, size: 0x8, addend: 0x0, symName: _.str.212, symObjAddr: 0x1A7640, symBinAddr: 0x100387100, symSize: 0x0 }
  - { offset: 0x65656, size: 0x8, addend: 0x0, symName: _.str.213, symObjAddr: 0x1A7660, symBinAddr: 0x100387120, symSize: 0x0 }
  - { offset: 0x65667, size: 0x8, addend: 0x0, symName: _.str.214, symObjAddr: 0x1A7680, symBinAddr: 0x100387140, symSize: 0x0 }
  - { offset: 0x65678, size: 0x8, addend: 0x0, symName: _.str.215, symObjAddr: 0x1A76A0, symBinAddr: 0x100387160, symSize: 0x0 }
  - { offset: 0x65689, size: 0x8, addend: 0x0, symName: _.str.216, symObjAddr: 0x1A76C0, symBinAddr: 0x100387180, symSize: 0x0 }
  - { offset: 0x6569A, size: 0x8, addend: 0x0, symName: _.str.217, symObjAddr: 0x1A76E0, symBinAddr: 0x1003871A0, symSize: 0x0 }
  - { offset: 0x656AB, size: 0x8, addend: 0x0, symName: _.str.218, symObjAddr: 0x1A7700, symBinAddr: 0x1003871C0, symSize: 0x0 }
  - { offset: 0x656BC, size: 0x8, addend: 0x0, symName: _.str.219, symObjAddr: 0x1A7720, symBinAddr: 0x1003871E0, symSize: 0x0 }
  - { offset: 0x656CD, size: 0x8, addend: 0x0, symName: _.str.220, symObjAddr: 0x1A7740, symBinAddr: 0x100387200, symSize: 0x0 }
  - { offset: 0x656DE, size: 0x8, addend: 0x0, symName: _.str.221, symObjAddr: 0x1A7760, symBinAddr: 0x100387220, symSize: 0x0 }
  - { offset: 0x656EF, size: 0x8, addend: 0x0, symName: _.str.222, symObjAddr: 0x1A7780, symBinAddr: 0x100387240, symSize: 0x0 }
  - { offset: 0x65700, size: 0x8, addend: 0x0, symName: _.str.223, symObjAddr: 0x1A77A0, symBinAddr: 0x100387260, symSize: 0x0 }
  - { offset: 0x65711, size: 0x8, addend: 0x0, symName: _.str.224, symObjAddr: 0x1A77C0, symBinAddr: 0x100387280, symSize: 0x0 }
  - { offset: 0x65722, size: 0x8, addend: 0x0, symName: _.str.225, symObjAddr: 0x1A77E0, symBinAddr: 0x1003872A0, symSize: 0x0 }
  - { offset: 0x65733, size: 0x8, addend: 0x0, symName: _.str.226, symObjAddr: 0x1A7800, symBinAddr: 0x1003872C0, symSize: 0x0 }
  - { offset: 0x65744, size: 0x8, addend: 0x0, symName: _.str.227, symObjAddr: 0x1A7820, symBinAddr: 0x1003872E0, symSize: 0x0 }
  - { offset: 0x65755, size: 0x8, addend: 0x0, symName: _.str.228, symObjAddr: 0x1A7A20, symBinAddr: 0x1003874E0, symSize: 0x0 }
  - { offset: 0x6576B, size: 0x8, addend: 0x0, symName: _.str.229, symObjAddr: 0x1A7E80, symBinAddr: 0x100387940, symSize: 0x0 }
  - { offset: 0x6577C, size: 0x8, addend: 0x0, symName: _.str.230, symObjAddr: 0x1A7EA0, symBinAddr: 0x100387960, symSize: 0x0 }
  - { offset: 0x6578D, size: 0x8, addend: 0x0, symName: _.str.231, symObjAddr: 0x1A7EC0, symBinAddr: 0x100387980, symSize: 0x0 }
  - { offset: 0x6579E, size: 0x8, addend: 0x0, symName: _.str.232, symObjAddr: 0x1A7EE0, symBinAddr: 0x1003879A0, symSize: 0x0 }
  - { offset: 0x657BB, size: 0x8, addend: 0x0, symName: _.str.233, symObjAddr: 0x1A7F40, symBinAddr: 0x100387A00, symSize: 0x0 }
  - { offset: 0x657CC, size: 0x8, addend: 0x0, symName: _.str.234, symObjAddr: 0x1A7FA0, symBinAddr: 0x100387A60, symSize: 0x0 }
  - { offset: 0x657DF, size: 0x8, addend: 0x0, symName: _.str.235, symObjAddr: 0x1A7FC0, symBinAddr: 0x100387A80, symSize: 0x0 }
  - { offset: 0x657FE, size: 0x8, addend: 0x0, symName: _.str.236, symObjAddr: 0x1A8020, symBinAddr: 0x100387AE0, symSize: 0x0 }
  - { offset: 0x6581D, size: 0x8, addend: 0x0, symName: _.str.237, symObjAddr: 0x1A80C0, symBinAddr: 0x100387B80, symSize: 0x0 }
  - { offset: 0x65830, size: 0x8, addend: 0x0, symName: _.str.238, symObjAddr: 0x1A80E0, symBinAddr: 0x100387BA0, symSize: 0x0 }
  - { offset: 0x6584F, size: 0x8, addend: 0x0, symName: _.str.243, symObjAddr: 0x1A8180, symBinAddr: 0x100387C40, symSize: 0x0 }
  - { offset: 0x65862, size: 0x8, addend: 0x0, symName: _.str.244, symObjAddr: 0x1A81A0, symBinAddr: 0x100387C60, symSize: 0x0 }
  - { offset: 0x65881, size: 0x8, addend: 0x0, symName: _.str.245, symObjAddr: 0x1A8200, symBinAddr: 0x100387CC0, symSize: 0x0 }
  - { offset: 0x65894, size: 0x8, addend: 0x0, symName: _.str.246, symObjAddr: 0x1A8240, symBinAddr: 0x100387D00, symSize: 0x0 }
  - { offset: 0x658B3, size: 0x8, addend: 0x0, symName: _.str.247, symObjAddr: 0x1A82E0, symBinAddr: 0x100387DA0, symSize: 0x0 }
  - { offset: 0x658C6, size: 0x8, addend: 0x0, symName: _.str.248, symObjAddr: 0x1A8300, symBinAddr: 0x100387DC0, symSize: 0x0 }
  - { offset: 0x658E5, size: 0x8, addend: 0x0, symName: _.str.249, symObjAddr: 0x1A8360, symBinAddr: 0x100387E20, symSize: 0x0 }
  - { offset: 0x658F8, size: 0x8, addend: 0x0, symName: _.str.250, symObjAddr: 0x1A83C0, symBinAddr: 0x100387E80, symSize: 0x0 }
  - { offset: 0x6590B, size: 0x8, addend: 0x0, symName: _.str.251, symObjAddr: 0x1A83E0, symBinAddr: 0x100387EA0, symSize: 0x0 }
  - { offset: 0x6591E, size: 0x8, addend: 0x0, symName: _.str.260, symObjAddr: 0x1A8400, symBinAddr: 0x100387EC0, symSize: 0x0 }
  - { offset: 0x65FE7, size: 0x8, addend: 0x0, symName: __ZNSt3__16vectorINS_10shared_ptrIN7testing8internal26ParameterizedTestSuiteInfoIN12_GLOBAL__N_115CaesarDec_CleanEE8TestInfoEEENS_9allocatorIS9_EEE26__swap_out_circular_bufferERNS_14__split_bufferIS9_RSB_EE, symObjAddr: 0x33D70, symBinAddr: 0x100035420, symSize: 0x6C0 }
  - { offset: 0x66962, size: 0x8, addend: 0x0, symName: __ZNSt3__16vectorINS_10shared_ptrIN7testing8internal26ParameterizedTestSuiteInfoIN12_GLOBAL__N_121CaesarDec_SplitSpacesEE8TestInfoEEENS_9allocatorIS9_EEE26__swap_out_circular_bufferERNS_14__split_bufferIS9_RSB_EE, symObjAddr: 0x54850, symBinAddr: 0x100055F00, symSize: 0x6C0 }
  - { offset: 0x67299, size: 0x8, addend: 0x0, symName: __ZNSt3__16vectorINS_10shared_ptrIN7testing8internal26ParameterizedTestSuiteInfoIN12_GLOBAL__N_124CaesarDec_JoinWithSpacesEE8TestInfoEEENS_9allocatorIS9_EEE26__swap_out_circular_bufferERNS_14__split_bufferIS9_RSB_EE, symObjAddr: 0x78A10, symBinAddr: 0x10007A0C0, symSize: 0x6C0 }
  - { offset: 0x67BC1, size: 0x8, addend: 0x0, symName: __ZNSt3__16vectorINS_10shared_ptrIN7testing8internal26ParameterizedTestSuiteInfoIN12_GLOBAL__N_120CaesarDec_NumWordsInEE8TestInfoEEENS_9allocatorIS9_EEE26__swap_out_circular_bufferERNS_14__split_bufferIS9_RSB_EE, symObjAddr: 0x98B90, symBinAddr: 0x10009A240, symSize: 0x6C0 }
  - { offset: 0x684A7, size: 0x8, addend: 0x0, symName: __ZNSt3__16vectorINS_10shared_ptrIN7testing8internal26ParameterizedTestSuiteInfoIN12_GLOBAL__N_127CaesarDec_CommandCustomDictEE8TestInfoEEENS_9allocatorIS9_EEE26__swap_out_circular_bufferERNS_14__split_bufferIS9_RSB_EE, symObjAddr: 0xB8550, symBinAddr: 0x1000B9C00, symSize: 0x6C0 }
  - { offset: 0x68F20, size: 0x8, addend: 0x0, symName: __ZNSt3__16vectorINS_10shared_ptrIN7testing8internal26ParameterizedTestSuiteInfoIN12_GLOBAL__N_122CaesarDec_MainFullDictEE8TestInfoEEENS_9allocatorIS9_EEE26__swap_out_circular_bufferERNS_14__split_bufferIS9_RSB_EE, symObjAddr: 0xF4C50, symBinAddr: 0x1000F6300, symSize: 0x6C0 }
  - { offset: 0x69B36, size: 0x8, addend: 0x0, symName: __ZNSt3__16vectorIPN7testing8internal30ParameterizedTestSuiteInfoBaseENS_9allocatorIS4_EEE26__swap_out_circular_bufferERNS_14__split_bufferIS4_RS6_EE, symObjAddr: 0x135C50, symBinAddr: 0x100137300, symSize: 0x6C0 }
  - { offset: 0x69B8E, size: 0x8, addend: 0x0, symName: __ZNSt3__16vectorIN7testing8internal26ParameterizedTestSuiteInfoIN12_GLOBAL__N_115CaesarDec_CleanEE17InstantiationInfoENS_9allocatorIS7_EEE26__swap_out_circular_bufferERNS_14__split_bufferIS7_RS9_EE, symObjAddr: 0x13C7F0, symBinAddr: 0x10013DEA0, symSize: 0x6C0 }
  - { offset: 0x69C35, size: 0x8, addend: 0x0, symName: __ZNSt3__16vectorIN7testing8internal26ParameterizedTestSuiteInfoIN12_GLOBAL__N_121CaesarDec_SplitSpacesEE17InstantiationInfoENS_9allocatorIS7_EEE26__swap_out_circular_bufferERNS_14__split_bufferIS7_RS9_EE, symObjAddr: 0x14E330, symBinAddr: 0x10014F9E0, symSize: 0x6C0 }
  - { offset: 0x69CDC, size: 0x8, addend: 0x0, symName: __ZNSt3__16vectorIN7testing8internal26ParameterizedTestSuiteInfoIN12_GLOBAL__N_124CaesarDec_JoinWithSpacesEE17InstantiationInfoENS_9allocatorIS7_EEE26__swap_out_circular_bufferERNS_14__split_bufferIS7_RS9_EE, symObjAddr: 0x15FE70, symBinAddr: 0x100161520, symSize: 0x6C0 }
  - { offset: 0x69D83, size: 0x8, addend: 0x0, symName: __ZNSt3__16vectorIN7testing8internal26ParameterizedTestSuiteInfoIN12_GLOBAL__N_120CaesarDec_NumWordsInEE17InstantiationInfoENS_9allocatorIS7_EEE26__swap_out_circular_bufferERNS_14__split_bufferIS7_RS9_EE, symObjAddr: 0x171AB0, symBinAddr: 0x100173160, symSize: 0x6C0 }
  - { offset: 0x69E2A, size: 0x8, addend: 0x0, symName: __ZNSt3__16vectorIN7testing8internal26ParameterizedTestSuiteInfoIN12_GLOBAL__N_127CaesarDec_CommandCustomDictEE17InstantiationInfoENS_9allocatorIS7_EEE26__swap_out_circular_bufferERNS_14__split_bufferIS7_RS9_EE, symObjAddr: 0x183860, symBinAddr: 0x100184F10, symSize: 0x6C0 }
  - { offset: 0x69ED1, size: 0x8, addend: 0x0, symName: __ZNSt3__16vectorIN7testing8internal26ParameterizedTestSuiteInfoIN12_GLOBAL__N_122CaesarDec_MainFullDictEE17InstantiationInfoENS_9allocatorIS7_EEE26__swap_out_circular_bufferERNS_14__split_bufferIS7_RS9_EE, symObjAddr: 0x1954C0, symBinAddr: 0x100196B70, symSize: 0x6C0 }
  - { offset: 0x69FAD, size: 0x8, addend: 0x0, symName: __ZNSt3__112basic_stringIcNS_11char_traitsIcEENS_9allocatorIcEEEC1B8ne180100ILi0EEEPKc, symObjAddr: 0x0, symBinAddr: 0x1000016B0, symSize: 0x60 }
  - { offset: 0x69FED, size: 0x8, addend: 0x0, symName: __ZN7testing8internal12CodeLocationC1ENSt3__112basic_stringIcNS2_11char_traitsIcEENS2_9allocatorIcEEEEi, symObjAddr: 0x60, symBinAddr: 0x100001710, symSize: 0x78 }
  - { offset: 0x6A03D, size: 0x8, addend: 0x0, symName: __ZN7testing8internal16SuiteApiResolverINS_4TestEE19GetSetUpCaseOrSuiteEPKci, symObjAddr: 0xD8, symBinAddr: 0x100001788, symSize: 0x4E0 }
  - { offset: 0x6A092, size: 0x8, addend: 0x0, symName: __ZN7testing8internal16SuiteApiResolverINS_4TestEE22GetTearDownCaseOrSuiteEPKci, symObjAddr: 0x5B8, symBinAddr: 0x100001C68, symSize: 0x4D8 }
  - { offset: 0x6A0EC, size: 0x8, addend: 0x0, symName: __ZN7testing8internal15TestFactoryImplIN12_GLOBAL__N_127CaesarDec_RotVec_Empty_TestEEC1Ev, symObjAddr: 0xA90, symBinAddr: 0x100002140, symSize: 0x50 }
  - { offset: 0x6A119, size: 0x8, addend: 0x0, symName: __ZN7testing8internal12CodeLocationD1Ev, symObjAddr: 0xAE0, symBinAddr: 0x100002190, symSize: 0x50 }
  - { offset: 0x6A14B, size: 0x8, addend: 0x0, symName: __ZN7testing8internal15TestFactoryImplIN12_GLOBAL__N_129CaesarDec_RotVec_OneElem_TestEEC1Ev, symObjAddr: 0xB30, symBinAddr: 0x1000021E0, symSize: 0x50 }
  - { offset: 0x6A17D, size: 0x8, addend: 0x0, symName: __ZN7testing8internal15TestFactoryImplIN12_GLOBAL__N_135CaesarDec_RotVec_MultipleElems_TestEEC1Ev, symObjAddr: 0xB80, symBinAddr: 0x100002230, symSize: 0x58 }
  - { offset: 0x6A1AA, size: 0x8, addend: 0x0, symName: __ZN12_GLOBAL__N_125CaesarDec_Clean_Case_Test13AddToRegistryEv, symObjAddr: 0xBD8, symBinAddr: 0x100002288, symSize: 0x688 }
  - { offset: 0x6A295, size: 0x8, addend: 0x0, symName: __ZN7testing8internal30ParameterizedTestSuiteRegistry25GetTestSuitePatternHolderIN12_GLOBAL__N_115CaesarDec_CleanEEEPNS0_26ParameterizedTestSuiteInfoIT_EENSt3__112basic_stringIcNS9_11char_traitsIcEENS9_9allocatorIcEEEENS0_12CodeLocationE, symObjAddr: 0x1260, symBinAddr: 0x100002910, symSize: 0xAE0 }
  - { offset: 0x6A328, size: 0x8, addend: 0x0, symName: __ZN7testing8internal26ParameterizedTestSuiteInfoIN12_GLOBAL__N_115CaesarDec_CleanEE25AddTestSuiteInstantiationENSt3__112basic_stringIcNS5_11char_traitsIcEENS5_9allocatorIcEEEEPFNS0_14ParamGeneratorINS5_5tupleIJSB_SB_EEEEEvEPFSB_RKNS_13TestParamInfoISE_EEEPKci, symObjAddr: 0x1D40, symBinAddr: 0x1000033F0, symSize: 0x358 }
  - { offset: 0x6A3AD, size: 0x8, addend: 0x0, symName: __ZN12_GLOBAL__N_131CaesarDec_SplitSpaces_Case_Test13AddToRegistryEv, symObjAddr: 0x2638, symBinAddr: 0x100003CE8, symSize: 0x688 }
  - { offset: 0x6A3C1, size: 0x8, addend: 0x0, symName: __ZN7testing8internal30ParameterizedTestSuiteRegistry25GetTestSuitePatternHolderIN12_GLOBAL__N_121CaesarDec_SplitSpacesEEEPNS0_26ParameterizedTestSuiteInfoIT_EENSt3__112basic_stringIcNS9_11char_traitsIcEENS9_9allocatorIcEEEENS0_12CodeLocationE, symObjAddr: 0x2CC0, symBinAddr: 0x100004370, symSize: 0xAE0 }
  - { offset: 0x6A454, size: 0x8, addend: 0x0, symName: __ZN7testing8internal26ParameterizedTestSuiteInfoIN12_GLOBAL__N_121CaesarDec_SplitSpacesEE25AddTestSuiteInstantiationENSt3__112basic_stringIcNS5_11char_traitsIcEENS5_9allocatorIcEEEEPFNS0_14ParamGeneratorINS5_5tupleIJSB_NS5_6vectorISB_NS9_ISB_EEEEEEEEEvEPFSB_RKNS_13TestParamInfoISH_EEEPKci, symObjAddr: 0x37A0, symBinAddr: 0x100004E50, symSize: 0x358 }
  - { offset: 0x6A4D9, size: 0x8, addend: 0x0, symName: __ZN12_GLOBAL__N_134CaesarDec_JoinWithSpaces_Case_Test13AddToRegistryEv, symObjAddr: 0x70F8, symBinAddr: 0x1000087A8, symSize: 0x688 }
  - { offset: 0x6A4ED, size: 0x8, addend: 0x0, symName: __ZN7testing8internal30ParameterizedTestSuiteRegistry25GetTestSuitePatternHolderIN12_GLOBAL__N_124CaesarDec_JoinWithSpacesEEEPNS0_26ParameterizedTestSuiteInfoIT_EENSt3__112basic_stringIcNS9_11char_traitsIcEENS9_9allocatorIcEEEENS0_12CodeLocationE, symObjAddr: 0x7780, symBinAddr: 0x100008E30, symSize: 0xAE0 }
  - { offset: 0x6A580, size: 0x8, addend: 0x0, symName: __ZN7testing8internal26ParameterizedTestSuiteInfoIN12_GLOBAL__N_124CaesarDec_JoinWithSpacesEE25AddTestSuiteInstantiationENSt3__112basic_stringIcNS5_11char_traitsIcEENS5_9allocatorIcEEEEPFNS0_14ParamGeneratorINS5_5tupleIJNS5_6vectorISB_NS9_ISB_EEEESB_EEEEEvEPFSB_RKNS_13TestParamInfoISH_EEEPKci, symObjAddr: 0x8260, symBinAddr: 0x100009910, symSize: 0x358 }
  - { offset: 0x6A605, size: 0x8, addend: 0x0, symName: __ZN12_GLOBAL__N_130CaesarDec_NumWordsIn_Case_Test13AddToRegistryEv, symObjAddr: 0xA448, symBinAddr: 0x10000BAF8, symSize: 0x688 }
  - { offset: 0x6A619, size: 0x8, addend: 0x0, symName: __ZN7testing8internal30ParameterizedTestSuiteRegistry25GetTestSuitePatternHolderIN12_GLOBAL__N_120CaesarDec_NumWordsInEEEPNS0_26ParameterizedTestSuiteInfoIT_EENSt3__112basic_stringIcNS9_11char_traitsIcEENS9_9allocatorIcEEEENS0_12CodeLocationE, symObjAddr: 0xAAD0, symBinAddr: 0x10000C180, symSize: 0xAE0 }
  - { offset: 0x6A6AC, size: 0x8, addend: 0x0, symName: __ZN7testing8internal26ParameterizedTestSuiteInfoIN12_GLOBAL__N_120CaesarDec_NumWordsInEE25AddTestSuiteInstantiationENSt3__112basic_stringIcNS5_11char_traitsIcEENS5_9allocatorIcEEEEPFNS0_14ParamGeneratorINS5_5tupleIJNS5_6vectorISB_NS9_ISB_EEEESG_iEEEEEvEPFSB_RKNS_13TestParamInfoISH_EEEPKci, symObjAddr: 0xB5B0, symBinAddr: 0x10000CC60, symSize: 0x358 }
  - { offset: 0x6A731, size: 0x8, addend: 0x0, symName: __ZN12_GLOBAL__N_137CaesarDec_CommandCustomDict_Case_Test13AddToRegistryEv, symObjAddr: 0xE1F8, symBinAddr: 0x10000F8A8, symSize: 0x688 }
  - { offset: 0x6A745, size: 0x8, addend: 0x0, symName: __ZN7testing8internal30ParameterizedTestSuiteRegistry25GetTestSuitePatternHolderIN12_GLOBAL__N_127CaesarDec_CommandCustomDictEEEPNS0_26ParameterizedTestSuiteInfoIT_EENSt3__112basic_stringIcNS9_11char_traitsIcEENS9_9allocatorIcEEEENS0_12CodeLocationE, symObjAddr: 0xE880, symBinAddr: 0x10000FF30, symSize: 0xAE0 }
  - { offset: 0x6A7D8, size: 0x8, addend: 0x0, symName: __ZN7testing8internal26ParameterizedTestSuiteInfoIN12_GLOBAL__N_127CaesarDec_CommandCustomDictEE25AddTestSuiteInstantiationENSt3__112basic_stringIcNS5_11char_traitsIcEENS5_9allocatorIcEEEEPFNS0_14ParamGeneratorINS5_5tupleIJSB_NS5_6vectorISB_NS9_ISB_EEEESB_SB_EEEEEvEPFSB_RKNS_13TestParamInfoISH_EEEPKci, symObjAddr: 0xF360, symBinAddr: 0x100010A10, symSize: 0x358 }
  - { offset: 0x6A85D, size: 0x8, addend: 0x0, symName: __ZN12_GLOBAL__N_132CaesarDec_MainFullDict_Case_Test13AddToRegistryEv, symObjAddr: 0x14FA8, symBinAddr: 0x100016658, symSize: 0x688 }
  - { offset: 0x6A871, size: 0x8, addend: 0x0, symName: __ZN7testing8internal30ParameterizedTestSuiteRegistry25GetTestSuitePatternHolderIN12_GLOBAL__N_122CaesarDec_MainFullDictEEEPNS0_26ParameterizedTestSuiteInfoIT_EENSt3__112basic_stringIcNS9_11char_traitsIcEENS9_9allocatorIcEEEENS0_12CodeLocationE, symObjAddr: 0x15630, symBinAddr: 0x100016CE0, symSize: 0xAE0 }
  - { offset: 0x6A904, size: 0x8, addend: 0x0, symName: __ZN7testing8internal26ParameterizedTestSuiteInfoIN12_GLOBAL__N_122CaesarDec_MainFullDictEE25AddTestSuiteInstantiationENSt3__112basic_stringIcNS5_11char_traitsIcEENS5_9allocatorIcEEEEPFNS0_14ParamGeneratorINS5_5tupleIJSB_SB_SB_EEEEEvEPFSB_RKNS_13TestParamInfoISE_EEEPKci, symObjAddr: 0x16110, symBinAddr: 0x1000177C0, symSize: 0x358 }
  - { offset: 0x6A989, size: 0x8, addend: 0x0, symName: __ZNSt3__112basic_stringIcNS_11char_traitsIcEENS_9allocatorIcEEEC2B8ne180100ILi0EEEPKc, symObjAddr: 0x16A80, symBinAddr: 0x100018130, symSize: 0x1C0 }
  - { offset: 0x6A9D1, size: 0x8, addend: 0x0, symName: __ZNSt3__117__compressed_pairINS_12basic_stringIcNS_11char_traitsIcEENS_9allocatorIcEEE5__repES5_EC1B8ne180100INS_18__default_init_tagESA_EEOT_OT0_, symObjAddr: 0x16C40, symBinAddr: 0x1000182F0, symSize: 0x68 }
  - { offset: 0x6AA29, size: 0x8, addend: 0x0, symName: __ZNSt3__111char_traitsIcE6lengthB8ne180100EPKc, symObjAddr: 0x16CA8, symBinAddr: 0x100018358, symSize: 0x48 }
  - { offset: 0x6AA4C, size: 0x8, addend: 0x0, symName: __ZNSt3__117__compressed_pairINS_12basic_stringIcNS_11char_traitsIcEENS_9allocatorIcEEE5__repES5_EC2B8ne180100INS_18__default_init_tagESA_EEOT_OT0_, symObjAddr: 0x16CF0, symBinAddr: 0x1000183A0, symSize: 0xB0 }
  - { offset: 0x6AAA4, size: 0x8, addend: 0x0, symName: __ZNSt3__122__compressed_pair_elemINS_12basic_stringIcNS_11char_traitsIcEENS_9allocatorIcEEE5__repELi0ELb0EEC2B8ne180100ENS_18__default_init_tagE, symObjAddr: 0x16DA0, symBinAddr: 0x100018450, symSize: 0x50 }
  - { offset: 0x6AAD9, size: 0x8, addend: 0x0, symName: __ZNSt3__122__compressed_pair_elemINS_9allocatorIcEELi1ELb1EEC2B8ne180100ENS_18__default_init_tagE, symObjAddr: 0x16DF0, symBinAddr: 0x1000184A0, symSize: 0x60 }
  - { offset: 0x6AB0E, size: 0x8, addend: 0x0, symName: __ZNSt3__19allocatorIcEC2B8ne180100Ev, symObjAddr: 0x16E50, symBinAddr: 0x100018500, symSize: 0x60 }
  - { offset: 0x6AB38, size: 0x8, addend: 0x0, symName: __ZNSt3__116__non_trivial_ifILb1ENS_9allocatorIcEEEC2B8ne180100Ev, symObjAddr: 0x16EB0, symBinAddr: 0x100018560, symSize: 0x48 }
  - { offset: 0x6AB62, size: 0x8, addend: 0x0, symName: __ZN7testing8internal12CodeLocationC2ENSt3__112basic_stringIcNS2_11char_traitsIcEENS2_9allocatorIcEEEEi, symObjAddr: 0x16F30, symBinAddr: 0x1000185E0, symSize: 0xF0 }
  - { offset: 0x6ABAB, size: 0x8, addend: 0x0, symName: __ZNSt3__112basic_stringIcNS_11char_traitsIcEENS_9allocatorIcEEEC1B8ne180100EOS5_, symObjAddr: 0x17020, symBinAddr: 0x1000186D0, symSize: 0x60 }
  - { offset: 0x6ABE4, size: 0x8, addend: 0x0, symName: __ZNSt3__112basic_stringIcNS_11char_traitsIcEENS_9allocatorIcEEEC2B8ne180100EOS5_, symObjAddr: 0x17080, symBinAddr: 0x100018730, symSize: 0x2D0 }
  - { offset: 0x6AC50, size: 0x8, addend: 0x0, symName: __ZZNSt3__112basic_stringIcNS_11char_traitsIcEENS_9allocatorIcEEEC1B8ne180100EOS5_ENKUlRS5_E_clES7_, symObjAddr: 0x17350, symBinAddr: 0x100018A00, symSize: 0xD0 }
  - { offset: 0x6AC89, size: 0x8, addend: 0x0, symName: __ZNSt3__117__compressed_pairINS_12basic_stringIcNS_11char_traitsIcEENS_9allocatorIcEEE5__repES5_E5firstB8ne180100Ev, symObjAddr: 0x17420, symBinAddr: 0x100018AD0, symSize: 0xE0 }
  - { offset: 0x6ACAF, size: 0x8, addend: 0x0, symName: __ZNKSt3__112basic_stringIcNS_11char_traitsIcEENS_9allocatorIcEEE14__annotate_newB8ne180100Em, symObjAddr: 0x17500, symBinAddr: 0x100018BB0, symSize: 0x50 }
  - { offset: 0x6ACE4, size: 0x8, addend: 0x0, symName: __ZNKSt3__112basic_stringIcNS_11char_traitsIcEENS_9allocatorIcEEE9__is_longB8ne180100Ev, symObjAddr: 0x17550, symBinAddr: 0x100018C00, symSize: 0x1A0 }
  - { offset: 0x6AD0A, size: 0x8, addend: 0x0, symName: __ZNKSt3__112basic_stringIcNS_11char_traitsIcEENS_9allocatorIcEEE4sizeB8ne180100Ev, symObjAddr: 0x176F0, symBinAddr: 0x100018DA0, symSize: 0x80 }
  - { offset: 0x6AD30, size: 0x8, addend: 0x0, symName: __ZNKSt3__112basic_stringIcNS_11char_traitsIcEENS_9allocatorIcEEE17__annotate_deleteB8ne180100Ev, symObjAddr: 0x17770, symBinAddr: 0x100018E20, symSize: 0x50 }
  - { offset: 0x6AD56, size: 0x8, addend: 0x0, symName: __ZNSt3__122__compressed_pair_elemINS_12basic_stringIcNS_11char_traitsIcEENS_9allocatorIcEEE5__repELi0ELb0EE5__getB8ne180100Ev, symObjAddr: 0x177C0, symBinAddr: 0x100018E70, symSize: 0x80 }
  - { offset: 0x6AD7C, size: 0x8, addend: 0x0, symName: __ZNKSt3__117__compressed_pairINS_12basic_stringIcNS_11char_traitsIcEENS_9allocatorIcEEE5__repES5_E5firstB8ne180100Ev, symObjAddr: 0x17840, symBinAddr: 0x100018EF0, symSize: 0xE0 }
  - { offset: 0x6ADA2, size: 0x8, addend: 0x0, symName: __ZNKSt3__122__compressed_pair_elemINS_12basic_stringIcNS_11char_traitsIcEENS_9allocatorIcEEE5__repELi0ELb0EE5__getB8ne180100Ev, symObjAddr: 0x17920, symBinAddr: 0x100018FD0, symSize: 0x80 }
  - { offset: 0x6ADC8, size: 0x8, addend: 0x0, symName: __ZNKSt3__112basic_stringIcNS_11char_traitsIcEENS_9allocatorIcEEE15__get_long_sizeB8ne180100Ev, symObjAddr: 0x179A0, symBinAddr: 0x100019050, symSize: 0x180 }
  - { offset: 0x6ADEE, size: 0x8, addend: 0x0, symName: __ZNKSt3__112basic_stringIcNS_11char_traitsIcEENS_9allocatorIcEEE16__get_short_sizeB8ne180100Ev, symObjAddr: 0x17B20, symBinAddr: 0x1000191D0, symSize: 0x190 }
  - { offset: 0x6AE14, size: 0x8, addend: 0x0, symName: __ZN7testing8internal15TestFactoryImplIN12_GLOBAL__N_127CaesarDec_RotVec_Empty_TestEEC2Ev, symObjAddr: 0x17CB0, symBinAddr: 0x100019360, symSize: 0xC0 }
  - { offset: 0x6AE41, size: 0x8, addend: 0x0, symName: __ZN7testing8internal15TestFactoryBaseC2Ev, symObjAddr: 0x17D70, symBinAddr: 0x100019420, symSize: 0x90 }
  - { offset: 0x6AE6B, size: 0x8, addend: 0x0, symName: __ZN7testing8internal15TestFactoryImplIN12_GLOBAL__N_127CaesarDec_RotVec_Empty_TestEED1Ev, symObjAddr: 0x17E00, symBinAddr: 0x1000194B0, symSize: 0x50 }
  - { offset: 0x6AE98, size: 0x8, addend: 0x0, symName: __ZN7testing8internal15TestFactoryImplIN12_GLOBAL__N_127CaesarDec_RotVec_Empty_TestEED0Ev, symObjAddr: 0x17E50, symBinAddr: 0x100019500, symSize: 0x60 }
  - { offset: 0x6AEC5, size: 0x8, addend: 0x0, symName: __ZN7testing8internal15TestFactoryImplIN12_GLOBAL__N_127CaesarDec_RotVec_Empty_TestEE10CreateTestEv, symObjAddr: 0x17EB0, symBinAddr: 0x100019560, symSize: 0xF0 }
  - { offset: 0x6AEEB, size: 0x8, addend: 0x0, symName: __ZN7testing8internal15TestFactoryBaseD1Ev, symObjAddr: 0x17FA0, symBinAddr: 0x100019650, symSize: 0x50 }
  - { offset: 0x6AF15, size: 0x8, addend: 0x0, symName: __ZN7testing8internal15TestFactoryBaseD0Ev, symObjAddr: 0x17FF0, symBinAddr: 0x1000196A0, symSize: 0x50 }
  - { offset: 0x6AF3F, size: 0x8, addend: 0x0, symName: __ZN7testing8internal15TestFactoryImplIN12_GLOBAL__N_127CaesarDec_RotVec_Empty_TestEED2Ev, symObjAddr: 0x18040, symBinAddr: 0x1000196F0, symSize: 0x50 }
  - { offset: 0x6AF6C, size: 0x8, addend: 0x0, symName: __ZN7testing8internal15TestFactoryBaseD2Ev, symObjAddr: 0x18090, symBinAddr: 0x100019740, symSize: 0x50 }
  - { offset: 0x6AF96, size: 0x8, addend: 0x0, symName: __ZN12_GLOBAL__N_127CaesarDec_RotVec_Empty_TestC1Ev, symObjAddr: 0x180E0, symBinAddr: 0x100019790, symSize: 0x50 }
  - { offset: 0x6AFC0, size: 0x8, addend: 0x0, symName: __ZN12_GLOBAL__N_127CaesarDec_RotVec_Empty_TestC2Ev, symObjAddr: 0x18130, symBinAddr: 0x1000197E0, symSize: 0xC0 }
  - { offset: 0x6AFEA, size: 0x8, addend: 0x0, symName: __ZN12_GLOBAL__N_127CaesarDec_RotVec_Empty_TestD1Ev, symObjAddr: 0x181F0, symBinAddr: 0x1000198A0, symSize: 0x50 }
  - { offset: 0x6B014, size: 0x8, addend: 0x0, symName: __ZN12_GLOBAL__N_127CaesarDec_RotVec_Empty_TestD0Ev, symObjAddr: 0x18240, symBinAddr: 0x1000198F0, symSize: 0x60 }
  - { offset: 0x6B03E, size: 0x8, addend: 0x0, symName: __ZN12_GLOBAL__N_127CaesarDec_RotVec_Empty_Test8TestBodyEv, symObjAddr: 0x182A0, symBinAddr: 0x100019950, symSize: 0x560 }
  - { offset: 0x6B0A2, size: 0x8, addend: 0x0, symName: __ZN7testing4Test5SetupEv, symObjAddr: 0x18800, symBinAddr: 0x100019EB0, symSize: 0x50 }
  - { offset: 0x6B0C8, size: 0x8, addend: 0x0, symName: __ZN12_GLOBAL__N_127CaesarDec_RotVec_Empty_TestD2Ev, symObjAddr: 0x18850, symBinAddr: 0x100019F00, symSize: 0x50 }
  - { offset: 0x6B0F2, size: 0x8, addend: 0x0, symName: __ZNSt3__16vectorINS_12basic_stringIcNS_11char_traitsIcEENS_9allocatorIcEEEENS4_IS6_EEEC1B8ne180100Ev, symObjAddr: 0x188A0, symBinAddr: 0x100019F50, symSize: 0x58 }
  - { offset: 0x6B38F, size: 0x8, addend: 0x0, symName: __ZN7testing8internal8EqHelper7CompareINSt3__16vectorINS3_12basic_stringIcNS3_11char_traitsIcEENS3_9allocatorIcEEEENS8_ISA_EEEESC_TnPNS3_9enable_ifIXoontsr3std11is_integralIT_EE5valuentsr3std10is_pointerIT0_EE5valueEvE4typeELPv0EEENS_15AssertionResultEPKcSM_RKSE_RKSF_, symObjAddr: 0x188F8, symBinAddr: 0x100019FA8, symSize: 0xC8 }
  - { offset: 0x6B3F8, size: 0x8, addend: 0x0, symName: __ZNK7testing15AssertionResultcvbEv, symObjAddr: 0x189C0, symBinAddr: 0x10001A070, symSize: 0xC0 }
  - { offset: 0x6B41E, size: 0x8, addend: 0x0, symName: __ZNK7testing15AssertionResult15failure_messageEv, symObjAddr: 0x18A80, symBinAddr: 0x10001A130, symSize: 0x50 }
  - { offset: 0x6B444, size: 0x8, addend: 0x0, symName: __ZN7testing7MessageD1Ev, symObjAddr: 0x18AD0, symBinAddr: 0x10001A180, symSize: 0x50 }
  - { offset: 0x6B470, size: 0x8, addend: 0x0, symName: __ZN7testing15AssertionResultD1Ev, symObjAddr: 0x18B20, symBinAddr: 0x10001A1D0, symSize: 0x50 }
  - { offset: 0x6B49C, size: 0x8, addend: 0x0, symName: __ZNSt3__16vectorINS_12basic_stringIcNS_11char_traitsIcEENS_9allocatorIcEEEENS4_IS6_EEED1B8ne180100Ev, symObjAddr: 0x18B70, symBinAddr: 0x10001A220, symSize: 0x50 }
  - { offset: 0x6B4C6, size: 0x8, addend: 0x0, symName: __ZNSt3__16vectorINS_12basic_stringIcNS_11char_traitsIcEENS_9allocatorIcEEEENS4_IS6_EEEC2B8ne180100Ev, symObjAddr: 0x18BC0, symBinAddr: 0x10001A270, symSize: 0x240 }
  - { offset: 0x6B4F7, size: 0x8, addend: 0x0, symName: __ZNSt3__117__compressed_pairIPNS_12basic_stringIcNS_11char_traitsIcEENS_9allocatorIcEEEENS4_IS6_EEEC1B8ne180100IDnNS_18__default_init_tagEEEOT_OT0_, symObjAddr: 0x18E00, symBinAddr: 0x10001A4B0, symSize: 0x60 }
  - { offset: 0x6B54F, size: 0x8, addend: 0x0, symName: __ZNSt3__117__compressed_pairIPNS_12basic_stringIcNS_11char_traitsIcEENS_9allocatorIcEEEENS4_IS6_EEEC2B8ne180100IDnNS_18__default_init_tagEEEOT_OT0_, symObjAddr: 0x18E60, symBinAddr: 0x10001A510, symSize: 0xF0 }
  - { offset: 0x6B5A7, size: 0x8, addend: 0x0, symName: __ZNSt3__122__compressed_pair_elemIPNS_12basic_stringIcNS_11char_traitsIcEENS_9allocatorIcEEEELi0ELb0EEC2B8ne180100IDnvEEOT_, symObjAddr: 0x18F50, symBinAddr: 0x10001A600, symSize: 0x80 }
  - { offset: 0x6B5E9, size: 0x8, addend: 0x0, symName: __ZNSt3__122__compressed_pair_elemINS_9allocatorINS_12basic_stringIcNS_11char_traitsIcEENS1_IcEEEEEELi1ELb1EEC2B8ne180100ENS_18__default_init_tagE, symObjAddr: 0x18FD0, symBinAddr: 0x10001A680, symSize: 0x60 }
  - { offset: 0x6B61E, size: 0x8, addend: 0x0, symName: __ZNSt3__19allocatorINS_12basic_stringIcNS_11char_traitsIcEENS0_IcEEEEEC2B8ne180100Ev, symObjAddr: 0x19030, symBinAddr: 0x10001A6E0, symSize: 0x60 }
  - { offset: 0x6B648, size: 0x8, addend: 0x0, symName: __ZNSt3__116__non_trivial_ifILb1ENS_9allocatorINS_12basic_stringIcNS_11char_traitsIcEENS1_IcEEEEEEEC2B8ne180100Ev, symObjAddr: 0x19090, symBinAddr: 0x10001A740, symSize: 0x48 }
  - { offset: 0x6B672, size: 0x8, addend: 0x0, symName: __ZNKSt3__16vectorINS_12basic_stringIcNS_11char_traitsIcEENS_9allocatorIcEEEENS4_IS6_EEE4sizeB8ne180100Ev, symObjAddr: 0x197E0, symBinAddr: 0x10001AE90, symSize: 0xD8 }
  - { offset: 0x6B698, size: 0x8, addend: 0x0, symName: __ZNKSt3__16vectorINS_12basic_stringIcNS_11char_traitsIcEENS_9allocatorIcEEEENS4_IS6_EEE5beginB8ne180100Ev, symObjAddr: 0x19920, symBinAddr: 0x10001AFD0, symSize: 0x90 }
  - { offset: 0x6B6C0, size: 0x8, addend: 0x0, symName: __ZNKSt3__16vectorINS_12basic_stringIcNS_11char_traitsIcEENS_9allocatorIcEEEENS4_IS6_EEE3endB8ne180100Ev, symObjAddr: 0x199B0, symBinAddr: 0x10001B060, symSize: 0x98 }
  - { offset: 0x6B6F2, size: 0x8, addend: 0x0, symName: __ZNKSt3__110__equal_toclB8ne180100INS_12basic_stringIcNS_11char_traitsIcEENS_9allocatorIcEEEES7_EEbRKT_RKT0_, symObjAddr: 0x19E10, symBinAddr: 0x10001B4C0, symSize: 0xC8 }
  - { offset: 0x6B746, size: 0x8, addend: 0x0, symName: __ZNKSt3__112basic_stringIcNS_11char_traitsIcEENS_9allocatorIcEEE4dataB8ne180100Ev, symObjAddr: 0x1A250, symBinAddr: 0x10001B900, symSize: 0x68 }
  - { offset: 0x6B76C, size: 0x8, addend: 0x0, symName: __ZNSt3__111char_traitsIcE7compareB8ne180100EPKcS3_m, symObjAddr: 0x1A2B8, symBinAddr: 0x10001B968, symSize: 0x40 }
  - { offset: 0x6B7AB, size: 0x8, addend: 0x0, symName: __ZNKSt3__112basic_stringIcNS_11char_traitsIcEENS_9allocatorIcEEE13__get_pointerB8ne180100Ev, symObjAddr: 0x1A310, symBinAddr: 0x10001B9C0, symSize: 0x80 }
  - { offset: 0x6B7D1, size: 0x8, addend: 0x0, symName: __ZNKSt3__112basic_stringIcNS_11char_traitsIcEENS_9allocatorIcEEE18__get_long_pointerB8ne180100Ev, symObjAddr: 0x1A390, symBinAddr: 0x10001BA40, symSize: 0x180 }
  - { offset: 0x6B7F7, size: 0x8, addend: 0x0, symName: __ZNKSt3__112basic_stringIcNS_11char_traitsIcEENS_9allocatorIcEEE19__get_short_pointerB8ne180100Ev, symObjAddr: 0x1A510, symBinAddr: 0x10001BBC0, symSize: 0x158 }
  - { offset: 0x6B81D, size: 0x8, addend: 0x0, symName: __ZNSt3__114pointer_traitsIPKcE10pointer_toB8ne180100ERS1_, symObjAddr: 0x1A668, symBinAddr: 0x10001BD18, symSize: 0x20 }
  - { offset: 0x6B840, size: 0x8, addend: 0x0, symName: __ZNSt3__118__unwrap_iter_implINS_11__wrap_iterIPKNS_12basic_stringIcNS_11char_traitsIcEENS_9allocatorIcEEEEEELb1EE8__unwrapB8ne180100ESA_, symObjAddr: 0x1A688, symBinAddr: 0x10001BD38, symSize: 0x150 }
  - { offset: 0x6B871, size: 0x8, addend: 0x0, symName: __ZNSt3__119__to_address_helperINS_11__wrap_iterIPKNS_12basic_stringIcNS_11char_traitsIcEENS_9allocatorIcEEEEEEvE6__callB8ne180100ERKSA_, symObjAddr: 0x1A838, symBinAddr: 0x10001BEE8, symSize: 0x40 }
  - { offset: 0x6B894, size: 0x8, addend: 0x0, symName: __ZNSt3__114pointer_traitsINS_11__wrap_iterIPKNS_12basic_stringIcNS_11char_traitsIcEENS_9allocatorIcEEEEEEE10to_addressB8ne180100ESA_, symObjAddr: 0x1A878, symBinAddr: 0x10001BF28, symSize: 0x150 }
  - { offset: 0x6B8BA, size: 0x8, addend: 0x0, symName: __ZNKSt3__111__wrap_iterIPKNS_12basic_stringIcNS_11char_traitsIcEENS_9allocatorIcEEEEE4baseB8ne180100Ev, symObjAddr: 0x1A9E0, symBinAddr: 0x10001C090, symSize: 0x80 }
  - { offset: 0x6B8E0, size: 0x8, addend: 0x0, symName: __ZNKSt3__16vectorINS_12basic_stringIcNS_11char_traitsIcEENS_9allocatorIcEEEENS4_IS6_EEE11__make_iterB8ne180100EPKS6_, symObjAddr: 0x1AA60, symBinAddr: 0x10001C110, symSize: 0x190 }
  - { offset: 0x6B917, size: 0x8, addend: 0x0, symName: __ZNSt3__111__wrap_iterIPKNS_12basic_stringIcNS_11char_traitsIcEENS_9allocatorIcEEEEEC1B8ne180100ES8_, symObjAddr: 0x1ABF0, symBinAddr: 0x10001C2A0, symSize: 0x60 }
  - { offset: 0x6B94F, size: 0x8, addend: 0x0, symName: __ZNSt3__111__wrap_iterIPKNS_12basic_stringIcNS_11char_traitsIcEENS_9allocatorIcEEEEEC2B8ne180100ES8_, symObjAddr: 0x1AC50, symBinAddr: 0x10001C300, symSize: 0x98 }
  - { offset: 0x6B987, size: 0x8, addend: 0x0, symName: __ZN7testing8internal19FormatForComparisonINSt3__16vectorINS2_12basic_stringIcNS2_11char_traitsIcEENS2_9allocatorIcEEEENS7_IS9_EEEESB_E6FormatERKSB_, symObjAddr: 0x1AD68, symBinAddr: 0x10001C418, symSize: 0x70 }
  - { offset: 0x6B9AB, size: 0x8, addend: 0x0, symName: __ZNSt3__118basic_stringstreamIcNS_11char_traitsIcEENS_9allocatorIcEEEC1B8ne180100Ev, symObjAddr: 0x1B220, symBinAddr: 0x10001C8D0, symSize: 0x388 }
  - { offset: 0x6B9D5, size: 0x8, addend: 0x0, symName: __ZN7testing8internal21UniversalTersePrinterINSt3__16vectorINS2_12basic_stringIcNS2_11char_traitsIcEENS2_9allocatorIcEEEENS7_IS9_EEEEE5PrintERKSB_PNS2_13basic_ostreamIcS6_EE, symObjAddr: 0x1B5A8, symBinAddr: 0x10001CC58, symSize: 0x58 }
  - { offset: 0x6BA08, size: 0x8, addend: 0x0, symName: __ZNKRSt3__118basic_stringstreamIcNS_11char_traitsIcEENS_9allocatorIcEEE3strB8ne180100Ev, symObjAddr: 0x1B600, symBinAddr: 0x10001CCB0, symSize: 0x1D0 }
  - { offset: 0x6BA33, size: 0x8, addend: 0x0, symName: __ZNSt3__118basic_stringstreamIcNS_11char_traitsIcEENS_9allocatorIcEEED1Ev, symObjAddr: 0x1B7D0, symBinAddr: 0x10001CE80, symSize: 0x70 }
  - { offset: 0x6BA60, size: 0x8, addend: 0x0, symName: __ZNSt3__19basic_iosIcNS_11char_traitsIcEEEC2B8ne180100Ev, symObjAddr: 0x1B840, symBinAddr: 0x10001CEF0, symSize: 0xC0 }
  - { offset: 0x6BA8A, size: 0x8, addend: 0x0, symName: __ZNSt3__114basic_iostreamIcNS_11char_traitsIcEEEC2B8ne180100EPNS_15basic_streambufIcS2_EE, symObjAddr: 0x1B900, symBinAddr: 0x10001CFB0, symSize: 0x2C0 }
  - { offset: 0x6BAD0, size: 0x8, addend: 0x0, symName: __ZNSt3__115basic_stringbufIcNS_11char_traitsIcEENS_9allocatorIcEEEC1B8ne180100Ej, symObjAddr: 0x1BBC0, symBinAddr: 0x10001D270, symSize: 0x60 }
  - { offset: 0x6BB09, size: 0x8, addend: 0x0, symName: __ZNSt3__18ios_baseC2B8ne180100Ev, symObjAddr: 0x1BC20, symBinAddr: 0x10001D2D0, symSize: 0x90 }
  - { offset: 0x6BB33, size: 0x8, addend: 0x0, symName: __ZNSt3__113basic_istreamIcNS_11char_traitsIcEEEC2B8ne180100EPNS_15basic_streambufIcS2_EE, symObjAddr: 0x1BCB0, symBinAddr: 0x10001D360, symSize: 0x360 }
  - { offset: 0x6BB78, size: 0x8, addend: 0x0, symName: __ZNSt3__113basic_ostreamIcNS_11char_traitsIcEEEC2B8ne180100Ev, symObjAddr: 0x1C010, symBinAddr: 0x10001D6C0, symSize: 0x170 }
  - { offset: 0x6BBAF, size: 0x8, addend: 0x0, symName: __ZNSt3__19basic_iosIcNS_11char_traitsIcEEE4initB8ne180100EPNS_15basic_streambufIcS2_EE, symObjAddr: 0x1C180, symBinAddr: 0x10001D830, symSize: 0x2B8 }
  - { offset: 0x6BBE6, size: 0x8, addend: 0x0, symName: __ZNSt3__111char_traitsIcE3eofB8ne180100Ev, symObjAddr: 0x1C438, symBinAddr: 0x10001DAE8, symSize: 0x18 }
  - { offset: 0x6BBFA, size: 0x8, addend: 0x0, symName: __ZNSt3__115basic_stringbufIcNS_11char_traitsIcEENS_9allocatorIcEEEC2B8ne180100Ej, symObjAddr: 0x1C450, symBinAddr: 0x10001DB00, symSize: 0x160 }
  - { offset: 0x6BC33, size: 0x8, addend: 0x0, symName: __ZNSt3__112basic_stringIcNS_11char_traitsIcEENS_9allocatorIcEEEC1B8ne180100Ev, symObjAddr: 0x1C5B0, symBinAddr: 0x10001DC60, symSize: 0x50 }
  - { offset: 0x6BC5D, size: 0x8, addend: 0x0, symName: __ZNSt3__112basic_stringIcNS_11char_traitsIcEENS_9allocatorIcEEEC2B8ne180100Ev, symObjAddr: 0x1C600, symBinAddr: 0x10001DCB0, symSize: 0x1C0 }
  - { offset: 0x6BC8E, size: 0x8, addend: 0x0, symName: __ZNSt3__117__compressed_pairINS_12basic_stringIcNS_11char_traitsIcEENS_9allocatorIcEEE5__repES5_EC1B8ne180100INS_16__value_init_tagENS_18__default_init_tagEEEOT_OT0_, symObjAddr: 0x1C7C0, symBinAddr: 0x10001DE70, symSize: 0x60 }
  - { offset: 0x6BCE6, size: 0x8, addend: 0x0, symName: __ZNSt3__117__compressed_pairINS_12basic_stringIcNS_11char_traitsIcEENS_9allocatorIcEEE5__repES5_EC2B8ne180100INS_16__value_init_tagENS_18__default_init_tagEEEOT_OT0_, symObjAddr: 0x1C820, symBinAddr: 0x10001DED0, symSize: 0xB0 }
  - { offset: 0x6BD3E, size: 0x8, addend: 0x0, symName: __ZNSt3__122__compressed_pair_elemINS_12basic_stringIcNS_11char_traitsIcEENS_9allocatorIcEEE5__repELi0ELb0EEC2B8ne180100ENS_16__value_init_tagE, symObjAddr: 0x1C8D0, symBinAddr: 0x10001DF80, symSize: 0x68 }
  - { offset: 0x6BD73, size: 0x8, addend: 0x0, symName: __ZN7testing8internal16UniversalPrinterINSt3__16vectorINS2_12basic_stringIcNS2_11char_traitsIcEENS2_9allocatorIcEEEENS7_IS9_EEEEE5PrintERKSB_PNS2_13basic_ostreamIcS6_EE, symObjAddr: 0x1C998, symBinAddr: 0x10001E048, symSize: 0x60 }
  - { offset: 0x6BDA6, size: 0x8, addend: 0x0, symName: __ZN7testing8internal16ContainerPrinter10PrintValueINSt3__16vectorINS3_12basic_stringIcNS3_11char_traitsIcEENS3_9allocatorIcEEEENS8_ISA_EEEEvEEvRKT_PNS3_13basic_ostreamIcS7_EE, symObjAddr: 0x1CAB8, symBinAddr: 0x10001E168, symSize: 0x560 }
  - { offset: 0x6BE5C, size: 0x8, addend: 0x0, symName: __ZNKSt3__111__wrap_iterIPKNS_12basic_stringIcNS_11char_traitsIcEENS_9allocatorIcEEEEEdeB8ne180100Ev, symObjAddr: 0x1D280, symBinAddr: 0x10001E930, symSize: 0xB8 }
  - { offset: 0x6BE82, size: 0x8, addend: 0x0, symName: __ZNSt3__111__wrap_iterIPKNS_12basic_stringIcNS_11char_traitsIcEENS_9allocatorIcEEEEEppB8ne180100Ev, symObjAddr: 0x1D440, symBinAddr: 0x10001EAF0, symSize: 0x138 }
  - { offset: 0x6BEC9, size: 0x8, addend: 0x0, symName: __ZNKSt3__113basic_ostreamIcNS_11char_traitsIcEEE6sentrycvbB8ne180100Ev, symObjAddr: 0x1E530, symBinAddr: 0x10001FBE0, symSize: 0xC8 }
  - { offset: 0x6BEEF, size: 0x8, addend: 0x0, symName: __ZNSt3__119ostreambuf_iteratorIcNS_11char_traitsIcEEEC1B8ne180100ERNS_13basic_ostreamIcS2_EE, symObjAddr: 0x1EFE0, symBinAddr: 0x100020690, symSize: 0x60 }
  - { offset: 0x6BF27, size: 0x8, addend: 0x0, symName: __ZNKSt3__18ios_base5flagsB8ne180100Ev, symObjAddr: 0x1F040, symBinAddr: 0x1000206F0, symSize: 0x120 }
  - { offset: 0x6BF4F, size: 0x8, addend: 0x0, symName: __ZNKSt3__19basic_iosIcNS_11char_traitsIcEEE4fillB8ne180100Ev, symObjAddr: 0x1F160, symBinAddr: 0x100020810, symSize: 0x3A0 }
  - { offset: 0x6BF77, size: 0x8, addend: 0x0, symName: __ZNKSt3__119ostreambuf_iteratorIcNS_11char_traitsIcEEE6failedB8ne180100Ev, symObjAddr: 0x1F500, symBinAddr: 0x100020BB0, symSize: 0x80 }
  - { offset: 0x6BF9D, size: 0x8, addend: 0x0, symName: __ZNSt3__19basic_iosIcNS_11char_traitsIcEEE8setstateB8ne180100Ej, symObjAddr: 0x1F580, symBinAddr: 0x100020C30, symSize: 0x100 }
  - { offset: 0x6BFD2, size: 0x8, addend: 0x0, symName: __ZNKSt3__18ios_base5widthB8ne180100Ev, symObjAddr: 0x1F680, symBinAddr: 0x100020D30, symSize: 0x110 }
  - { offset: 0x6BFFA, size: 0x8, addend: 0x0, symName: __ZNSt3__115basic_streambufIcNS_11char_traitsIcEEE5sputnB8ne180100EPKcl, symObjAddr: 0x1F790, symBinAddr: 0x100020E40, symSize: 0x160 }
  - { offset: 0x6C03C, size: 0x8, addend: 0x0, symName: __ZNSt3__112basic_stringIcNS_11char_traitsIcEENS_9allocatorIcEEEC1B8ne180100Emc, symObjAddr: 0x1F8F0, symBinAddr: 0x100020FA0, symSize: 0x60 }
  - { offset: 0x6C084, size: 0x8, addend: 0x0, symName: __ZNSt3__112basic_stringIcNS_11char_traitsIcEENS_9allocatorIcEEE4dataB8ne180100Ev, symObjAddr: 0x1F950, symBinAddr: 0x100021000, symSize: 0x60 }
  - { offset: 0x6C0AA, size: 0x8, addend: 0x0, symName: __ZNSt3__18ios_base5widthB8ne180100El, symObjAddr: 0x1F9B0, symBinAddr: 0x100021060, symSize: 0x1E0 }
  - { offset: 0x6C0F0, size: 0x8, addend: 0x0, symName: __ZNSt3__112basic_stringIcNS_11char_traitsIcEENS_9allocatorIcEEEC2B8ne180100Emc, symObjAddr: 0x1FB90, symBinAddr: 0x100021240, symSize: 0x1B8 }
  - { offset: 0x6C13B, size: 0x8, addend: 0x0, symName: __ZNSt3__112basic_stringIcNS_11char_traitsIcEENS_9allocatorIcEEE13__get_pointerB8ne180100Ev, symObjAddr: 0x1FD60, symBinAddr: 0x100021410, symSize: 0x80 }
  - { offset: 0x6C161, size: 0x8, addend: 0x0, symName: __ZNSt3__112basic_stringIcNS_11char_traitsIcEENS_9allocatorIcEEE18__get_long_pointerB8ne180100Ev, symObjAddr: 0x1FDE0, symBinAddr: 0x100021490, symSize: 0x180 }
  - { offset: 0x6C187, size: 0x8, addend: 0x0, symName: __ZNSt3__112basic_stringIcNS_11char_traitsIcEENS_9allocatorIcEEE19__get_short_pointerB8ne180100Ev, symObjAddr: 0x1FF60, symBinAddr: 0x100021610, symSize: 0x158 }
  - { offset: 0x6C1AD, size: 0x8, addend: 0x0, symName: __ZNSt3__114pointer_traitsIPcE10pointer_toB8ne180100ERc, symObjAddr: 0x200B8, symBinAddr: 0x100021768, symSize: 0x18 }
  - { offset: 0x6C1D0, size: 0x8, addend: 0x0, symName: __ZNSt3__119ostreambuf_iteratorIcNS_11char_traitsIcEEEC2B8ne180100ERNS_13basic_ostreamIcS2_EE, symObjAddr: 0x200D0, symBinAddr: 0x100021780, symSize: 0x290 }
  - { offset: 0x6C208, size: 0x8, addend: 0x0, symName: __ZNKSt3__19basic_iosIcNS_11char_traitsIcEEE5rdbufB8ne180100Ev, symObjAddr: 0x20360, symBinAddr: 0x100021A10, symSize: 0x100 }
  - { offset: 0x6C230, size: 0x8, addend: 0x0, symName: __ZNKSt3__18ios_base5rdbufB8ne180100Ev, symObjAddr: 0x20460, symBinAddr: 0x100021B10, symSize: 0x118 }
  - { offset: 0x6C256, size: 0x8, addend: 0x0, symName: __ZNSt3__111char_traitsIcE11eq_int_typeB8ne180100Eii, symObjAddr: 0x20578, symBinAddr: 0x100021C28, symSize: 0x28 }
  - { offset: 0x6C289, size: 0x8, addend: 0x0, symName: __ZNKSt3__19basic_iosIcNS_11char_traitsIcEEE5widenB8ne180100Ec, symObjAddr: 0x205A0, symBinAddr: 0x100021C50, symSize: 0x3E8 }
  - { offset: 0x6C2FF, size: 0x8, addend: 0x0, symName: __ZNKSt3__15ctypeIcE5widenB8ne180100Ec, symObjAddr: 0x20AE0, symBinAddr: 0x100022190, symSize: 0x150 }
  - { offset: 0x6C334, size: 0x8, addend: 0x0, symName: __ZNSt3__18ios_base8setstateB8ne180100Ej, symObjAddr: 0x20C30, symBinAddr: 0x1000222E0, symSize: 0x1C8 }
  - { offset: 0x6C36B, size: 0x8, addend: 0x0, symName: __ZN7testing8internal16UniversalPrinterINSt3__112basic_stringIcNS2_11char_traitsIcEENS2_9allocatorIcEEEEE5PrintERKS8_PNS2_13basic_ostreamIcS5_EE, symObjAddr: 0x20E98, symBinAddr: 0x100022548, symSize: 0x60 }
  - { offset: 0x6C39E, size: 0x8, addend: 0x0, symName: __ZNKRSt3__115basic_stringbufIcNS_11char_traitsIcEENS_9allocatorIcEEE3strB8ne180100Ev, symObjAddr: 0x20F50, symBinAddr: 0x100022600, symSize: 0x2F0 }
  - { offset: 0x6C3C5, size: 0x8, addend: 0x0, symName: __ZNKSt3__115basic_stringbufIcNS_11char_traitsIcEENS_9allocatorIcEEE3strB8ne180100IS4_Qsr14__is_allocatorITL0__EE5valueEENS_12basic_stringIcS2_T_EERKS9_, symObjAddr: 0x21240, symBinAddr: 0x1000228F0, symSize: 0x2A0 }
  - { offset: 0x6C405, size: 0x8, addend: 0x0, symName: __ZNKSt3__112basic_stringIcNS_11char_traitsIcEENS_9allocatorIcEEE13get_allocatorB8ne180100Ev, symObjAddr: 0x214E0, symBinAddr: 0x100022B90, symSize: 0x50 }
  - { offset: 0x6C42B, size: 0x8, addend: 0x0, symName: __ZNKSt3__115basic_stringbufIcNS_11char_traitsIcEENS_9allocatorIcEEE4viewB8ne180100Ev, symObjAddr: 0x21530, symBinAddr: 0x100022BE0, symSize: 0xAC0 }
  - { offset: 0x6C454, size: 0x8, addend: 0x0, symName: __ZNSt3__112basic_stringIcNS_11char_traitsIcEENS_9allocatorIcEEEC1INS_17basic_string_viewIcS2_EETnNS_9enable_ifIXaasr33__can_be_converted_to_string_viewIcS2_T_EE5valuentsr17__is_same_uncvrefISA_S5_EE5valueEiE4typeELi0EEERKSA_RKS4_, symObjAddr: 0x21FF0, symBinAddr: 0x1000236A0, symSize: 0x60 }
  - { offset: 0x6C4AC, size: 0x8, addend: 0x0, symName: __ZNKSt3__115basic_streambufIcNS_11char_traitsIcEEE4pptrB8ne180100Ev, symObjAddr: 0x22050, symBinAddr: 0x100023700, symSize: 0x110 }
  - { offset: 0x6C4D2, size: 0x8, addend: 0x0, symName: __ZNKSt3__115basic_streambufIcNS_11char_traitsIcEEE5pbaseB8ne180100Ev, symObjAddr: 0x22160, symBinAddr: 0x100023810, symSize: 0x110 }
  - { offset: 0x6C4FD, size: 0x8, addend: 0x0, symName: __ZNSt3__117basic_string_viewIcNS_11char_traitsIcEEEC1B8ne180100ITkNS_19contiguous_iteratorEPcTkNS_18sized_sentinel_forITL0__EES5_Qaa9is_same_vINS_11conditionalIXsr21__is_primary_templateINS_15iterator_traitsIu14__remove_cvrefIS7_EEEEE5valueENS_26indirectly_readable_traitsISA_EESB_E4type10value_typeET_Ent16is_convertible_vITL0_0_mEEESH_T0_, symObjAddr: 0x22270, symBinAddr: 0x100023920, symSize: 0x60 }
  - { offset: 0x6C557, size: 0x8, addend: 0x0, symName: __ZNKSt3__115basic_streambufIcNS_11char_traitsIcEEE5ebackB8ne180100Ev, symObjAddr: 0x222D0, symBinAddr: 0x100023980, symSize: 0x110 }
  - { offset: 0x6C57D, size: 0x8, addend: 0x0, symName: __ZNKSt3__115basic_streambufIcNS_11char_traitsIcEEE5egptrB8ne180100Ev, symObjAddr: 0x223E0, symBinAddr: 0x100023A90, symSize: 0x110 }
  - { offset: 0x6C5A3, size: 0x8, addend: 0x0, symName: __ZNSt3__117basic_string_viewIcNS_11char_traitsIcEEEC1B8ne180100Ev, symObjAddr: 0x224F0, symBinAddr: 0x100023BA0, symSize: 0x50 }
  - { offset: 0x6C5CD, size: 0x8, addend: 0x0, symName: __ZNSt3__117basic_string_viewIcNS_11char_traitsIcEEEC2B8ne180100ITkNS_19contiguous_iteratorEPcTkNS_18sized_sentinel_forITL0__EES5_Qaa9is_same_vINS_11conditionalIXsr21__is_primary_templateINS_15iterator_traitsIu14__remove_cvrefIS7_EEEEE5valueENS_26indirectly_readable_traitsISA_EESB_E4type10value_typeET_Ent16is_convertible_vITL0_0_mEEESH_T0_, symObjAddr: 0x22540, symBinAddr: 0x100023BF0, symSize: 0xE8 }
  - { offset: 0x6C627, size: 0x8, addend: 0x0, symName: __ZNSt3__117basic_string_viewIcNS_11char_traitsIcEEEC2B8ne180100Ev, symObjAddr: 0x22650, symBinAddr: 0x100023D00, symSize: 0xC0 }
  - { offset: 0x6C651, size: 0x8, addend: 0x0, symName: __ZNSt3__112basic_stringIcNS_11char_traitsIcEENS_9allocatorIcEEEC2INS_17basic_string_viewIcS2_EETnNS_9enable_ifIXaasr33__can_be_converted_to_string_viewIcS2_T_EE5valuentsr17__is_same_uncvrefISA_S5_EE5valueEiE4typeELi0EEERKSA_RKS4_, symObjAddr: 0x22710, symBinAddr: 0x100023DC0, symSize: 0x230 }
  - { offset: 0x6C6CD, size: 0x8, addend: 0x0, symName: __ZNSt3__117__compressed_pairINS_12basic_stringIcNS_11char_traitsIcEENS_9allocatorIcEEE5__repES5_EC1B8ne180100INS_18__default_init_tagERKS5_EEOT_OT0_, symObjAddr: 0x22940, symBinAddr: 0x100023FF0, symSize: 0x60 }
  - { offset: 0x6C725, size: 0x8, addend: 0x0, symName: __ZNKSt3__117basic_string_viewIcNS_11char_traitsIcEEE4dataB8ne180100Ev, symObjAddr: 0x229A0, symBinAddr: 0x100024050, symSize: 0x80 }
  - { offset: 0x6C74B, size: 0x8, addend: 0x0, symName: __ZNKSt3__117basic_string_viewIcNS_11char_traitsIcEEE4sizeB8ne180100Ev, symObjAddr: 0x22A20, symBinAddr: 0x1000240D0, symSize: 0x80 }
  - { offset: 0x6C771, size: 0x8, addend: 0x0, symName: __ZNSt3__117__compressed_pairINS_12basic_stringIcNS_11char_traitsIcEENS_9allocatorIcEEE5__repES5_EC2B8ne180100INS_18__default_init_tagERKS5_EEOT_OT0_, symObjAddr: 0x22AA0, symBinAddr: 0x100024150, symSize: 0xE0 }
  - { offset: 0x6C7C9, size: 0x8, addend: 0x0, symName: __ZNSt3__122__compressed_pair_elemINS_9allocatorIcEELi1ELb1EEC2B8ne180100IRKS2_vEEOT_, symObjAddr: 0x22B80, symBinAddr: 0x100024230, symSize: 0x40 }
  - { offset: 0x6C80B, size: 0x8, addend: 0x0, symName: __ZNKSt3__112basic_stringIcNS_11char_traitsIcEENS_9allocatorIcEEE7__allocB8ne180100Ev, symObjAddr: 0x22BC0, symBinAddr: 0x100024270, symSize: 0xB0 }
  - { offset: 0x6C831, size: 0x8, addend: 0x0, symName: __ZNKSt3__117__compressed_pairINS_12basic_stringIcNS_11char_traitsIcEENS_9allocatorIcEEE5__repES5_E6secondB8ne180100Ev, symObjAddr: 0x22C70, symBinAddr: 0x100024320, symSize: 0xC0 }
  - { offset: 0x6C857, size: 0x8, addend: 0x0, symName: __ZNKSt3__122__compressed_pair_elemINS_9allocatorIcEELi1ELb1EE5__getB8ne180100Ev, symObjAddr: 0x22D30, symBinAddr: 0x1000243E0, symSize: 0x60 }
  - { offset: 0x6C87D, size: 0x8, addend: 0x0, symName: __ZNSt3__118basic_stringstreamIcNS_11char_traitsIcEENS_9allocatorIcEEED2Ev, symObjAddr: 0x22D90, symBinAddr: 0x100024440, symSize: 0x200 }
  - { offset: 0x6C8B7, size: 0x8, addend: 0x0, symName: __ZThn16_NSt3__118basic_stringstreamIcNS_11char_traitsIcEENS_9allocatorIcEEED1Ev, symObjAddr: 0x22F90, symBinAddr: 0x100024640, symSize: 0x20 }
  - { offset: 0x6C8CE, size: 0x8, addend: 0x0, symName: __ZTv0_n24_NSt3__118basic_stringstreamIcNS_11char_traitsIcEENS_9allocatorIcEEED1Ev, symObjAddr: 0x22FB0, symBinAddr: 0x100024660, symSize: 0x90 }
  - { offset: 0x6C8EA, size: 0x8, addend: 0x0, symName: __ZNSt3__115basic_stringbufIcNS_11char_traitsIcEENS_9allocatorIcEEED1Ev, symObjAddr: 0x23040, symBinAddr: 0x1000246F0, symSize: 0x50 }
  - { offset: 0x6C917, size: 0x8, addend: 0x0, symName: __ZNSt3__115basic_stringbufIcNS_11char_traitsIcEENS_9allocatorIcEEED2Ev, symObjAddr: 0x23090, symBinAddr: 0x100024740, symSize: 0xA0 }
  - { offset: 0x6C944, size: 0x8, addend: 0x0, symName: __ZNK7testing15AssertionResult7messageEv, symObjAddr: 0x23130, symBinAddr: 0x1000247E0, symSize: 0x148 }
  - { offset: 0x6C96A, size: 0x8, addend: 0x0, symName: __ZNKSt3__110unique_ptrINS_12basic_stringIcNS_11char_traitsIcEENS_9allocatorIcEEEENS_14default_deleteIS6_EEEptB8ne180100Ev, symObjAddr: 0x232D0, symBinAddr: 0x100024980, symSize: 0xF0 }
  - { offset: 0x6C990, size: 0x8, addend: 0x0, symName: __ZNKSt3__112basic_stringIcNS_11char_traitsIcEENS_9allocatorIcEEE5c_strB8ne180100Ev, symObjAddr: 0x233C0, symBinAddr: 0x100024A70, symSize: 0x50 }
  - { offset: 0x6C9B6, size: 0x8, addend: 0x0, symName: __ZNKSt3__110unique_ptrINS_12basic_stringIcNS_11char_traitsIcEENS_9allocatorIcEEEENS_14default_deleteIS6_EEEcvbB8ne180100Ev, symObjAddr: 0x23410, symBinAddr: 0x100024AC0, symSize: 0xF0 }
  - { offset: 0x6C9DC, size: 0x8, addend: 0x0, symName: __ZNKSt3__117__compressed_pairIPNS_12basic_stringIcNS_11char_traitsIcEENS_9allocatorIcEEEENS_14default_deleteIS6_EEE5firstB8ne180100Ev, symObjAddr: 0x23500, symBinAddr: 0x100024BB0, symSize: 0xE0 }
  - { offset: 0x6CA02, size: 0x8, addend: 0x0, symName: __ZNKSt3__122__compressed_pair_elemIPNS_12basic_stringIcNS_11char_traitsIcEENS_9allocatorIcEEEELi0ELb0EE5__getB8ne180100Ev, symObjAddr: 0x235E0, symBinAddr: 0x100024C90, symSize: 0x80 }
  - { offset: 0x6CA28, size: 0x8, addend: 0x0, symName: __ZN7testing7MessageD2Ev, symObjAddr: 0x23660, symBinAddr: 0x100024D10, symSize: 0x50 }
  - { offset: 0x6CA54, size: 0x8, addend: 0x0, symName: __ZNSt3__110unique_ptrINS_18basic_stringstreamIcNS_11char_traitsIcEENS_9allocatorIcEEEENS_14default_deleteIS6_EEED1B8ne180100Ev, symObjAddr: 0x236B0, symBinAddr: 0x100024D60, symSize: 0x50 }
  - { offset: 0x6CA7E, size: 0x8, addend: 0x0, symName: __ZNSt3__110unique_ptrINS_18basic_stringstreamIcNS_11char_traitsIcEENS_9allocatorIcEEEENS_14default_deleteIS6_EEED2B8ne180100Ev, symObjAddr: 0x23700, symBinAddr: 0x100024DB0, symSize: 0x60 }
  - { offset: 0x6CAA8, size: 0x8, addend: 0x0, symName: __ZNSt3__110unique_ptrINS_18basic_stringstreamIcNS_11char_traitsIcEENS_9allocatorIcEEEENS_14default_deleteIS6_EEE5resetB8ne180100EPS6_, symObjAddr: 0x23760, symBinAddr: 0x100024E10, symSize: 0x210 }
  - { offset: 0x6CAEC, size: 0x8, addend: 0x0, symName: __ZNSt3__117__compressed_pairIPNS_18basic_stringstreamIcNS_11char_traitsIcEENS_9allocatorIcEEEENS_14default_deleteIS6_EEE5firstB8ne180100Ev, symObjAddr: 0x23970, symBinAddr: 0x100025020, symSize: 0xE0 }
  - { offset: 0x6CB12, size: 0x8, addend: 0x0, symName: __ZNSt3__117__compressed_pairIPNS_18basic_stringstreamIcNS_11char_traitsIcEENS_9allocatorIcEEEENS_14default_deleteIS6_EEE6secondB8ne180100Ev, symObjAddr: 0x23A50, symBinAddr: 0x100025100, symSize: 0xC0 }
  - { offset: 0x6CB38, size: 0x8, addend: 0x0, symName: __ZNKSt3__114default_deleteINS_18basic_stringstreamIcNS_11char_traitsIcEENS_9allocatorIcEEEEEclB8ne180100EPS6_, symObjAddr: 0x23B10, symBinAddr: 0x1000251C0, symSize: 0x190 }
  - { offset: 0x6CB6C, size: 0x8, addend: 0x0, symName: __ZNSt3__122__compressed_pair_elemIPNS_18basic_stringstreamIcNS_11char_traitsIcEENS_9allocatorIcEEEELi0ELb0EE5__getB8ne180100Ev, symObjAddr: 0x23CA0, symBinAddr: 0x100025350, symSize: 0x80 }
  - { offset: 0x6CB92, size: 0x8, addend: 0x0, symName: __ZNSt3__122__compressed_pair_elemINS_14default_deleteINS_18basic_stringstreamIcNS_11char_traitsIcEENS_9allocatorIcEEEEEELi1ELb1EE5__getB8ne180100Ev, symObjAddr: 0x23D20, symBinAddr: 0x1000253D0, symSize: 0x60 }
  - { offset: 0x6CBB8, size: 0x8, addend: 0x0, symName: __ZN7testing15AssertionResultD2Ev, symObjAddr: 0x23D80, symBinAddr: 0x100025430, symSize: 0x60 }
  - { offset: 0x6CBE4, size: 0x8, addend: 0x0, symName: __ZNSt3__110unique_ptrINS_12basic_stringIcNS_11char_traitsIcEENS_9allocatorIcEEEENS_14default_deleteIS6_EEED1B8ne180100Ev, symObjAddr: 0x23DE0, symBinAddr: 0x100025490, symSize: 0x50 }
  - { offset: 0x6CC0E, size: 0x8, addend: 0x0, symName: __ZNSt3__110unique_ptrINS_12basic_stringIcNS_11char_traitsIcEENS_9allocatorIcEEEENS_14default_deleteIS6_EEED2B8ne180100Ev, symObjAddr: 0x23E30, symBinAddr: 0x1000254E0, symSize: 0x60 }
  - { offset: 0x6CC38, size: 0x8, addend: 0x0, symName: __ZNSt3__110unique_ptrINS_12basic_stringIcNS_11char_traitsIcEENS_9allocatorIcEEEENS_14default_deleteIS6_EEE5resetB8ne180100EPS6_, symObjAddr: 0x23E90, symBinAddr: 0x100025540, symSize: 0x210 }
  - { offset: 0x6CC7C, size: 0x8, addend: 0x0, symName: __ZNSt3__117__compressed_pairIPNS_12basic_stringIcNS_11char_traitsIcEENS_9allocatorIcEEEENS_14default_deleteIS6_EEE5firstB8ne180100Ev, symObjAddr: 0x240A0, symBinAddr: 0x100025750, symSize: 0xE0 }
  - { offset: 0x6CCA2, size: 0x8, addend: 0x0, symName: __ZNSt3__117__compressed_pairIPNS_12basic_stringIcNS_11char_traitsIcEENS_9allocatorIcEEEENS_14default_deleteIS6_EEE6secondB8ne180100Ev, symObjAddr: 0x24180, symBinAddr: 0x100025830, symSize: 0xC0 }
  - { offset: 0x6CCC8, size: 0x8, addend: 0x0, symName: __ZNKSt3__114default_deleteINS_12basic_stringIcNS_11char_traitsIcEENS_9allocatorIcEEEEEclB8ne180100EPS6_, symObjAddr: 0x24240, symBinAddr: 0x1000258F0, symSize: 0x90 }
  - { offset: 0x6CCFC, size: 0x8, addend: 0x0, symName: __ZNSt3__122__compressed_pair_elemIPNS_12basic_stringIcNS_11char_traitsIcEENS_9allocatorIcEEEELi0ELb0EE5__getB8ne180100Ev, symObjAddr: 0x242D0, symBinAddr: 0x100025980, symSize: 0x80 }
  - { offset: 0x6CD22, size: 0x8, addend: 0x0, symName: __ZNSt3__122__compressed_pair_elemINS_14default_deleteINS_12basic_stringIcNS_11char_traitsIcEENS_9allocatorIcEEEEEELi1ELb1EE5__getB8ne180100Ev, symObjAddr: 0x24350, symBinAddr: 0x100025A00, symSize: 0x60 }
  - { offset: 0x6CD48, size: 0x8, addend: 0x0, symName: __ZNSt3__16vectorINS_12basic_stringIcNS_11char_traitsIcEENS_9allocatorIcEEEENS4_IS6_EEED2B8ne180100Ev, symObjAddr: 0x243B0, symBinAddr: 0x100025A60, symSize: 0x1E0 }
  - { offset: 0x6CD73, size: 0x8, addend: 0x0, symName: __ZNSt3__16vectorINS_12basic_stringIcNS_11char_traitsIcEENS_9allocatorIcEEEENS4_IS6_EEE16__destroy_vectorC1B8ne180100ERS8_, symObjAddr: 0x24590, symBinAddr: 0x100025C40, symSize: 0x60 }
  - { offset: 0x6CDAC, size: 0x8, addend: 0x0, symName: __ZNSt3__16vectorINS_12basic_stringIcNS_11char_traitsIcEENS_9allocatorIcEEEENS4_IS6_EEE16__destroy_vectorclB8ne180100Ev, symObjAddr: 0x245F0, symBinAddr: 0x100025CA0, symSize: 0x350 }
  - { offset: 0x6CDD2, size: 0x8, addend: 0x0, symName: __ZNSt3__16vectorINS_12basic_stringIcNS_11char_traitsIcEENS_9allocatorIcEEEENS4_IS6_EEE16__destroy_vectorC2B8ne180100ERS8_, symObjAddr: 0x24940, symBinAddr: 0x100025FF0, symSize: 0xC0 }
  - { offset: 0x6CE0B, size: 0x8, addend: 0x0, symName: __ZNSt3__16vectorINS_12basic_stringIcNS_11char_traitsIcEENS_9allocatorIcEEEENS4_IS6_EEE7__clearB8ne180100Ev, symObjAddr: 0x24A00, symBinAddr: 0x1000260B0, symSize: 0x80 }
  - { offset: 0x6CE31, size: 0x8, addend: 0x0, symName: __ZNKSt3__16vectorINS_12basic_stringIcNS_11char_traitsIcEENS_9allocatorIcEEEENS4_IS6_EEE17__annotate_deleteB8ne180100Ev, symObjAddr: 0x24A80, symBinAddr: 0x100026130, symSize: 0x168 }
  - { offset: 0x6CE57, size: 0x8, addend: 0x0, symName: __ZNSt3__116allocator_traitsINS_9allocatorINS_12basic_stringIcNS_11char_traitsIcEENS1_IcEEEEEEE10deallocateB8ne180100ERS7_PS6_m, symObjAddr: 0x24BE8, symBinAddr: 0x100026298, symSize: 0x38 }
  - { offset: 0x6CE99, size: 0x8, addend: 0x0, symName: __ZNSt3__16vectorINS_12basic_stringIcNS_11char_traitsIcEENS_9allocatorIcEEEENS4_IS6_EEE7__allocB8ne180100Ev, symObjAddr: 0x24C20, symBinAddr: 0x1000262D0, symSize: 0xB0 }
  - { offset: 0x6CEBF, size: 0x8, addend: 0x0, symName: __ZNKSt3__16vectorINS_12basic_stringIcNS_11char_traitsIcEENS_9allocatorIcEEEENS4_IS6_EEE8capacityB8ne180100Ev, symObjAddr: 0x24CD0, symBinAddr: 0x100026380, symSize: 0x100 }
  - { offset: 0x6CEE5, size: 0x8, addend: 0x0, symName: __ZNSt3__16vectorINS_12basic_stringIcNS_11char_traitsIcEENS_9allocatorIcEEEENS4_IS6_EEE22__base_destruct_at_endB8ne180100EPS6_, symObjAddr: 0x24DD0, symBinAddr: 0x100026480, symSize: 0x198 }
  - { offset: 0x6CF29, size: 0x8, addend: 0x0, symName: __ZNSt3__116allocator_traitsINS_9allocatorINS_12basic_stringIcNS_11char_traitsIcEENS1_IcEEEEEEE7destroyB8ne180100IS6_vvEEvRS7_PT_, symObjAddr: 0x24F68, symBinAddr: 0x100026618, symSize: 0x30 }
  - { offset: 0x6CF63, size: 0x8, addend: 0x0, symName: __ZNKSt3__16vectorINS_12basic_stringIcNS_11char_traitsIcEENS_9allocatorIcEEEENS4_IS6_EEE31__annotate_contiguous_containerB8ne180100EPKvSA_, symObjAddr: 0x25010, symBinAddr: 0x1000266C0, symSize: 0x100 }
  - { offset: 0x6CFC5, size: 0x8, addend: 0x0, symName: __ZNKSt3__16vectorINS_12basic_stringIcNS_11char_traitsIcEENS_9allocatorIcEEEENS4_IS6_EEE4dataB8ne180100Ev, symObjAddr: 0x25110, symBinAddr: 0x1000267C0, symSize: 0x80 }
  - { offset: 0x6CFEB, size: 0x8, addend: 0x0, symName: __ZNSt3__19allocatorINS_12basic_stringIcNS_11char_traitsIcEENS0_IcEEEEE10deallocateB8ne180100EPS5_m, symObjAddr: 0x25190, symBinAddr: 0x100026840, symSize: 0x78 }
  - { offset: 0x6D02D, size: 0x8, addend: 0x0, symName: __ZNSt3__117__compressed_pairIPNS_12basic_stringIcNS_11char_traitsIcEENS_9allocatorIcEEEENS4_IS6_EEE6secondB8ne180100Ev, symObjAddr: 0x25350, symBinAddr: 0x100026A00, symSize: 0xC0 }
  - { offset: 0x6D053, size: 0x8, addend: 0x0, symName: __ZNSt3__122__compressed_pair_elemINS_9allocatorINS_12basic_stringIcNS_11char_traitsIcEENS1_IcEEEEEELi1ELb1EE5__getB8ne180100Ev, symObjAddr: 0x25410, symBinAddr: 0x100026AC0, symSize: 0x60 }
  - { offset: 0x6D079, size: 0x8, addend: 0x0, symName: __ZNKSt3__16vectorINS_12basic_stringIcNS_11char_traitsIcEENS_9allocatorIcEEEENS4_IS6_EEE9__end_capB8ne180100Ev, symObjAddr: 0x25470, symBinAddr: 0x100026B20, symSize: 0xC0 }
  - { offset: 0x6D09F, size: 0x8, addend: 0x0, symName: __ZNKSt3__117__compressed_pairIPNS_12basic_stringIcNS_11char_traitsIcEENS_9allocatorIcEEEENS4_IS6_EEE5firstB8ne180100Ev, symObjAddr: 0x25530, symBinAddr: 0x100026BE0, symSize: 0xE0 }
  - { offset: 0x6D0C5, size: 0x8, addend: 0x0, symName: __ZN7testing8internal12CodeLocationD2Ev, symObjAddr: 0x25610, symBinAddr: 0x100026CC0, symSize: 0x50 }
  - { offset: 0x6D0F2, size: 0x8, addend: 0x0, symName: __ZN7testing8internal15TestFactoryImplIN12_GLOBAL__N_129CaesarDec_RotVec_OneElem_TestEEC2Ev, symObjAddr: 0x25660, symBinAddr: 0x100026D10, symSize: 0xC0 }
  - { offset: 0x6D11F, size: 0x8, addend: 0x0, symName: __ZN7testing8internal15TestFactoryImplIN12_GLOBAL__N_129CaesarDec_RotVec_OneElem_TestEED1Ev, symObjAddr: 0x25720, symBinAddr: 0x100026DD0, symSize: 0x50 }
  - { offset: 0x6D14C, size: 0x8, addend: 0x0, symName: __ZN7testing8internal15TestFactoryImplIN12_GLOBAL__N_129CaesarDec_RotVec_OneElem_TestEED0Ev, symObjAddr: 0x25770, symBinAddr: 0x100026E20, symSize: 0x60 }
  - { offset: 0x6D179, size: 0x8, addend: 0x0, symName: __ZN7testing8internal15TestFactoryImplIN12_GLOBAL__N_129CaesarDec_RotVec_OneElem_TestEE10CreateTestEv, symObjAddr: 0x257D0, symBinAddr: 0x100026E80, symSize: 0xF0 }
  - { offset: 0x6D19F, size: 0x8, addend: 0x0, symName: __ZN7testing8internal15TestFactoryImplIN12_GLOBAL__N_129CaesarDec_RotVec_OneElem_TestEED2Ev, symObjAddr: 0x258C0, symBinAddr: 0x100026F70, symSize: 0x50 }
  - { offset: 0x6D1CC, size: 0x8, addend: 0x0, symName: __ZN12_GLOBAL__N_129CaesarDec_RotVec_OneElem_TestC1Ev, symObjAddr: 0x25910, symBinAddr: 0x100026FC0, symSize: 0x50 }
  - { offset: 0x6D1F6, size: 0x8, addend: 0x0, symName: __ZN12_GLOBAL__N_129CaesarDec_RotVec_OneElem_TestC2Ev, symObjAddr: 0x25960, symBinAddr: 0x100027010, symSize: 0xC0 }
  - { offset: 0x6D220, size: 0x8, addend: 0x0, symName: __ZN12_GLOBAL__N_129CaesarDec_RotVec_OneElem_TestD1Ev, symObjAddr: 0x25A20, symBinAddr: 0x1000270D0, symSize: 0x50 }
  - { offset: 0x6D24A, size: 0x8, addend: 0x0, symName: __ZN12_GLOBAL__N_129CaesarDec_RotVec_OneElem_TestD0Ev, symObjAddr: 0x25A70, symBinAddr: 0x100027120, symSize: 0x60 }
  - { offset: 0x6D274, size: 0x8, addend: 0x0, symName: __ZN12_GLOBAL__N_129CaesarDec_RotVec_OneElem_Test8TestBodyEv, symObjAddr: 0x25AD0, symBinAddr: 0x100027180, symSize: 0xC40 }
  - { offset: 0x6D305, size: 0x8, addend: 0x0, symName: __ZN12_GLOBAL__N_129CaesarDec_RotVec_OneElem_TestD2Ev, symObjAddr: 0x26710, symBinAddr: 0x100027DC0, symSize: 0x50 }
  - { offset: 0x6D32F, size: 0x8, addend: 0x0, symName: __ZNSt3__16vectorINS_12basic_stringIcNS_11char_traitsIcEENS_9allocatorIcEEEENS4_IS6_EEEC1B8ne180100ESt16initializer_listIS6_E, symObjAddr: 0x26760, symBinAddr: 0x100027E10, symSize: 0x60 }
  - { offset: 0x6D368, size: 0x8, addend: 0x0, symName: __ZNSt3__16vectorINS_12basic_stringIcNS_11char_traitsIcEENS_9allocatorIcEEEENS4_IS6_EEE4dataB8ne180100Ev, symObjAddr: 0x267C0, symBinAddr: 0x100027E70, symSize: 0x88 }
  - { offset: 0x6D38E, size: 0x8, addend: 0x0, symName: __ZN7testing8internal8EqHelper7CompareIPNSt3__112basic_stringIcNS3_11char_traitsIcEENS3_9allocatorIcEEEESA_TnPNS3_9enable_ifIXoontsr3std11is_integralIT_EE5valuentsr3std10is_pointerIT0_EE5valueEvE4typeELPv0EEENS_15AssertionResultEPKcSK_RKSC_RKSD_, symObjAddr: 0x26848, symBinAddr: 0x100027EF8, symSize: 0xC8 }
  - { offset: 0x6D40E, size: 0x8, addend: 0x0, symName: __ZN7testing7MessagelsIA72_cEERS0_RKT_, symObjAddr: 0x26910, symBinAddr: 0x100027FC0, symSize: 0x120 }
  - { offset: 0x6D452, size: 0x8, addend: 0x0, symName: __ZNSt3__16vectorINS_12basic_stringIcNS_11char_traitsIcEENS_9allocatorIcEEEENS4_IS6_EEEC2B8ne180100ESt16initializer_listIS6_E, symObjAddr: 0x26A30, symBinAddr: 0x1000280E0, symSize: 0x4A8 }
  - { offset: 0x6D4A9, size: 0x8, addend: 0x0, symName: __ZNKSt16initializer_listINSt3__112basic_stringIcNS0_11char_traitsIcEENS0_9allocatorIcEEEEE4sizeB8ne180100Ev, symObjAddr: 0x26F50, symBinAddr: 0x100028600, symSize: 0x80 }
  - { offset: 0x6D4CF, size: 0x8, addend: 0x0, symName: __ZNSt3__16vectorINS_12basic_stringIcNS_11char_traitsIcEENS_9allocatorIcEEEENS4_IS6_EEE11__vallocateB8ne180100Em, symObjAddr: 0x26FD0, symBinAddr: 0x100028680, symSize: 0x430 }
  - { offset: 0x6D519, size: 0x8, addend: 0x0, symName: __ZNSt3__16vectorINS_12basic_stringIcNS_11char_traitsIcEENS_9allocatorIcEEEENS4_IS6_EEE18__construct_at_endIPKS6_SB_EEvT_T0_m, symObjAddr: 0x27400, symBinAddr: 0x100028AB0, symSize: 0x390 }
  - { offset: 0x6D595, size: 0x8, addend: 0x0, symName: __ZNKSt16initializer_listINSt3__112basic_stringIcNS0_11char_traitsIcEENS0_9allocatorIcEEEEE5beginB8ne180100Ev, symObjAddr: 0x27790, symBinAddr: 0x100028E40, symSize: 0x80 }
  - { offset: 0x6D5BB, size: 0x8, addend: 0x0, symName: __ZNKSt16initializer_listINSt3__112basic_stringIcNS0_11char_traitsIcEENS0_9allocatorIcEEEEE3endB8ne180100Ev, symObjAddr: 0x27810, symBinAddr: 0x100028EC0, symSize: 0x110 }
  - { offset: 0x6D5E1, size: 0x8, addend: 0x0, symName: __ZNSt3__128__exception_guard_exceptionsINS_6vectorINS_12basic_stringIcNS_11char_traitsIcEENS_9allocatorIcEEEENS5_IS7_EEE16__destroy_vectorEE10__completeB8ne180100Ev, symObjAddr: 0x27920, symBinAddr: 0x100028FD0, symSize: 0xA0 }
  - { offset: 0x6D607, size: 0x8, addend: 0x0, symName: __ZNSt3__128__exception_guard_exceptionsINS_6vectorINS_12basic_stringIcNS_11char_traitsIcEENS_9allocatorIcEEEENS5_IS7_EEE16__destroy_vectorEED1B8ne180100Ev, symObjAddr: 0x279C0, symBinAddr: 0x100029070, symSize: 0x50 }
  - { offset: 0x6D631, size: 0x8, addend: 0x0, symName: __ZNSt3__128__exception_guard_exceptionsINS_6vectorINS_12basic_stringIcNS_11char_traitsIcEENS_9allocatorIcEEEENS5_IS7_EEE16__destroy_vectorEEC1B8ne180100ESA_, symObjAddr: 0x27A10, symBinAddr: 0x1000290C0, symSize: 0x60 }
  - { offset: 0x6D669, size: 0x8, addend: 0x0, symName: __ZNSt3__128__exception_guard_exceptionsINS_6vectorINS_12basic_stringIcNS_11char_traitsIcEENS_9allocatorIcEEEENS5_IS7_EEE16__destroy_vectorEEC2B8ne180100ESA_, symObjAddr: 0x27A70, symBinAddr: 0x100029120, symSize: 0xB0 }
  - { offset: 0x6D6A1, size: 0x8, addend: 0x0, symName: __ZNKSt3__16vectorINS_12basic_stringIcNS_11char_traitsIcEENS_9allocatorIcEEEENS4_IS6_EEE8max_sizeEv, symObjAddr: 0x27B20, symBinAddr: 0x1000291D0, symSize: 0x280 }
  - { offset: 0x6D6C8, size: 0x8, addend: 0x0, symName: __ZNKSt3__16vectorINS_12basic_stringIcNS_11char_traitsIcEENS_9allocatorIcEEEENS4_IS6_EEE20__throw_length_errorB8ne180100Ev, symObjAddr: 0x27DA0, symBinAddr: 0x100029450, symSize: 0x78 }
  - { offset: 0x6D6EE, size: 0x8, addend: 0x0, symName: __ZNSt3__16vectorINS_12basic_stringIcNS_11char_traitsIcEENS_9allocatorIcEEEENS4_IS6_EEE9__end_capB8ne180100Ev, symObjAddr: 0x27E50, symBinAddr: 0x100029500, symSize: 0xC0 }
  - { offset: 0x6D714, size: 0x8, addend: 0x0, symName: __ZNKSt3__16vectorINS_12basic_stringIcNS_11char_traitsIcEENS_9allocatorIcEEEENS4_IS6_EEE14__annotate_newB8ne180100Em, symObjAddr: 0x27F10, symBinAddr: 0x1000295C0, symSize: 0x158 }
  - { offset: 0x6D754, size: 0x8, addend: 0x0, symName: __ZNSt3__116allocator_traitsINS_9allocatorINS_12basic_stringIcNS_11char_traitsIcEENS1_IcEEEEEEE8max_sizeB8ne180100IS7_vvEEmRKS7_, symObjAddr: 0x28138, symBinAddr: 0x1000297E8, symSize: 0x48 }
  - { offset: 0x6D77F, size: 0x8, addend: 0x0, symName: __ZNKSt3__16vectorINS_12basic_stringIcNS_11char_traitsIcEENS_9allocatorIcEEEENS4_IS6_EEE7__allocB8ne180100Ev, symObjAddr: 0x28180, symBinAddr: 0x100029830, symSize: 0xB8 }
  - { offset: 0x6D7A5, size: 0x8, addend: 0x0, symName: __ZNSt3__114numeric_limitsIlE3maxB8ne180100Ev, symObjAddr: 0x28238, symBinAddr: 0x1000298E8, symSize: 0x20 }
  - { offset: 0x6D7C3, size: 0x8, addend: 0x0, symName: __ZNKSt3__16__lessIvvEclB8ne180100ImmEEbRKT_RKT0_, symObjAddr: 0x28470, symBinAddr: 0x100029B20, symSize: 0xC8 }
  - { offset: 0x6D817, size: 0x8, addend: 0x0, symName: __ZNSt3__114numeric_limitsImE3maxB8ne180100Ev, symObjAddr: 0x28538, symBinAddr: 0x100029BE8, symSize: 0x20 }
  - { offset: 0x6D82B, size: 0x8, addend: 0x0, symName: __ZNSt3__123__libcpp_numeric_limitsImLb1EE3maxB8ne180100Ev, symObjAddr: 0x28558, symBinAddr: 0x100029C08, symSize: 0x18 }
  - { offset: 0x6D83F, size: 0x8, addend: 0x0, symName: __ZNKSt3__117__compressed_pairIPNS_12basic_stringIcNS_11char_traitsIcEENS_9allocatorIcEEEENS4_IS6_EEE6secondB8ne180100Ev, symObjAddr: 0x28570, symBinAddr: 0x100029C20, symSize: 0xC0 }
  - { offset: 0x6D865, size: 0x8, addend: 0x0, symName: __ZNKSt3__122__compressed_pair_elemINS_9allocatorINS_12basic_stringIcNS_11char_traitsIcEENS1_IcEEEEEELi1ELb1EE5__getB8ne180100Ev, symObjAddr: 0x28630, symBinAddr: 0x100029CE0, symSize: 0x68 }
  - { offset: 0x6D88B, size: 0x8, addend: 0x0, symName: __ZNSt3__123__libcpp_numeric_limitsIlLb1EE3maxB8ne180100Ev, symObjAddr: 0x28698, symBinAddr: 0x100029D48, symSize: 0x20 }
  - { offset: 0x6D89F, size: 0x8, addend: 0x0, symName: __ZNSt12length_errorC1B8ne180100EPKc, symObjAddr: 0x28760, symBinAddr: 0x100029E10, symSize: 0x60 }
  - { offset: 0x6D8D7, size: 0x8, addend: 0x0, symName: __ZNSt12length_errorC2B8ne180100EPKc, symObjAddr: 0x287C0, symBinAddr: 0x100029E70, symSize: 0xD0 }
  - { offset: 0x6D90F, size: 0x8, addend: 0x0, symName: __ZNSt3__19allocatorINS_12basic_stringIcNS_11char_traitsIcEENS0_IcEEEEE8allocateB8ne180100Em, symObjAddr: 0x28890, symBinAddr: 0x100029F40, symSize: 0xB8 }
  - { offset: 0x6D943, size: 0x8, addend: 0x0, symName: __ZNSt3__117__compressed_pairIPNS_12basic_stringIcNS_11char_traitsIcEENS_9allocatorIcEEEENS4_IS6_EEE5firstB8ne180100Ev, symObjAddr: 0x28AD0, symBinAddr: 0x10002A180, symSize: 0xE0 }
  - { offset: 0x6D984, size: 0x8, addend: 0x0, symName: __ZNSt3__16vectorINS_12basic_stringIcNS_11char_traitsIcEENS_9allocatorIcEEEENS4_IS6_EEE21_ConstructTransactionC1B8ne180100ERS8_m, symObjAddr: 0x28BB0, symBinAddr: 0x10002A260, symSize: 0x68 }
  - { offset: 0x6D9CC, size: 0x8, addend: 0x0, symName: __ZNSt3__16vectorINS_12basic_stringIcNS_11char_traitsIcEENS_9allocatorIcEEEENS4_IS6_EEE21_ConstructTransactionD1B8ne180100Ev, symObjAddr: 0x28E40, symBinAddr: 0x10002A4F0, symSize: 0x50 }
  - { offset: 0x6D9F6, size: 0x8, addend: 0x0, symName: __ZNSt3__16vectorINS_12basic_stringIcNS_11char_traitsIcEENS_9allocatorIcEEEENS4_IS6_EEE21_ConstructTransactionC2B8ne180100ERS8_m, symObjAddr: 0x28E90, symBinAddr: 0x10002A540, symSize: 0x2C0 }
  - { offset: 0x6DA3E, size: 0x8, addend: 0x0, symName: __ZNKSt3__16vectorINS_12basic_stringIcNS_11char_traitsIcEENS_9allocatorIcEEEENS4_IS6_EEE19__annotate_increaseB8ne180100Em, symObjAddr: 0x29150, symBinAddr: 0x10002A800, symSize: 0x1C8 }
  - { offset: 0x6DA8F, size: 0x8, addend: 0x0, symName: __ZNSt3__119__unwrap_range_implIPKNS_12basic_stringIcNS_11char_traitsIcEENS_9allocatorIcEEEES8_E8__unwrapB8ne180100ES8_S8_, symObjAddr: 0x298F8, symBinAddr: 0x10002AFA8, symSize: 0x1F0 }
  - { offset: 0x6DAC8, size: 0x8, addend: 0x0, symName: __ZNSt3__14pairIPKNS_12basic_stringIcNS_11char_traitsIcEENS_9allocatorIcEEEES8_EC1B8ne180100IS8_S8_TnNS_9enable_ifIXclsr10_CheckArgsE17__enable_implicitIT_T0_EEEiE4typeELi0EEEOSC_OSD_, symObjAddr: 0x29B10, symBinAddr: 0x10002B1C0, symSize: 0x68 }
  - { offset: 0x6DB27, size: 0x8, addend: 0x0, symName: __ZNSt3__118__unwrap_iter_implIPKNS_12basic_stringIcNS_11char_traitsIcEENS_9allocatorIcEEEELb1EE8__unwrapB8ne180100ES8_, symObjAddr: 0x29B78, symBinAddr: 0x10002B228, symSize: 0x28 }
  - { offset: 0x6DB4A, size: 0x8, addend: 0x0, symName: __ZNSt3__14pairIPKNS_12basic_stringIcNS_11char_traitsIcEENS_9allocatorIcEEEES8_EC2B8ne180100IS8_S8_TnNS_9enable_ifIXclsr10_CheckArgsE17__enable_implicitIT_T0_EEEiE4typeELi0EEEOSC_OSD_, symObjAddr: 0x29BA0, symBinAddr: 0x10002B250, symSize: 0x198 }
  - { offset: 0x6DBA9, size: 0x8, addend: 0x0, symName: __ZNSt3__129_AllocatorDestroyRangeReverseINS_9allocatorINS_12basic_stringIcNS_11char_traitsIcEENS1_IcEEEEEEPS6_EC1B8ne180100ERS7_RS8_SB_, symObjAddr: 0x29F30, symBinAddr: 0x10002B5E0, symSize: 0x78 }
  - { offset: 0x6DC00, size: 0x8, addend: 0x0, symName: __ZNSt3__116allocator_traitsINS_9allocatorINS_12basic_stringIcNS_11char_traitsIcEENS1_IcEEEEEEE9constructB8ne180100IS6_JRKS6_EvvEEvRS7_PT_DpOT0_, symObjAddr: 0x29FA8, symBinAddr: 0x10002B658, symSize: 0x68 }
  - { offset: 0x6DC54, size: 0x8, addend: 0x0, symName: __ZNSt3__128__exception_guard_exceptionsINS_29_AllocatorDestroyRangeReverseINS_9allocatorINS_12basic_stringIcNS_11char_traitsIcEENS2_IcEEEEEEPS7_EEE10__completeB8ne180100Ev, symObjAddr: 0x2A010, symBinAddr: 0x10002B6C0, symSize: 0xA0 }
  - { offset: 0x6DC7A, size: 0x8, addend: 0x0, symName: __ZNSt3__128__exception_guard_exceptionsINS_29_AllocatorDestroyRangeReverseINS_9allocatorINS_12basic_stringIcNS_11char_traitsIcEENS2_IcEEEEEEPS7_EEED1B8ne180100Ev, symObjAddr: 0x2A0B0, symBinAddr: 0x10002B760, symSize: 0x50 }
  - { offset: 0x6DCA4, size: 0x8, addend: 0x0, symName: __ZNSt3__128__exception_guard_exceptionsINS_29_AllocatorDestroyRangeReverseINS_9allocatorINS_12basic_stringIcNS_11char_traitsIcEENS2_IcEEEEEEPS7_EEEC1B8ne180100ESA_, symObjAddr: 0x2A100, symBinAddr: 0x10002B7B0, symSize: 0x280 }
  - { offset: 0x6DCE1, size: 0x8, addend: 0x0, symName: __ZNSt3__128__exception_guard_exceptionsINS_29_AllocatorDestroyRangeReverseINS_9allocatorINS_12basic_stringIcNS_11char_traitsIcEENS2_IcEEEEEEPS7_EEEC2B8ne180100ESA_, symObjAddr: 0x2A380, symBinAddr: 0x10002BA30, symSize: 0x220 }
  - { offset: 0x6DD1E, size: 0x8, addend: 0x0, symName: __ZNSt3__129_AllocatorDestroyRangeReverseINS_9allocatorINS_12basic_stringIcNS_11char_traitsIcEENS1_IcEEEEEEPS6_EC2B8ne180100ERS7_RS8_SB_, symObjAddr: 0x2A5A0, symBinAddr: 0x10002BC50, symSize: 0x198 }
  - { offset: 0x6DD75, size: 0x8, addend: 0x0, symName: __ZNSt3__128__exception_guard_exceptionsINS_29_AllocatorDestroyRangeReverseINS_9allocatorINS_12basic_stringIcNS_11char_traitsIcEENS2_IcEEEEEEPS7_EEED2B8ne180100Ev, symObjAddr: 0x2A880, symBinAddr: 0x10002BF30, symSize: 0x120 }
  - { offset: 0x6DD9F, size: 0x8, addend: 0x0, symName: __ZNKSt3__129_AllocatorDestroyRangeReverseINS_9allocatorINS_12basic_stringIcNS_11char_traitsIcEENS1_IcEEEEEEPS6_EclB8ne180100Ev, symObjAddr: 0x2A9A0, symBinAddr: 0x10002C050, symSize: 0x2E8 }
  - { offset: 0x6DDC6, size: 0x8, addend: 0x0, symName: __ZNSt3__116reverse_iteratorIPNS_12basic_stringIcNS_11char_traitsIcEENS_9allocatorIcEEEEEC1B8ne180100ES7_, symObjAddr: 0x2AE80, symBinAddr: 0x10002C530, symSize: 0x68 }
  - { offset: 0x6DDFE, size: 0x8, addend: 0x0, symName: __ZNSt3__116reverse_iteratorIPNS_12basic_stringIcNS_11char_traitsIcEENS_9allocatorIcEEEEEppB8ne180100Ev, symObjAddr: 0x2AFE0, symBinAddr: 0x10002C690, symSize: 0x130 }
  - { offset: 0x6DE24, size: 0x8, addend: 0x0, symName: __ZNKSt3__116reverse_iteratorIPNS_12basic_stringIcNS_11char_traitsIcEENS_9allocatorIcEEEEE4baseB8ne180100Ev, symObjAddr: 0x2B110, symBinAddr: 0x10002C7C0, symSize: 0x88 }
  - { offset: 0x6DE50, size: 0x8, addend: 0x0, symName: __ZNSt3__119__to_address_helperINS_16reverse_iteratorIPNS_12basic_stringIcNS_11char_traitsIcEENS_9allocatorIcEEEEEEvE6__callB8ne180100ERKS9_, symObjAddr: 0x2B198, symBinAddr: 0x10002C848, symSize: 0x68 }
  - { offset: 0x6DE73, size: 0x8, addend: 0x0, symName: __ZNKSt3__116reverse_iteratorIPNS_12basic_stringIcNS_11char_traitsIcEENS_9allocatorIcEEEEEptB8ne180100EvQoo12is_pointer_vIT_ErQS9__XcldtfpK_onptEE, symObjAddr: 0x2B200, symBinAddr: 0x10002C8B0, symSize: 0x98 }
  - { offset: 0x6DE99, size: 0x8, addend: 0x0, symName: __ZNSt3__116reverse_iteratorIPNS_12basic_stringIcNS_11char_traitsIcEENS_9allocatorIcEEEEEC2B8ne180100ES7_, symObjAddr: 0x2B5B0, symBinAddr: 0x10002CC60, symSize: 0xD8 }
  - { offset: 0x6DED1, size: 0x8, addend: 0x0, symName: __ZNSt3__118__unwrap_iter_implIPNS_12basic_stringIcNS_11char_traitsIcEENS_9allocatorIcEEEELb1EE8__unwrapB8ne180100ES7_, symObjAddr: 0x2B688, symBinAddr: 0x10002CD38, symSize: 0x30 }
  - { offset: 0x6DEF4, size: 0x8, addend: 0x0, symName: __ZNSt3__118__unwrap_iter_implIPNS_12basic_stringIcNS_11char_traitsIcEENS_9allocatorIcEEEELb1EE8__rewrapB8ne180100ES7_S7_, symObjAddr: 0x2B6B8, symBinAddr: 0x10002CD68, symSize: 0xB8 }
  - { offset: 0x6DF25, size: 0x8, addend: 0x0, symName: __ZNSt3__16vectorINS_12basic_stringIcNS_11char_traitsIcEENS_9allocatorIcEEEENS4_IS6_EEE21_ConstructTransactionD2B8ne180100Ev, symObjAddr: 0x2B770, symBinAddr: 0x10002CE20, symSize: 0x2F0 }
  - { offset: 0x6DF4F, size: 0x8, addend: 0x0, symName: __ZNKSt3__16vectorINS_12basic_stringIcNS_11char_traitsIcEENS_9allocatorIcEEEENS4_IS6_EEE17__annotate_shrinkB8ne180100Em, symObjAddr: 0x2BA60, symBinAddr: 0x10002D110, symSize: 0x150 }
  - { offset: 0x6DF84, size: 0x8, addend: 0x0, symName: __ZNSt3__128__exception_guard_exceptionsINS_6vectorINS_12basic_stringIcNS_11char_traitsIcEENS_9allocatorIcEEEENS5_IS7_EEE16__destroy_vectorEED2B8ne180100Ev, symObjAddr: 0x2BBB0, symBinAddr: 0x10002D260, symSize: 0x108 }
  - { offset: 0x6DFAE, size: 0x8, addend: 0x0, symName: __ZN7testing8internal19FormatForComparisonIPNSt3__112basic_stringIcNS2_11char_traitsIcEENS2_9allocatorIcEEEES9_E6FormatERKS9_, symObjAddr: 0x2C2D8, symBinAddr: 0x10002D988, symSize: 0x70 }
  - { offset: 0x6DFD2, size: 0x8, addend: 0x0, symName: __ZN7testing8internal21UniversalTersePrinterIPNSt3__112basic_stringIcNS2_11char_traitsIcEENS2_9allocatorIcEEEEE5PrintERKS9_PNS2_13basic_ostreamIcS5_EE, symObjAddr: 0x2C798, symBinAddr: 0x10002DE48, symSize: 0x60 }
  - { offset: 0x6E005, size: 0x8, addend: 0x0, symName: __ZN7testing8internal16UniversalPrinterIPNSt3__112basic_stringIcNS2_11char_traitsIcEENS2_9allocatorIcEEEEE5PrintERKS9_PNS2_13basic_ostreamIcS5_EE, symObjAddr: 0x2C858, symBinAddr: 0x10002DF08, symSize: 0x60 }
  - { offset: 0x6E038, size: 0x8, addend: 0x0, symName: __ZN7testing8internal14PointerPrinter10PrintValueINSt3__112basic_stringIcNS3_11char_traitsIcEENS3_9allocatorIcEEEEEEvPT_PNS3_13basic_ostreamIcS6_EE, symObjAddr: 0x2C978, symBinAddr: 0x10002E028, symSize: 0x158 }
  - { offset: 0x6E072, size: 0x8, addend: 0x0, symName: __ZNKSt3__110unique_ptrINS_18basic_stringstreamIcNS_11char_traitsIcEENS_9allocatorIcEEEENS_14default_deleteIS6_EEEdeB8ne180100Ev, symObjAddr: 0x2CAD0, symBinAddr: 0x10002E180, symSize: 0x120 }
  - { offset: 0x6E098, size: 0x8, addend: 0x0, symName: __ZNKSt3__117__compressed_pairIPNS_18basic_stringstreamIcNS_11char_traitsIcEENS_9allocatorIcEEEENS_14default_deleteIS6_EEE5firstB8ne180100Ev, symObjAddr: 0x2CBF0, symBinAddr: 0x10002E2A0, symSize: 0xE0 }
  - { offset: 0x6E0BE, size: 0x8, addend: 0x0, symName: __ZNKSt3__122__compressed_pair_elemIPNS_18basic_stringstreamIcNS_11char_traitsIcEENS_9allocatorIcEEEELi0ELb0EE5__getB8ne180100Ev, symObjAddr: 0x2CCD0, symBinAddr: 0x10002E380, symSize: 0x80 }
  - { offset: 0x6E0E4, size: 0x8, addend: 0x0, symName: __ZN7testing8internal15TestFactoryImplIN12_GLOBAL__N_135CaesarDec_RotVec_MultipleElems_TestEEC2Ev, symObjAddr: 0x2CD50, symBinAddr: 0x10002E400, symSize: 0xC0 }
  - { offset: 0x6E111, size: 0x8, addend: 0x0, symName: __ZN7testing8internal15TestFactoryImplIN12_GLOBAL__N_135CaesarDec_RotVec_MultipleElems_TestEED1Ev, symObjAddr: 0x2CE10, symBinAddr: 0x10002E4C0, symSize: 0x50 }
  - { offset: 0x6E13E, size: 0x8, addend: 0x0, symName: __ZN7testing8internal15TestFactoryImplIN12_GLOBAL__N_135CaesarDec_RotVec_MultipleElems_TestEED0Ev, symObjAddr: 0x2CE60, symBinAddr: 0x10002E510, symSize: 0x60 }
  - { offset: 0x6E16B, size: 0x8, addend: 0x0, symName: __ZN7testing8internal15TestFactoryImplIN12_GLOBAL__N_135CaesarDec_RotVec_MultipleElems_TestEE10CreateTestEv, symObjAddr: 0x2CEC0, symBinAddr: 0x10002E570, symSize: 0xF0 }
  - { offset: 0x6E191, size: 0x8, addend: 0x0, symName: __ZN7testing8internal15TestFactoryImplIN12_GLOBAL__N_135CaesarDec_RotVec_MultipleElems_TestEED2Ev, symObjAddr: 0x2CFB0, symBinAddr: 0x10002E660, symSize: 0x50 }
  - { offset: 0x6E1BE, size: 0x8, addend: 0x0, symName: __ZN12_GLOBAL__N_135CaesarDec_RotVec_MultipleElems_TestC1Ev, symObjAddr: 0x2D000, symBinAddr: 0x10002E6B0, symSize: 0x50 }
  - { offset: 0x6E1E8, size: 0x8, addend: 0x0, symName: __ZN12_GLOBAL__N_135CaesarDec_RotVec_MultipleElems_TestC2Ev, symObjAddr: 0x2D050, symBinAddr: 0x10002E700, symSize: 0xC0 }
  - { offset: 0x6E212, size: 0x8, addend: 0x0, symName: __ZN12_GLOBAL__N_135CaesarDec_RotVec_MultipleElems_TestD1Ev, symObjAddr: 0x2D110, symBinAddr: 0x10002E7C0, symSize: 0x50 }
  - { offset: 0x6E23C, size: 0x8, addend: 0x0, symName: __ZN12_GLOBAL__N_135CaesarDec_RotVec_MultipleElems_TestD0Ev, symObjAddr: 0x2D160, symBinAddr: 0x10002E810, symSize: 0x60 }
  - { offset: 0x6E266, size: 0x8, addend: 0x0, symName: __ZN12_GLOBAL__N_135CaesarDec_RotVec_MultipleElems_Test8TestBodyEv, symObjAddr: 0x2D1C0, symBinAddr: 0x10002E870, symSize: 0xB20 }
  - { offset: 0x6E2CB, size: 0x8, addend: 0x0, symName: __ZN12_GLOBAL__N_135CaesarDec_RotVec_MultipleElems_TestD2Ev, symObjAddr: 0x2DCE0, symBinAddr: 0x10002F390, symSize: 0x50 }
  - { offset: 0x6E2F5, size: 0x8, addend: 0x0, symName: __ZN7testing8internal26ParameterizedTestSuiteInfoIN12_GLOBAL__N_115CaesarDec_CleanEE14AddTestPatternEPKcS6_PNS0_19TestMetaFactoryBaseINSt3__15tupleIJNS8_12basic_stringIcNS8_11char_traitsIcEENS8_9allocatorIcEEEESF_EEEEENS0_12CodeLocationE, symObjAddr: 0x2DD30, symBinAddr: 0x10002F3E0, symSize: 0x430 }
  - { offset: 0x6E36F, size: 0x8, addend: 0x0, symName: __ZN7testing8internal15TestMetaFactoryIN12_GLOBAL__N_125CaesarDec_Clean_Case_TestEEC1Ev, symObjAddr: 0x2E160, symBinAddr: 0x10002F810, symSize: 0x50 }
  - { offset: 0x6E3A4, size: 0x8, addend: 0x0, symName: __ZNSt3__16vectorINS_10shared_ptrIN7testing8internal26ParameterizedTestSuiteInfoIN12_GLOBAL__N_115CaesarDec_CleanEE8TestInfoEEENS_9allocatorIS9_EEE12emplace_backIJPS8_EEERS9_DpOT_, symObjAddr: 0x2E1B0, symBinAddr: 0x10002F860, symSize: 0x2C0 }
  - { offset: 0x6E3F9, size: 0x8, addend: 0x0, symName: __ZN7testing8internal12CodeLocationC1EOS1_, symObjAddr: 0x2E470, symBinAddr: 0x10002FB20, symSize: 0x60 }
  - { offset: 0x6E42F, size: 0x8, addend: 0x0, symName: __ZN7testing8internal26ParameterizedTestSuiteInfoIN12_GLOBAL__N_115CaesarDec_CleanEE8TestInfoC1EPKcPNS0_19TestMetaFactoryBaseINSt3__15tupleIJNS9_12basic_stringIcNS9_11char_traitsIcEENS9_9allocatorIcEEEESG_EEEEENS0_12CodeLocationE, symObjAddr: 0x2E4D0, symBinAddr: 0x10002FB80, symSize: 0x70 }
  - { offset: 0x6E487, size: 0x8, addend: 0x0, symName: __ZNSt3__16vectorINS_10shared_ptrIN7testing8internal26ParameterizedTestSuiteInfoIN12_GLOBAL__N_115CaesarDec_CleanEE8TestInfoEEENS_9allocatorIS9_EEE9__end_capB8ne180100Ev, symObjAddr: 0x2E540, symBinAddr: 0x10002FBF0, symSize: 0xC0 }
  - { offset: 0x6E4AD, size: 0x8, addend: 0x0, symName: __ZNSt3__16vectorINS_10shared_ptrIN7testing8internal26ParameterizedTestSuiteInfoIN12_GLOBAL__N_115CaesarDec_CleanEE8TestInfoEEENS_9allocatorIS9_EEE22__construct_one_at_endB8ne180100IJPS8_EEEvDpOT_, symObjAddr: 0x2E600, symBinAddr: 0x10002FCB0, symSize: 0x3F0 }
  - { offset: 0x6E502, size: 0x8, addend: 0x0, symName: __ZNSt3__16vectorINS_10shared_ptrIN7testing8internal26ParameterizedTestSuiteInfoIN12_GLOBAL__N_115CaesarDec_CleanEE8TestInfoEEENS_9allocatorIS9_EEE24__emplace_back_slow_pathIJPS8_EEEPS9_DpOT_, symObjAddr: 0x2E9F0, symBinAddr: 0x1000300A0, symSize: 0x4E0 }
  - { offset: 0x6E567, size: 0x8, addend: 0x0, symName: __ZNSt3__117__compressed_pairIPNS_10shared_ptrIN7testing8internal26ParameterizedTestSuiteInfoIN12_GLOBAL__N_115CaesarDec_CleanEE8TestInfoEEENS_9allocatorIS9_EEE5firstB8ne180100Ev, symObjAddr: 0x2EED0, symBinAddr: 0x100030580, symSize: 0xE0 }
  - { offset: 0x6E58D, size: 0x8, addend: 0x0, symName: __ZNSt3__122__compressed_pair_elemIPNS_10shared_ptrIN7testing8internal26ParameterizedTestSuiteInfoIN12_GLOBAL__N_115CaesarDec_CleanEE8TestInfoEEELi0ELb0EE5__getB8ne180100Ev, symObjAddr: 0x2EFB0, symBinAddr: 0x100030660, symSize: 0x80 }
  - { offset: 0x6E5CE, size: 0x8, addend: 0x0, symName: __ZNSt3__16vectorINS_10shared_ptrIN7testing8internal26ParameterizedTestSuiteInfoIN12_GLOBAL__N_115CaesarDec_CleanEE8TestInfoEEENS_9allocatorIS9_EEE21_ConstructTransactionC1B8ne180100ERSC_m, symObjAddr: 0x2F030, symBinAddr: 0x1000306E0, symSize: 0x68 }
  - { offset: 0x6E616, size: 0x8, addend: 0x0, symName: __ZNSt3__116allocator_traitsINS_9allocatorINS_10shared_ptrIN7testing8internal26ParameterizedTestSuiteInfoIN12_GLOBAL__N_115CaesarDec_CleanEE8TestInfoEEEEEE9constructB8ne180100ISA_JPS9_EvvEEvRSB_PT_DpOT0_, symObjAddr: 0x2F098, symBinAddr: 0x100030748, symSize: 0x68 }
  - { offset: 0x6E66A, size: 0x8, addend: 0x0, symName: __ZNSt3__16vectorINS_10shared_ptrIN7testing8internal26ParameterizedTestSuiteInfoIN12_GLOBAL__N_115CaesarDec_CleanEE8TestInfoEEENS_9allocatorIS9_EEE7__allocB8ne180100Ev, symObjAddr: 0x2F100, symBinAddr: 0x1000307B0, symSize: 0xB8 }
  - { offset: 0x6E690, size: 0x8, addend: 0x0, symName: __ZNSt3__16vectorINS_10shared_ptrIN7testing8internal26ParameterizedTestSuiteInfoIN12_GLOBAL__N_115CaesarDec_CleanEE8TestInfoEEENS_9allocatorIS9_EEE21_ConstructTransactionD1B8ne180100Ev, symObjAddr: 0x2F1D0, symBinAddr: 0x100030880, symSize: 0x50 }
  - { offset: 0x6E6BA, size: 0x8, addend: 0x0, symName: __ZNSt3__16vectorINS_10shared_ptrIN7testing8internal26ParameterizedTestSuiteInfoIN12_GLOBAL__N_115CaesarDec_CleanEE8TestInfoEEENS_9allocatorIS9_EEE21_ConstructTransactionC2B8ne180100ERSC_m, symObjAddr: 0x2F220, symBinAddr: 0x1000308D0, symSize: 0x2C0 }
  - { offset: 0x6E702, size: 0x8, addend: 0x0, symName: __ZNKSt3__16vectorINS_10shared_ptrIN7testing8internal26ParameterizedTestSuiteInfoIN12_GLOBAL__N_115CaesarDec_CleanEE8TestInfoEEENS_9allocatorIS9_EEE19__annotate_increaseB8ne180100Em, symObjAddr: 0x2F4E0, symBinAddr: 0x100030B90, symSize: 0x1D0 }
  - { offset: 0x6E737, size: 0x8, addend: 0x0, symName: __ZNKSt3__16vectorINS_10shared_ptrIN7testing8internal26ParameterizedTestSuiteInfoIN12_GLOBAL__N_115CaesarDec_CleanEE8TestInfoEEENS_9allocatorIS9_EEE31__annotate_contiguous_containerB8ne180100EPKvSE_, symObjAddr: 0x2F6B0, symBinAddr: 0x100030D60, symSize: 0x100 }
  - { offset: 0x6E799, size: 0x8, addend: 0x0, symName: __ZNKSt3__16vectorINS_10shared_ptrIN7testing8internal26ParameterizedTestSuiteInfoIN12_GLOBAL__N_115CaesarDec_CleanEE8TestInfoEEENS_9allocatorIS9_EEE4dataB8ne180100Ev, symObjAddr: 0x2F7B0, symBinAddr: 0x100030E60, symSize: 0x80 }
  - { offset: 0x6E7BF, size: 0x8, addend: 0x0, symName: __ZNKSt3__16vectorINS_10shared_ptrIN7testing8internal26ParameterizedTestSuiteInfoIN12_GLOBAL__N_115CaesarDec_CleanEE8TestInfoEEENS_9allocatorIS9_EEE4sizeB8ne180100Ev, symObjAddr: 0x2F830, symBinAddr: 0x100030EE0, symSize: 0xC0 }
  - { offset: 0x6E7E5, size: 0x8, addend: 0x0, symName: __ZNKSt3__16vectorINS_10shared_ptrIN7testing8internal26ParameterizedTestSuiteInfoIN12_GLOBAL__N_115CaesarDec_CleanEE8TestInfoEEENS_9allocatorIS9_EEE8capacityB8ne180100Ev, symObjAddr: 0x2F8F0, symBinAddr: 0x100030FA0, symSize: 0x100 }
  - { offset: 0x6E80B, size: 0x8, addend: 0x0, symName: __ZNKSt3__16vectorINS_10shared_ptrIN7testing8internal26ParameterizedTestSuiteInfoIN12_GLOBAL__N_115CaesarDec_CleanEE8TestInfoEEENS_9allocatorIS9_EEE9__end_capB8ne180100Ev, symObjAddr: 0x2F9F0, symBinAddr: 0x1000310A0, symSize: 0xC0 }
  - { offset: 0x6E831, size: 0x8, addend: 0x0, symName: __ZNKSt3__117__compressed_pairIPNS_10shared_ptrIN7testing8internal26ParameterizedTestSuiteInfoIN12_GLOBAL__N_115CaesarDec_CleanEE8TestInfoEEENS_9allocatorIS9_EEE5firstB8ne180100Ev, symObjAddr: 0x2FAB0, symBinAddr: 0x100031160, symSize: 0xE0 }
  - { offset: 0x6E857, size: 0x8, addend: 0x0, symName: __ZNKSt3__122__compressed_pair_elemIPNS_10shared_ptrIN7testing8internal26ParameterizedTestSuiteInfoIN12_GLOBAL__N_115CaesarDec_CleanEE8TestInfoEEELi0ELb0EE5__getB8ne180100Ev, symObjAddr: 0x2FB90, symBinAddr: 0x100031240, symSize: 0x88 }
  - { offset: 0x6E87D, size: 0x8, addend: 0x0, symName: __ZNSt3__110shared_ptrIN7testing8internal26ParameterizedTestSuiteInfoIN12_GLOBAL__N_115CaesarDec_CleanEE8TestInfoEEC1B8ne180100IS7_vEEPT_, symObjAddr: 0x2FD80, symBinAddr: 0x100031430, symSize: 0x60 }
  - { offset: 0x6E8C0, size: 0x8, addend: 0x0, symName: __ZNSt3__110shared_ptrIN7testing8internal26ParameterizedTestSuiteInfoIN12_GLOBAL__N_115CaesarDec_CleanEE8TestInfoEEC2B8ne180100IS7_vEEPT_, symObjAddr: 0x2FDE0, symBinAddr: 0x100031490, symSize: 0x3D0 }
  - { offset: 0x6E9B8, size: 0x8, addend: 0x0, symName: __ZNSt3__110unique_ptrIN7testing8internal26ParameterizedTestSuiteInfoIN12_GLOBAL__N_115CaesarDec_CleanEE8TestInfoENS_14default_deleteIS7_EEEC1B8ne180100ILb1EvEEPS7_, symObjAddr: 0x301B0, symBinAddr: 0x100031860, symSize: 0x60 }
  - { offset: 0x6EA05, size: 0x8, addend: 0x0, symName: __ZNSt3__19allocatorIN7testing8internal26ParameterizedTestSuiteInfoIN12_GLOBAL__N_115CaesarDec_CleanEE8TestInfoEEC1B8ne180100Ev, symObjAddr: 0x30210, symBinAddr: 0x1000318C0, symSize: 0x40 }
  - { offset: 0x6EAD6, size: 0x8, addend: 0x0, symName: __ZNSt3__120__shared_ptr_pointerIPN7testing8internal26ParameterizedTestSuiteInfoIN12_GLOBAL__N_115CaesarDec_CleanEE8TestInfoENS_10shared_ptrIS7_E27__shared_ptr_default_deleteIS7_S7_EENS_9allocatorIS7_EEEC1B8ne180100ES8_SC_SE_, symObjAddr: 0x30250, symBinAddr: 0x100031900, symSize: 0x60 }
  - { offset: 0x6EB2A, size: 0x8, addend: 0x0, symName: __ZNSt3__110unique_ptrIN7testing8internal26ParameterizedTestSuiteInfoIN12_GLOBAL__N_115CaesarDec_CleanEE8TestInfoENS_14default_deleteIS7_EEE7releaseB8ne180100Ev, symObjAddr: 0x302B0, symBinAddr: 0x100031960, symSize: 0x190 }
  - { offset: 0x6EB5F, size: 0x8, addend: 0x0, symName: __ZNSt3__110shared_ptrIN7testing8internal26ParameterizedTestSuiteInfoIN12_GLOBAL__N_115CaesarDec_CleanEE8TestInfoEE18__enable_weak_thisB8ne180100Ez, symObjAddr: 0x30440, symBinAddr: 0x100031AF0, symSize: 0x50 }
  - { offset: 0x6EB87, size: 0x8, addend: 0x0, symName: __ZNSt3__110unique_ptrIN7testing8internal26ParameterizedTestSuiteInfoIN12_GLOBAL__N_115CaesarDec_CleanEE8TestInfoENS_14default_deleteIS7_EEED1B8ne180100Ev, symObjAddr: 0x30490, symBinAddr: 0x100031B40, symSize: 0x50 }
  - { offset: 0x6EBB1, size: 0x8, addend: 0x0, symName: __ZNSt3__110unique_ptrIN7testing8internal26ParameterizedTestSuiteInfoIN12_GLOBAL__N_115CaesarDec_CleanEE8TestInfoENS_14default_deleteIS7_EEEC2B8ne180100ILb1EvEEPS7_, symObjAddr: 0x304E0, symBinAddr: 0x100031B90, symSize: 0x1D0 }
  - { offset: 0x6EBF9, size: 0x8, addend: 0x0, symName: __ZNSt3__117__compressed_pairIPN7testing8internal26ParameterizedTestSuiteInfoIN12_GLOBAL__N_115CaesarDec_CleanEE8TestInfoENS_14default_deleteIS7_EEEC1B8ne180100IRS8_NS_16__value_init_tagEEEOT_OT0_, symObjAddr: 0x306B0, symBinAddr: 0x100031D60, symSize: 0x60 }
  - { offset: 0x6EC51, size: 0x8, addend: 0x0, symName: __ZNSt3__117__compressed_pairIPN7testing8internal26ParameterizedTestSuiteInfoIN12_GLOBAL__N_115CaesarDec_CleanEE8TestInfoENS_14default_deleteIS7_EEEC2B8ne180100IRS8_NS_16__value_init_tagEEEOT_OT0_, symObjAddr: 0x30710, symBinAddr: 0x100031DC0, symSize: 0xF0 }
  - { offset: 0x6ECA9, size: 0x8, addend: 0x0, symName: __ZNSt3__122__compressed_pair_elemIPN7testing8internal26ParameterizedTestSuiteInfoIN12_GLOBAL__N_115CaesarDec_CleanEE8TestInfoELi0ELb0EEC2B8ne180100IRS8_vEEOT_, symObjAddr: 0x30800, symBinAddr: 0x100031EB0, symSize: 0xF0 }
  - { offset: 0x6ECEB, size: 0x8, addend: 0x0, symName: __ZNSt3__122__compressed_pair_elemINS_14default_deleteIN7testing8internal26ParameterizedTestSuiteInfoIN12_GLOBAL__N_115CaesarDec_CleanEE8TestInfoEEELi1ELb1EEC2B8ne180100ENS_16__value_init_tagE, symObjAddr: 0x308F0, symBinAddr: 0x100031FA0, symSize: 0x40 }
  - { offset: 0x6ED20, size: 0x8, addend: 0x0, symName: __ZNSt3__19allocatorIN7testing8internal26ParameterizedTestSuiteInfoIN12_GLOBAL__N_115CaesarDec_CleanEE8TestInfoEEC2B8ne180100Ev, symObjAddr: 0x30930, symBinAddr: 0x100031FE0, symSize: 0x60 }
  - { offset: 0x6ED4A, size: 0x8, addend: 0x0, symName: __ZNSt3__116__non_trivial_ifILb1ENS_9allocatorIN7testing8internal26ParameterizedTestSuiteInfoIN12_GLOBAL__N_115CaesarDec_CleanEE8TestInfoEEEEC2B8ne180100Ev, symObjAddr: 0x30990, symBinAddr: 0x100032040, symSize: 0x40 }
  - { offset: 0x6ED74, size: 0x8, addend: 0x0, symName: __ZNSt3__120__shared_ptr_pointerIPN7testing8internal26ParameterizedTestSuiteInfoIN12_GLOBAL__N_115CaesarDec_CleanEE8TestInfoENS_10shared_ptrIS7_E27__shared_ptr_default_deleteIS7_S7_EENS_9allocatorIS7_EEEC2B8ne180100ES8_SC_SE_, symObjAddr: 0x309D0, symBinAddr: 0x100032080, symSize: 0x340 }
  - { offset: 0x6EDD5, size: 0x8, addend: 0x0, symName: __ZNSt3__119__shared_weak_countC2B8ne180100El, symObjAddr: 0x30D10, symBinAddr: 0x1000323C0, symSize: 0x110 }
  - { offset: 0x6EE13, size: 0x8, addend: 0x0, symName: __ZNSt3__117__compressed_pairIPN7testing8internal26ParameterizedTestSuiteInfoIN12_GLOBAL__N_115CaesarDec_CleanEE8TestInfoENS_10shared_ptrIS7_E27__shared_ptr_default_deleteIS7_S7_EEEC1B8ne180100IRS8_SC_EEOT_OT0_, symObjAddr: 0x30E20, symBinAddr: 0x1000324D0, symSize: 0x60 }
  - { offset: 0x6EE77, size: 0x8, addend: 0x0, symName: __ZNSt3__117__compressed_pairINS0_IPN7testing8internal26ParameterizedTestSuiteInfoIN12_GLOBAL__N_115CaesarDec_CleanEE8TestInfoENS_10shared_ptrIS7_E27__shared_ptr_default_deleteIS7_S7_EEEENS_9allocatorIS7_EEEC1B8ne180100ISD_SF_EEOT_OT0_, symObjAddr: 0x30E80, symBinAddr: 0x100032530, symSize: 0x60 }
  - { offset: 0x6EECF, size: 0x8, addend: 0x0, symName: __ZNSt3__120__shared_ptr_pointerIPN7testing8internal26ParameterizedTestSuiteInfoIN12_GLOBAL__N_115CaesarDec_CleanEE8TestInfoENS_10shared_ptrIS7_E27__shared_ptr_default_deleteIS7_S7_EENS_9allocatorIS7_EEED1Ev, symObjAddr: 0x30EE0, symBinAddr: 0x100032590, symSize: 0x50 }
  - { offset: 0x6EEFB, size: 0x8, addend: 0x0, symName: __ZNSt3__120__shared_ptr_pointerIPN7testing8internal26ParameterizedTestSuiteInfoIN12_GLOBAL__N_115CaesarDec_CleanEE8TestInfoENS_10shared_ptrIS7_E27__shared_ptr_default_deleteIS7_S7_EENS_9allocatorIS7_EEED0Ev, symObjAddr: 0x30F30, symBinAddr: 0x1000325E0, symSize: 0x60 }
  - { offset: 0x6EF27, size: 0x8, addend: 0x0, symName: __ZNSt3__120__shared_ptr_pointerIPN7testing8internal26ParameterizedTestSuiteInfoIN12_GLOBAL__N_115CaesarDec_CleanEE8TestInfoENS_10shared_ptrIS7_E27__shared_ptr_default_deleteIS7_S7_EENS_9allocatorIS7_EEE16__on_zero_sharedEv, symObjAddr: 0x30F90, symBinAddr: 0x100032640, symSize: 0x3E0 }
  - { offset: 0x6EF4D, size: 0x8, addend: 0x0, symName: __ZNKSt3__120__shared_ptr_pointerIPN7testing8internal26ParameterizedTestSuiteInfoIN12_GLOBAL__N_115CaesarDec_CleanEE8TestInfoENS_10shared_ptrIS7_E27__shared_ptr_default_deleteIS7_S7_EENS_9allocatorIS7_EEE13__get_deleterERKSt9type_info, symObjAddr: 0x31370, symBinAddr: 0x100032A20, symSize: 0x260 }
  - { offset: 0x6EF81, size: 0x8, addend: 0x0, symName: __ZNSt3__120__shared_ptr_pointerIPN7testing8internal26ParameterizedTestSuiteInfoIN12_GLOBAL__N_115CaesarDec_CleanEE8TestInfoENS_10shared_ptrIS7_E27__shared_ptr_default_deleteIS7_S7_EENS_9allocatorIS7_EEE21__on_zero_shared_weakEv, symObjAddr: 0x315D0, symBinAddr: 0x100032C80, symSize: 0x380 }
  - { offset: 0x6EFC5, size: 0x8, addend: 0x0, symName: __ZNSt3__114__shared_countC2B8ne180100El, symObjAddr: 0x31950, symBinAddr: 0x100033000, symSize: 0xD0 }
  - { offset: 0x6EFFD, size: 0x8, addend: 0x0, symName: __ZNSt3__117__compressed_pairIPN7testing8internal26ParameterizedTestSuiteInfoIN12_GLOBAL__N_115CaesarDec_CleanEE8TestInfoENS_10shared_ptrIS7_E27__shared_ptr_default_deleteIS7_S7_EEEC2B8ne180100IRS8_SC_EEOT_OT0_, symObjAddr: 0x31A20, symBinAddr: 0x1000330D0, symSize: 0x110 }
  - { offset: 0x6F055, size: 0x8, addend: 0x0, symName: __ZNSt3__122__compressed_pair_elemINS_10shared_ptrIN7testing8internal26ParameterizedTestSuiteInfoIN12_GLOBAL__N_115CaesarDec_CleanEE8TestInfoEE27__shared_ptr_default_deleteIS8_S8_EELi1ELb1EEC2B8ne180100ISB_vEEOT_, symObjAddr: 0x31B30, symBinAddr: 0x1000331E0, symSize: 0x40 }
  - { offset: 0x6F097, size: 0x8, addend: 0x0, symName: __ZNSt3__117__compressed_pairINS0_IPN7testing8internal26ParameterizedTestSuiteInfoIN12_GLOBAL__N_115CaesarDec_CleanEE8TestInfoENS_10shared_ptrIS7_E27__shared_ptr_default_deleteIS7_S7_EEEENS_9allocatorIS7_EEEC2B8ne180100ISD_SF_EEOT_OT0_, symObjAddr: 0x31B70, symBinAddr: 0x100033220, symSize: 0x110 }
  - { offset: 0x6F0EF, size: 0x8, addend: 0x0, symName: __ZNSt3__122__compressed_pair_elemINS_17__compressed_pairIPN7testing8internal26ParameterizedTestSuiteInfoIN12_GLOBAL__N_115CaesarDec_CleanEE8TestInfoENS_10shared_ptrIS8_E27__shared_ptr_default_deleteIS8_S8_EEEELi0ELb0EEC2B8ne180100ISE_vEEOT_, symObjAddr: 0x31C80, symBinAddr: 0x100033330, symSize: 0x60 }
  - { offset: 0x6F131, size: 0x8, addend: 0x0, symName: __ZNSt3__122__compressed_pair_elemINS_9allocatorIN7testing8internal26ParameterizedTestSuiteInfoIN12_GLOBAL__N_115CaesarDec_CleanEE8TestInfoEEELi1ELb1EEC2B8ne180100IS9_vEEOT_, symObjAddr: 0x31CE0, symBinAddr: 0x100033390, symSize: 0x40 }
  - { offset: 0x6F173, size: 0x8, addend: 0x0, symName: __ZNSt3__120__shared_ptr_pointerIPN7testing8internal26ParameterizedTestSuiteInfoIN12_GLOBAL__N_115CaesarDec_CleanEE8TestInfoENS_10shared_ptrIS7_E27__shared_ptr_default_deleteIS7_S7_EENS_9allocatorIS7_EEED2Ev, symObjAddr: 0x31D20, symBinAddr: 0x1000333D0, symSize: 0x50 }
  - { offset: 0x6F19F, size: 0x8, addend: 0x0, symName: __ZNSt3__117__compressed_pairINS0_IPN7testing8internal26ParameterizedTestSuiteInfoIN12_GLOBAL__N_115CaesarDec_CleanEE8TestInfoENS_10shared_ptrIS7_E27__shared_ptr_default_deleteIS7_S7_EEEENS_9allocatorIS7_EEE5firstB8ne180100Ev, symObjAddr: 0x31D70, symBinAddr: 0x100033420, symSize: 0xE0 }
  - { offset: 0x6F1C5, size: 0x8, addend: 0x0, symName: __ZNSt3__117__compressed_pairIPN7testing8internal26ParameterizedTestSuiteInfoIN12_GLOBAL__N_115CaesarDec_CleanEE8TestInfoENS_10shared_ptrIS7_E27__shared_ptr_default_deleteIS7_S7_EEE6secondB8ne180100Ev, symObjAddr: 0x31E50, symBinAddr: 0x100033500, symSize: 0xC0 }
  - { offset: 0x6F1EB, size: 0x8, addend: 0x0, symName: __ZNKSt3__114default_deleteIN7testing8internal26ParameterizedTestSuiteInfoIN12_GLOBAL__N_115CaesarDec_CleanEE8TestInfoEEclB8ne180100EPS7_, symObjAddr: 0x31F10, symBinAddr: 0x1000335C0, symSize: 0x90 }
  - { offset: 0x6F21F, size: 0x8, addend: 0x0, symName: __ZNSt3__117__compressed_pairIPN7testing8internal26ParameterizedTestSuiteInfoIN12_GLOBAL__N_115CaesarDec_CleanEE8TestInfoENS_10shared_ptrIS7_E27__shared_ptr_default_deleteIS7_S7_EEE5firstB8ne180100Ev, symObjAddr: 0x31FA0, symBinAddr: 0x100033650, symSize: 0xE0 }
  - { offset: 0x6F245, size: 0x8, addend: 0x0, symName: __ZNSt3__122__compressed_pair_elemINS_17__compressed_pairIPN7testing8internal26ParameterizedTestSuiteInfoIN12_GLOBAL__N_115CaesarDec_CleanEE8TestInfoENS_10shared_ptrIS8_E27__shared_ptr_default_deleteIS8_S8_EEEELi0ELb0EE5__getB8ne180100Ev, symObjAddr: 0x32080, symBinAddr: 0x100033730, symSize: 0x80 }
  - { offset: 0x6F26B, size: 0x8, addend: 0x0, symName: __ZNSt3__122__compressed_pair_elemINS_10shared_ptrIN7testing8internal26ParameterizedTestSuiteInfoIN12_GLOBAL__N_115CaesarDec_CleanEE8TestInfoEE27__shared_ptr_default_deleteIS8_S8_EELi1ELb1EE5__getB8ne180100Ev, symObjAddr: 0x32100, symBinAddr: 0x1000337B0, symSize: 0x60 }
  - { offset: 0x6F291, size: 0x8, addend: 0x0, symName: __ZN7testing8internal26ParameterizedTestSuiteInfoIN12_GLOBAL__N_115CaesarDec_CleanEE8TestInfoD1Ev, symObjAddr: 0x32160, symBinAddr: 0x100033810, symSize: 0x50 }
  - { offset: 0x6F2BE, size: 0x8, addend: 0x0, symName: __ZN7testing8internal26ParameterizedTestSuiteInfoIN12_GLOBAL__N_115CaesarDec_CleanEE8TestInfoD2Ev, symObjAddr: 0x321B0, symBinAddr: 0x100033860, symSize: 0x70 }
  - { offset: 0x6F2EB, size: 0x8, addend: 0x0, symName: __ZNSt3__110unique_ptrIN7testing8internal19TestMetaFactoryBaseINS_5tupleIJNS_12basic_stringIcNS_11char_traitsIcEENS_9allocatorIcEEEESA_EEEEENS_14default_deleteISC_EEED1B8ne180100Ev, symObjAddr: 0x32220, symBinAddr: 0x1000338D0, symSize: 0x50 }
  - { offset: 0x6F315, size: 0x8, addend: 0x0, symName: __ZNSt3__110unique_ptrIN7testing8internal19TestMetaFactoryBaseINS_5tupleIJNS_12basic_stringIcNS_11char_traitsIcEENS_9allocatorIcEEEESA_EEEEENS_14default_deleteISC_EEED2B8ne180100Ev, symObjAddr: 0x32270, symBinAddr: 0x100033920, symSize: 0x60 }
  - { offset: 0x6F33F, size: 0x8, addend: 0x0, symName: __ZNSt3__110unique_ptrIN7testing8internal19TestMetaFactoryBaseINS_5tupleIJNS_12basic_stringIcNS_11char_traitsIcEENS_9allocatorIcEEEESA_EEEEENS_14default_deleteISC_EEE5resetB8ne180100EPSC_, symObjAddr: 0x322D0, symBinAddr: 0x100033980, symSize: 0x210 }
  - { offset: 0x6F383, size: 0x8, addend: 0x0, symName: __ZNSt3__117__compressed_pairIPN7testing8internal19TestMetaFactoryBaseINS_5tupleIJNS_12basic_stringIcNS_11char_traitsIcEENS_9allocatorIcEEEESA_EEEEENS_14default_deleteISC_EEE5firstB8ne180100Ev, symObjAddr: 0x324E0, symBinAddr: 0x100033B90, symSize: 0xE0 }
  - { offset: 0x6F3A9, size: 0x8, addend: 0x0, symName: __ZNSt3__117__compressed_pairIPN7testing8internal19TestMetaFactoryBaseINS_5tupleIJNS_12basic_stringIcNS_11char_traitsIcEENS_9allocatorIcEEEESA_EEEEENS_14default_deleteISC_EEE6secondB8ne180100Ev, symObjAddr: 0x325C0, symBinAddr: 0x100033C70, symSize: 0xC0 }
  - { offset: 0x6F3CF, size: 0x8, addend: 0x0, symName: __ZNKSt3__114default_deleteIN7testing8internal19TestMetaFactoryBaseINS_5tupleIJNS_12basic_stringIcNS_11char_traitsIcEENS_9allocatorIcEEEESA_EEEEEEclB8ne180100EPSC_, symObjAddr: 0x32680, symBinAddr: 0x100033D30, symSize: 0x190 }
  - { offset: 0x6F403, size: 0x8, addend: 0x0, symName: __ZNSt3__122__compressed_pair_elemIPN7testing8internal19TestMetaFactoryBaseINS_5tupleIJNS_12basic_stringIcNS_11char_traitsIcEENS_9allocatorIcEEEESA_EEEEELi0ELb0EE5__getB8ne180100Ev, symObjAddr: 0x32810, symBinAddr: 0x100033EC0, symSize: 0x80 }
  - { offset: 0x6F429, size: 0x8, addend: 0x0, symName: __ZNSt3__122__compressed_pair_elemINS_14default_deleteIN7testing8internal19TestMetaFactoryBaseINS_5tupleIJNS_12basic_stringIcNS_11char_traitsIcEENS_9allocatorIcEEEESB_EEEEEEELi1ELb1EE5__getB8ne180100Ev, symObjAddr: 0x32890, symBinAddr: 0x100033F40, symSize: 0x60 }
  - { offset: 0x6F44F, size: 0x8, addend: 0x0, symName: __ZNSt3__122__compressed_pair_elemIPN7testing8internal26ParameterizedTestSuiteInfoIN12_GLOBAL__N_115CaesarDec_CleanEE8TestInfoELi0ELb0EE5__getB8ne180100Ev, symObjAddr: 0x328F0, symBinAddr: 0x100033FA0, symSize: 0x80 }
  - { offset: 0x6F495, size: 0x8, addend: 0x0, symName: __ZNKSt9type_infoeqB8ne180100ERKS_, symObjAddr: 0x32970, symBinAddr: 0x100034020, symSize: 0x190 }
  - { offset: 0x6F4F3, size: 0x8, addend: 0x0, symName: __ZNKSt3__117__compressed_pairINS0_IPN7testing8internal26ParameterizedTestSuiteInfoIN12_GLOBAL__N_115CaesarDec_CleanEE8TestInfoENS_10shared_ptrIS7_E27__shared_ptr_default_deleteIS7_S7_EEEENS_9allocatorIS7_EEE5firstB8ne180100Ev, symObjAddr: 0x32B00, symBinAddr: 0x1000341B0, symSize: 0xE0 }
  - { offset: 0x6F519, size: 0x8, addend: 0x0, symName: __ZNKSt3__117__compressed_pairIPN7testing8internal26ParameterizedTestSuiteInfoIN12_GLOBAL__N_115CaesarDec_CleanEE8TestInfoENS_10shared_ptrIS7_E27__shared_ptr_default_deleteIS7_S7_EEE6secondB8ne180100Ev, symObjAddr: 0x32BE0, symBinAddr: 0x100034290, symSize: 0xC0 }
  - { offset: 0x6F53F, size: 0x8, addend: 0x0, symName: __ZNKSt3__122__compressed_pair_elemINS_17__compressed_pairIPN7testing8internal26ParameterizedTestSuiteInfoIN12_GLOBAL__N_115CaesarDec_CleanEE8TestInfoENS_10shared_ptrIS8_E27__shared_ptr_default_deleteIS8_S8_EEEELi0ELb0EE5__getB8ne180100Ev, symObjAddr: 0x32CA0, symBinAddr: 0x100034350, symSize: 0x80 }
  - { offset: 0x6F565, size: 0x8, addend: 0x0, symName: __ZNKSt3__122__compressed_pair_elemINS_10shared_ptrIN7testing8internal26ParameterizedTestSuiteInfoIN12_GLOBAL__N_115CaesarDec_CleanEE8TestInfoEE27__shared_ptr_default_deleteIS8_S8_EELi1ELb1EE5__getB8ne180100Ev, symObjAddr: 0x32D20, symBinAddr: 0x1000343D0, symSize: 0x60 }
  - { offset: 0x6F58B, size: 0x8, addend: 0x0, symName: __ZNSt3__117__compressed_pairINS0_IPN7testing8internal26ParameterizedTestSuiteInfoIN12_GLOBAL__N_115CaesarDec_CleanEE8TestInfoENS_10shared_ptrIS7_E27__shared_ptr_default_deleteIS7_S7_EEEENS_9allocatorIS7_EEE6secondB8ne180100Ev, symObjAddr: 0x32D80, symBinAddr: 0x100034430, symSize: 0xC0 }
  - { offset: 0x6F5C0, size: 0x8, addend: 0x0, symName: __ZNSt3__19allocatorINS_20__shared_ptr_pointerIPN7testing8internal26ParameterizedTestSuiteInfoIN12_GLOBAL__N_115CaesarDec_CleanEE8TestInfoENS_10shared_ptrIS8_E27__shared_ptr_default_deleteIS8_S8_EENS0_IS8_EEEEEC1B8ne180100IS8_EERKNS0_IT_EE, symObjAddr: 0x32E40, symBinAddr: 0x1000344F0, symSize: 0x50 }
  - { offset: 0x6F5FE, size: 0x8, addend: 0x0, symName: __ZNSt3__19allocatorINS_20__shared_ptr_pointerIPN7testing8internal26ParameterizedTestSuiteInfoIN12_GLOBAL__N_115CaesarDec_CleanEE8TestInfoENS_10shared_ptrIS8_E27__shared_ptr_default_deleteIS8_S8_EENS0_IS8_EEEEE10deallocateB8ne180100EPSF_m, symObjAddr: 0x32E90, symBinAddr: 0x100034540, symSize: 0x78 }
  - { offset: 0x6F646, size: 0x8, addend: 0x0, symName: __ZNSt3__114pointer_traitsIPNS_20__shared_ptr_pointerIPN7testing8internal26ParameterizedTestSuiteInfoIN12_GLOBAL__N_115CaesarDec_CleanEE8TestInfoENS_10shared_ptrIS8_E27__shared_ptr_default_deleteIS8_S8_EENS_9allocatorIS8_EEEEE10pointer_toB8ne180100ERSG_, symObjAddr: 0x32F08, symBinAddr: 0x1000345B8, symSize: 0x18 }
  - { offset: 0x6F669, size: 0x8, addend: 0x0, symName: __ZNSt3__122__compressed_pair_elemINS_9allocatorIN7testing8internal26ParameterizedTestSuiteInfoIN12_GLOBAL__N_115CaesarDec_CleanEE8TestInfoEEELi1ELb1EE5__getB8ne180100Ev, symObjAddr: 0x32F20, symBinAddr: 0x1000345D0, symSize: 0x60 }
  - { offset: 0x6F68F, size: 0x8, addend: 0x0, symName: __ZNSt3__19allocatorINS_20__shared_ptr_pointerIPN7testing8internal26ParameterizedTestSuiteInfoIN12_GLOBAL__N_115CaesarDec_CleanEE8TestInfoENS_10shared_ptrIS8_E27__shared_ptr_default_deleteIS8_S8_EENS0_IS8_EEEEEC2B8ne180100IS8_EERKNS0_IT_EE, symObjAddr: 0x32F80, symBinAddr: 0x100034630, symSize: 0x60 }
  - { offset: 0x6F6CD, size: 0x8, addend: 0x0, symName: __ZNSt3__116__non_trivial_ifILb1ENS_9allocatorINS_20__shared_ptr_pointerIPN7testing8internal26ParameterizedTestSuiteInfoIN12_GLOBAL__N_115CaesarDec_CleanEE8TestInfoENS_10shared_ptrIS9_E27__shared_ptr_default_deleteIS9_S9_EENS1_IS9_EEEEEEEC2B8ne180100Ev, symObjAddr: 0x32FE0, symBinAddr: 0x100034690, symSize: 0x40 }
  - { offset: 0x6F6F7, size: 0x8, addend: 0x0, symName: __ZNSt3__117__compressed_pairIPN7testing8internal26ParameterizedTestSuiteInfoIN12_GLOBAL__N_115CaesarDec_CleanEE8TestInfoENS_14default_deleteIS7_EEE5firstB8ne180100Ev, symObjAddr: 0x33020, symBinAddr: 0x1000346D0, symSize: 0xE0 }
  - { offset: 0x6F71D, size: 0x8, addend: 0x0, symName: __ZNSt3__110unique_ptrIN7testing8internal26ParameterizedTestSuiteInfoIN12_GLOBAL__N_115CaesarDec_CleanEE8TestInfoENS_14default_deleteIS7_EEED2B8ne180100Ev, symObjAddr: 0x33100, symBinAddr: 0x1000347B0, symSize: 0x60 }
  - { offset: 0x6F747, size: 0x8, addend: 0x0, symName: __ZNSt3__110unique_ptrIN7testing8internal26ParameterizedTestSuiteInfoIN12_GLOBAL__N_115CaesarDec_CleanEE8TestInfoENS_14default_deleteIS7_EEE5resetB8ne180100EPS7_, symObjAddr: 0x33160, symBinAddr: 0x100034810, symSize: 0x210 }
  - { offset: 0x6F78B, size: 0x8, addend: 0x0, symName: __ZNSt3__117__compressed_pairIPN7testing8internal26ParameterizedTestSuiteInfoIN12_GLOBAL__N_115CaesarDec_CleanEE8TestInfoENS_14default_deleteIS7_EEE6secondB8ne180100Ev, symObjAddr: 0x33370, symBinAddr: 0x100034A20, symSize: 0xC0 }
  - { offset: 0x6F7B1, size: 0x8, addend: 0x0, symName: __ZNSt3__122__compressed_pair_elemINS_14default_deleteIN7testing8internal26ParameterizedTestSuiteInfoIN12_GLOBAL__N_115CaesarDec_CleanEE8TestInfoEEELi1ELb1EE5__getB8ne180100Ev, symObjAddr: 0x33430, symBinAddr: 0x100034AE0, symSize: 0x60 }
  - { offset: 0x6F7D7, size: 0x8, addend: 0x0, symName: __ZNSt3__117__compressed_pairIPNS_10shared_ptrIN7testing8internal26ParameterizedTestSuiteInfoIN12_GLOBAL__N_115CaesarDec_CleanEE8TestInfoEEENS_9allocatorIS9_EEE6secondB8ne180100Ev, symObjAddr: 0x33490, symBinAddr: 0x100034B40, symSize: 0xC0 }
  - { offset: 0x6F7FD, size: 0x8, addend: 0x0, symName: __ZNSt3__122__compressed_pair_elemINS_9allocatorINS_10shared_ptrIN7testing8internal26ParameterizedTestSuiteInfoIN12_GLOBAL__N_115CaesarDec_CleanEE8TestInfoEEEEELi1ELb1EE5__getB8ne180100Ev, symObjAddr: 0x33550, symBinAddr: 0x100034C00, symSize: 0x60 }
  - { offset: 0x6F823, size: 0x8, addend: 0x0, symName: __ZNSt3__16vectorINS_10shared_ptrIN7testing8internal26ParameterizedTestSuiteInfoIN12_GLOBAL__N_115CaesarDec_CleanEE8TestInfoEEENS_9allocatorIS9_EEE21_ConstructTransactionD2B8ne180100Ev, symObjAddr: 0x335B0, symBinAddr: 0x100034C60, symSize: 0x2E0 }
  - { offset: 0x6F84D, size: 0x8, addend: 0x0, symName: __ZNKSt3__16vectorINS_10shared_ptrIN7testing8internal26ParameterizedTestSuiteInfoIN12_GLOBAL__N_115CaesarDec_CleanEE8TestInfoEEENS_9allocatorIS9_EEE17__annotate_shrinkB8ne180100Em, symObjAddr: 0x33890, symBinAddr: 0x100034F40, symSize: 0x160 }
  - { offset: 0x6F882, size: 0x8, addend: 0x0, symName: __ZNKSt3__16vectorINS_10shared_ptrIN7testing8internal26ParameterizedTestSuiteInfoIN12_GLOBAL__N_115CaesarDec_CleanEE8TestInfoEEENS_9allocatorIS9_EEE11__recommendB8ne180100Em, symObjAddr: 0x339F0, symBinAddr: 0x1000350A0, symSize: 0x310 }
  - { offset: 0x6F8DC, size: 0x8, addend: 0x0, symName: __ZNSt3__114__split_bufferINS_10shared_ptrIN7testing8internal26ParameterizedTestSuiteInfoIN12_GLOBAL__N_115CaesarDec_CleanEE8TestInfoEEERNS_9allocatorIS9_EEEC1EmmSC_, symObjAddr: 0x33D00, symBinAddr: 0x1000353B0, symSize: 0x70 }
  - { offset: 0x6F930, size: 0x8, addend: 0x0, symName: __ZNSt3__114__split_bufferINS_10shared_ptrIN7testing8internal26ParameterizedTestSuiteInfoIN12_GLOBAL__N_115CaesarDec_CleanEE8TestInfoEEERNS_9allocatorIS9_EEED1Ev, symObjAddr: 0x34430, symBinAddr: 0x100035AE0, symSize: 0x50 }
  - { offset: 0x6F95A, size: 0x8, addend: 0x0, symName: __ZNKSt3__16vectorINS_10shared_ptrIN7testing8internal26ParameterizedTestSuiteInfoIN12_GLOBAL__N_115CaesarDec_CleanEE8TestInfoEEENS_9allocatorIS9_EEE8max_sizeEv, symObjAddr: 0x34480, symBinAddr: 0x100035B30, symSize: 0x280 }
  - { offset: 0x6F981, size: 0x8, addend: 0x0, symName: __ZNKSt3__16vectorINS_10shared_ptrIN7testing8internal26ParameterizedTestSuiteInfoIN12_GLOBAL__N_115CaesarDec_CleanEE8TestInfoEEENS_9allocatorIS9_EEE20__throw_length_errorB8ne180100Ev, symObjAddr: 0x34700, symBinAddr: 0x100035DB0, symSize: 0x78 }
  - { offset: 0x6F9B2, size: 0x8, addend: 0x0, symName: __ZNSt3__116allocator_traitsINS_9allocatorINS_10shared_ptrIN7testing8internal26ParameterizedTestSuiteInfoIN12_GLOBAL__N_115CaesarDec_CleanEE8TestInfoEEEEEE8max_sizeB8ne180100ISB_vvEEmRKSB_, symObjAddr: 0x34848, symBinAddr: 0x100035EF8, symSize: 0x48 }
  - { offset: 0x6F9DD, size: 0x8, addend: 0x0, symName: __ZNKSt3__16vectorINS_10shared_ptrIN7testing8internal26ParameterizedTestSuiteInfoIN12_GLOBAL__N_115CaesarDec_CleanEE8TestInfoEEENS_9allocatorIS9_EEE7__allocB8ne180100Ev, symObjAddr: 0x34890, symBinAddr: 0x100035F40, symSize: 0xB0 }
  - { offset: 0x6FA03, size: 0x8, addend: 0x0, symName: __ZNKSt3__117__compressed_pairIPNS_10shared_ptrIN7testing8internal26ParameterizedTestSuiteInfoIN12_GLOBAL__N_115CaesarDec_CleanEE8TestInfoEEENS_9allocatorIS9_EEE6secondB8ne180100Ev, symObjAddr: 0x34940, symBinAddr: 0x100035FF0, symSize: 0xC0 }
  - { offset: 0x6FA29, size: 0x8, addend: 0x0, symName: __ZNKSt3__122__compressed_pair_elemINS_9allocatorINS_10shared_ptrIN7testing8internal26ParameterizedTestSuiteInfoIN12_GLOBAL__N_115CaesarDec_CleanEE8TestInfoEEEEELi1ELb1EE5__getB8ne180100Ev, symObjAddr: 0x34A00, symBinAddr: 0x1000360B0, symSize: 0x68 }
  - { offset: 0x6FA4F, size: 0x8, addend: 0x0, symName: __ZNSt3__114__split_bufferINS_10shared_ptrIN7testing8internal26ParameterizedTestSuiteInfoIN12_GLOBAL__N_115CaesarDec_CleanEE8TestInfoEEERNS_9allocatorIS9_EEEC2EmmSC_, symObjAddr: 0x34C80, symBinAddr: 0x100036330, symSize: 0x5B0 }
  - { offset: 0x6FAC8, size: 0x8, addend: 0x0, symName: __ZNSt3__117__compressed_pairIPNS_10shared_ptrIN7testing8internal26ParameterizedTestSuiteInfoIN12_GLOBAL__N_115CaesarDec_CleanEE8TestInfoEEERNS_9allocatorIS9_EEEC1B8ne180100IDnSD_EEOT_OT0_, symObjAddr: 0x35230, symBinAddr: 0x1000368E0, symSize: 0x68 }
  - { offset: 0x6FB20, size: 0x8, addend: 0x0, symName: __ZNSt3__114__split_bufferINS_10shared_ptrIN7testing8internal26ParameterizedTestSuiteInfoIN12_GLOBAL__N_115CaesarDec_CleanEE8TestInfoEEERNS_9allocatorIS9_EEE7__allocB8ne180100Ev, symObjAddr: 0x352D0, symBinAddr: 0x100036980, symSize: 0xB0 }
  - { offset: 0x6FB46, size: 0x8, addend: 0x0, symName: __ZNSt3__114__split_bufferINS_10shared_ptrIN7testing8internal26ParameterizedTestSuiteInfoIN12_GLOBAL__N_115CaesarDec_CleanEE8TestInfoEEERNS_9allocatorIS9_EEE9__end_capB8ne180100Ev, symObjAddr: 0x35380, symBinAddr: 0x100036A30, symSize: 0xC0 }
  - { offset: 0x6FB6C, size: 0x8, addend: 0x0, symName: __ZNSt3__117__compressed_pairIPNS_10shared_ptrIN7testing8internal26ParameterizedTestSuiteInfoIN12_GLOBAL__N_115CaesarDec_CleanEE8TestInfoEEERNS_9allocatorIS9_EEEC2B8ne180100IDnSD_EEOT_OT0_, symObjAddr: 0x35440, symBinAddr: 0x100036AF0, symSize: 0x130 }
  - { offset: 0x6FBC4, size: 0x8, addend: 0x0, symName: __ZNSt3__122__compressed_pair_elemIPNS_10shared_ptrIN7testing8internal26ParameterizedTestSuiteInfoIN12_GLOBAL__N_115CaesarDec_CleanEE8TestInfoEEELi0ELb0EEC2B8ne180100IDnvEEOT_, symObjAddr: 0x35570, symBinAddr: 0x100036C20, symSize: 0x80 }
  - { offset: 0x6FC06, size: 0x8, addend: 0x0, symName: __ZNSt3__122__compressed_pair_elemIRNS_9allocatorINS_10shared_ptrIN7testing8internal26ParameterizedTestSuiteInfoIN12_GLOBAL__N_115CaesarDec_CleanEE8TestInfoEEEEELi1ELb0EEC2B8ne180100ISC_vEEOT_, symObjAddr: 0x355F0, symBinAddr: 0x100036CA0, symSize: 0xA0 }
  - { offset: 0x6FC48, size: 0x8, addend: 0x0, symName: __ZNSt3__19allocatorINS_10shared_ptrIN7testing8internal26ParameterizedTestSuiteInfoIN12_GLOBAL__N_115CaesarDec_CleanEE8TestInfoEEEE8allocateB8ne180100Em, symObjAddr: 0x35690, symBinAddr: 0x100036D40, symSize: 0xB0 }
  - { offset: 0x6FC7C, size: 0x8, addend: 0x0, symName: __ZNSt3__117__compressed_pairIPNS_10shared_ptrIN7testing8internal26ParameterizedTestSuiteInfoIN12_GLOBAL__N_115CaesarDec_CleanEE8TestInfoEEERNS_9allocatorIS9_EEE6secondB8ne180100Ev, symObjAddr: 0x35740, symBinAddr: 0x100036DF0, symSize: 0xD0 }
  - { offset: 0x6FCA2, size: 0x8, addend: 0x0, symName: __ZNSt3__122__compressed_pair_elemIRNS_9allocatorINS_10shared_ptrIN7testing8internal26ParameterizedTestSuiteInfoIN12_GLOBAL__N_115CaesarDec_CleanEE8TestInfoEEEEELi1ELb0EE5__getB8ne180100Ev, symObjAddr: 0x35810, symBinAddr: 0x100036EC0, symSize: 0xA0 }
  - { offset: 0x6FCC8, size: 0x8, addend: 0x0, symName: __ZNSt3__117__compressed_pairIPNS_10shared_ptrIN7testing8internal26ParameterizedTestSuiteInfoIN12_GLOBAL__N_115CaesarDec_CleanEE8TestInfoEEERNS_9allocatorIS9_EEE5firstB8ne180100Ev, symObjAddr: 0x358B0, symBinAddr: 0x100036F60, symSize: 0xE0 }
  - { offset: 0x6FCEE, size: 0x8, addend: 0x0, symName: __ZNKSt3__16vectorINS_10shared_ptrIN7testing8internal26ParameterizedTestSuiteInfoIN12_GLOBAL__N_115CaesarDec_CleanEE8TestInfoEEENS_9allocatorIS9_EEE17__annotate_deleteB8ne180100Ev, symObjAddr: 0x35990, symBinAddr: 0x100037040, symSize: 0x168 }
  - { offset: 0x6FD14, size: 0x8, addend: 0x0, symName: __ZNSt3__116reverse_iteratorIPNS_10shared_ptrIN7testing8internal26ParameterizedTestSuiteInfoIN12_GLOBAL__N_115CaesarDec_CleanEE8TestInfoEEEEC1B8ne180100ESA_, symObjAddr: 0x36070, symBinAddr: 0x100037720, symSize: 0x60 }
  - { offset: 0x6FD4C, size: 0x8, addend: 0x0, symName: __ZNKSt3__116reverse_iteratorIPNS_10shared_ptrIN7testing8internal26ParameterizedTestSuiteInfoIN12_GLOBAL__N_115CaesarDec_CleanEE8TestInfoEEEE4baseB8ne180100Ev, symObjAddr: 0x360D0, symBinAddr: 0x100037780, symSize: 0x88 }
  - { offset: 0x6FD72, size: 0x8, addend: 0x0, symName: __ZNKSt3__16vectorINS_10shared_ptrIN7testing8internal26ParameterizedTestSuiteInfoIN12_GLOBAL__N_115CaesarDec_CleanEE8TestInfoEEENS_9allocatorIS9_EEE14__annotate_newB8ne180100Em, symObjAddr: 0x362C0, symBinAddr: 0x100037970, symSize: 0x168 }
  - { offset: 0x6FDA7, size: 0x8, addend: 0x0, symName: __ZNSt3__129_AllocatorDestroyRangeReverseINS_9allocatorINS_10shared_ptrIN7testing8internal26ParameterizedTestSuiteInfoIN12_GLOBAL__N_115CaesarDec_CleanEE8TestInfoEEEEENS_16reverse_iteratorIPSA_EEEC1B8ne180100ERSB_RSE_SH_, symObjAddr: 0x36620, symBinAddr: 0x100037CD0, symSize: 0x78 }
  - { offset: 0x6FDFE, size: 0x8, addend: 0x0, symName: __ZNSt3__116allocator_traitsINS_9allocatorINS_10shared_ptrIN7testing8internal26ParameterizedTestSuiteInfoIN12_GLOBAL__N_115CaesarDec_CleanEE8TestInfoEEEEEE9constructB8ne180100ISA_JSA_EvvEEvRSB_PT_DpOT0_, symObjAddr: 0x36738, symBinAddr: 0x100037DE8, symSize: 0x70 }
  - { offset: 0x6FE52, size: 0x8, addend: 0x0, symName: __ZNKSt3__116reverse_iteratorIPNS_10shared_ptrIN7testing8internal26ParameterizedTestSuiteInfoIN12_GLOBAL__N_115CaesarDec_CleanEE8TestInfoEEEEdeB8ne180100Ev, symObjAddr: 0x36800, symBinAddr: 0x100037EB0, symSize: 0x110 }
  - { offset: 0x6FE86, size: 0x8, addend: 0x0, symName: __ZNSt3__116reverse_iteratorIPNS_10shared_ptrIN7testing8internal26ParameterizedTestSuiteInfoIN12_GLOBAL__N_115CaesarDec_CleanEE8TestInfoEEEEppB8ne180100Ev, symObjAddr: 0x36910, symBinAddr: 0x100037FC0, symSize: 0x130 }
  - { offset: 0x6FEAC, size: 0x8, addend: 0x0, symName: __ZNSt3__128__exception_guard_exceptionsINS_29_AllocatorDestroyRangeReverseINS_9allocatorINS_10shared_ptrIN7testing8internal26ParameterizedTestSuiteInfoIN12_GLOBAL__N_115CaesarDec_CleanEE8TestInfoEEEEENS_16reverse_iteratorIPSB_EEEEE10__completeB8ne180100Ev, symObjAddr: 0x36A40, symBinAddr: 0x1000380F0, symSize: 0xA0 }
  - { offset: 0x6FED2, size: 0x8, addend: 0x0, symName: __ZNSt3__128__exception_guard_exceptionsINS_29_AllocatorDestroyRangeReverseINS_9allocatorINS_10shared_ptrIN7testing8internal26ParameterizedTestSuiteInfoIN12_GLOBAL__N_115CaesarDec_CleanEE8TestInfoEEEEENS_16reverse_iteratorIPSB_EEEEED1B8ne180100Ev, symObjAddr: 0x36AE0, symBinAddr: 0x100038190, symSize: 0x50 }
  - { offset: 0x6FEFC, size: 0x8, addend: 0x0, symName: __ZNSt3__128__exception_guard_exceptionsINS_29_AllocatorDestroyRangeReverseINS_9allocatorINS_10shared_ptrIN7testing8internal26ParameterizedTestSuiteInfoIN12_GLOBAL__N_115CaesarDec_CleanEE8TestInfoEEEEENS_16reverse_iteratorIPSB_EEEEEC1B8ne180100ESG_, symObjAddr: 0x36B30, symBinAddr: 0x1000381E0, symSize: 0x280 }
  - { offset: 0x6FF39, size: 0x8, addend: 0x0, symName: __ZNSt3__128__exception_guard_exceptionsINS_29_AllocatorDestroyRangeReverseINS_9allocatorINS_10shared_ptrIN7testing8internal26ParameterizedTestSuiteInfoIN12_GLOBAL__N_115CaesarDec_CleanEE8TestInfoEEEEENS_16reverse_iteratorIPSB_EEEEEC2B8ne180100ESG_, symObjAddr: 0x36DB0, symBinAddr: 0x100038460, symSize: 0x220 }
  - { offset: 0x6FF76, size: 0x8, addend: 0x0, symName: __ZNSt3__129_AllocatorDestroyRangeReverseINS_9allocatorINS_10shared_ptrIN7testing8internal26ParameterizedTestSuiteInfoIN12_GLOBAL__N_115CaesarDec_CleanEE8TestInfoEEEEENS_16reverse_iteratorIPSA_EEEC2B8ne180100ERSB_RSE_SH_, symObjAddr: 0x36FD0, symBinAddr: 0x100038680, symSize: 0x198 }
  - { offset: 0x6FFCD, size: 0x8, addend: 0x0, symName: __ZNSt3__110shared_ptrIN7testing8internal26ParameterizedTestSuiteInfoIN12_GLOBAL__N_115CaesarDec_CleanEE8TestInfoEEC1B8ne180100EOS8_, symObjAddr: 0x372B0, symBinAddr: 0x100038960, symSize: 0x60 }
  - { offset: 0x70006, size: 0x8, addend: 0x0, symName: __ZNSt3__110shared_ptrIN7testing8internal26ParameterizedTestSuiteInfoIN12_GLOBAL__N_115CaesarDec_CleanEE8TestInfoEEC2B8ne180100EOS8_, symObjAddr: 0x37310, symBinAddr: 0x1000389C0, symSize: 0x238 }
  - { offset: 0x70045, size: 0x8, addend: 0x0, symName: __ZNSt3__119__to_address_helperINS_16reverse_iteratorIPNS_10shared_ptrIN7testing8internal26ParameterizedTestSuiteInfoIN12_GLOBAL__N_115CaesarDec_CleanEE8TestInfoEEEEEvE6__callB8ne180100ERKSC_, symObjAddr: 0x37548, symBinAddr: 0x100038BF8, symSize: 0x68 }
  - { offset: 0x70068, size: 0x8, addend: 0x0, symName: __ZNKSt3__116reverse_iteratorIPNS_10shared_ptrIN7testing8internal26ParameterizedTestSuiteInfoIN12_GLOBAL__N_115CaesarDec_CleanEE8TestInfoEEEEptB8ne180100EvQoo12is_pointer_vIT_ErQSC__XcldtfpK_onptEE, symObjAddr: 0x375B0, symBinAddr: 0x100038C60, symSize: 0x98 }
  - { offset: 0x7008E, size: 0x8, addend: 0x0, symName: __ZNSt3__128__exception_guard_exceptionsINS_29_AllocatorDestroyRangeReverseINS_9allocatorINS_10shared_ptrIN7testing8internal26ParameterizedTestSuiteInfoIN12_GLOBAL__N_115CaesarDec_CleanEE8TestInfoEEEEENS_16reverse_iteratorIPSB_EEEEED2B8ne180100Ev, symObjAddr: 0x37940, symBinAddr: 0x100038FF0, symSize: 0x120 }
  - { offset: 0x700B8, size: 0x8, addend: 0x0, symName: __ZNKSt3__129_AllocatorDestroyRangeReverseINS_9allocatorINS_10shared_ptrIN7testing8internal26ParameterizedTestSuiteInfoIN12_GLOBAL__N_115CaesarDec_CleanEE8TestInfoEEEEENS_16reverse_iteratorIPSA_EEEclB8ne180100Ev, symObjAddr: 0x37A60, symBinAddr: 0x100039110, symSize: 0x328 }
  - { offset: 0x700DF, size: 0x8, addend: 0x0, symName: __ZNSt3__116reverse_iteratorINS0_IPNS_10shared_ptrIN7testing8internal26ParameterizedTestSuiteInfoIN12_GLOBAL__N_115CaesarDec_CleanEE8TestInfoEEEEEEC1B8ne180100ESB_, symObjAddr: 0x38080, symBinAddr: 0x100039730, symSize: 0x68 }
  - { offset: 0x70117, size: 0x8, addend: 0x0, symName: __ZNSt3__116allocator_traitsINS_9allocatorINS_10shared_ptrIN7testing8internal26ParameterizedTestSuiteInfoIN12_GLOBAL__N_115CaesarDec_CleanEE8TestInfoEEEEEE7destroyB8ne180100ISA_vvEEvRSB_PT_, symObjAddr: 0x38308, symBinAddr: 0x1000399B8, symSize: 0x30 }
  - { offset: 0x70151, size: 0x8, addend: 0x0, symName: __ZNSt3__116reverse_iteratorINS0_IPNS_10shared_ptrIN7testing8internal26ParameterizedTestSuiteInfoIN12_GLOBAL__N_115CaesarDec_CleanEE8TestInfoEEEEEEppB8ne180100Ev, symObjAddr: 0x38390, symBinAddr: 0x100039A40, symSize: 0xC0 }
  - { offset: 0x70177, size: 0x8, addend: 0x0, symName: __ZNKSt3__116reverse_iteratorINS0_IPNS_10shared_ptrIN7testing8internal26ParameterizedTestSuiteInfoIN12_GLOBAL__N_115CaesarDec_CleanEE8TestInfoEEEEEE4baseB8ne180100Ev, symObjAddr: 0x38450, symBinAddr: 0x100039B00, symSize: 0x78 }
  - { offset: 0x7019D, size: 0x8, addend: 0x0, symName: __ZNSt3__110shared_ptrIN7testing8internal26ParameterizedTestSuiteInfoIN12_GLOBAL__N_115CaesarDec_CleanEE8TestInfoEED1B8ne180100Ev, symObjAddr: 0x38520, symBinAddr: 0x100039BD0, symSize: 0x50 }
  - { offset: 0x701C7, size: 0x8, addend: 0x0, symName: __ZNSt3__110shared_ptrIN7testing8internal26ParameterizedTestSuiteInfoIN12_GLOBAL__N_115CaesarDec_CleanEE8TestInfoEED2B8ne180100Ev, symObjAddr: 0x38570, symBinAddr: 0x100039C20, symSize: 0x1A0 }
  - { offset: 0x701F1, size: 0x8, addend: 0x0, symName: __ZNSt3__119__shared_weak_count16__release_sharedB8ne180100Ev, symObjAddr: 0x38710, symBinAddr: 0x100039DC0, symSize: 0x1A0 }
  - { offset: 0x70217, size: 0x8, addend: 0x0, symName: __ZNSt3__114__shared_count16__release_sharedB8ne180100Ev, symObjAddr: 0x388B0, symBinAddr: 0x100039F60, symSize: 0x228 }
  - { offset: 0x70243, size: 0x8, addend: 0x0, symName: __ZNSt3__119__to_address_helperINS_16reverse_iteratorINS1_IPNS_10shared_ptrIN7testing8internal26ParameterizedTestSuiteInfoIN12_GLOBAL__N_115CaesarDec_CleanEE8TestInfoEEEEEEEvE6__callB8ne180100ERKSD_, symObjAddr: 0x38B58, symBinAddr: 0x10003A208, symSize: 0x68 }
  - { offset: 0x70266, size: 0x8, addend: 0x0, symName: __ZNKSt3__116reverse_iteratorINS0_IPNS_10shared_ptrIN7testing8internal26ParameterizedTestSuiteInfoIN12_GLOBAL__N_115CaesarDec_CleanEE8TestInfoEEEEEEptB8ne180100EvQoo12is_pointer_vIT_ErQSD__XcldtfpK_onptEE, symObjAddr: 0x38BC0, symBinAddr: 0x10003A270, symSize: 0x1C8 }
  - { offset: 0x7028D, size: 0x8, addend: 0x0, symName: __ZNSt3__116reverse_iteratorIPNS_10shared_ptrIN7testing8internal26ParameterizedTestSuiteInfoIN12_GLOBAL__N_115CaesarDec_CleanEE8TestInfoEEEEpLB8ne180100El, symObjAddr: 0x39040, symBinAddr: 0x10003A6F0, symSize: 0x170 }
  - { offset: 0x702C1, size: 0x8, addend: 0x0, symName: __ZNSt3__116reverse_iteratorIPNS_10shared_ptrIN7testing8internal26ParameterizedTestSuiteInfoIN12_GLOBAL__N_115CaesarDec_CleanEE8TestInfoEEEEmmB8ne180100Ev, symObjAddr: 0x391B0, symBinAddr: 0x10003A860, symSize: 0x130 }
  - { offset: 0x702E7, size: 0x8, addend: 0x0, symName: __ZNSt3__116reverse_iteratorINS0_IPNS_10shared_ptrIN7testing8internal26ParameterizedTestSuiteInfoIN12_GLOBAL__N_115CaesarDec_CleanEE8TestInfoEEEEEEC2B8ne180100ESB_, symObjAddr: 0x392E0, symBinAddr: 0x10003A990, symSize: 0x80 }
  - { offset: 0x7031F, size: 0x8, addend: 0x0, symName: __ZNSt3__116reverse_iteratorIPNS_10shared_ptrIN7testing8internal26ParameterizedTestSuiteInfoIN12_GLOBAL__N_115CaesarDec_CleanEE8TestInfoEEEEC2B8ne180100ESA_, symObjAddr: 0x39360, symBinAddr: 0x10003AA10, symSize: 0xD0 }
  - { offset: 0x70357, size: 0x8, addend: 0x0, symName: __ZNSt3__114__split_bufferINS_10shared_ptrIN7testing8internal26ParameterizedTestSuiteInfoIN12_GLOBAL__N_115CaesarDec_CleanEE8TestInfoEEERNS_9allocatorIS9_EEED2Ev, symObjAddr: 0x39430, symBinAddr: 0x10003AAE0, symSize: 0x120 }
  - { offset: 0x70381, size: 0x8, addend: 0x0, symName: __ZNSt3__114__split_bufferINS_10shared_ptrIN7testing8internal26ParameterizedTestSuiteInfoIN12_GLOBAL__N_115CaesarDec_CleanEE8TestInfoEEERNS_9allocatorIS9_EEE5clearB8ne180100Ev, symObjAddr: 0x39550, symBinAddr: 0x10003AC00, symSize: 0x98 }
  - { offset: 0x703A7, size: 0x8, addend: 0x0, symName: __ZNSt3__116allocator_traitsINS_9allocatorINS_10shared_ptrIN7testing8internal26ParameterizedTestSuiteInfoIN12_GLOBAL__N_115CaesarDec_CleanEE8TestInfoEEEEEE10deallocateB8ne180100ERSB_PSA_m, symObjAddr: 0x395E8, symBinAddr: 0x10003AC98, symSize: 0x38 }
  - { offset: 0x703E9, size: 0x8, addend: 0x0, symName: __ZNKSt3__114__split_bufferINS_10shared_ptrIN7testing8internal26ParameterizedTestSuiteInfoIN12_GLOBAL__N_115CaesarDec_CleanEE8TestInfoEEERNS_9allocatorIS9_EEE8capacityB8ne180100Ev, symObjAddr: 0x39620, symBinAddr: 0x10003ACD0, symSize: 0x100 }
  - { offset: 0x7040F, size: 0x8, addend: 0x0, symName: __ZNSt3__114__split_bufferINS_10shared_ptrIN7testing8internal26ParameterizedTestSuiteInfoIN12_GLOBAL__N_115CaesarDec_CleanEE8TestInfoEEERNS_9allocatorIS9_EEE17__destruct_at_endB8ne180100EPS9_, symObjAddr: 0x39720, symBinAddr: 0x10003ADD0, symSize: 0x60 }
  - { offset: 0x70443, size: 0x8, addend: 0x0, symName: __ZNSt3__114__split_bufferINS_10shared_ptrIN7testing8internal26ParameterizedTestSuiteInfoIN12_GLOBAL__N_115CaesarDec_CleanEE8TestInfoEEERNS_9allocatorIS9_EEE17__destruct_at_endB8ne180100EPS9_NS_17integral_constantIbLb0EEE, symObjAddr: 0x39780, symBinAddr: 0x10003AE30, symSize: 0x1B0 }
  - { offset: 0x70482, size: 0x8, addend: 0x0, symName: __ZNSt3__19allocatorINS_10shared_ptrIN7testing8internal26ParameterizedTestSuiteInfoIN12_GLOBAL__N_115CaesarDec_CleanEE8TestInfoEEEE10deallocateB8ne180100EPS9_m, symObjAddr: 0x39930, symBinAddr: 0x10003AFE0, symSize: 0x70 }
  - { offset: 0x704C4, size: 0x8, addend: 0x0, symName: __ZNKSt3__114__split_bufferINS_10shared_ptrIN7testing8internal26ParameterizedTestSuiteInfoIN12_GLOBAL__N_115CaesarDec_CleanEE8TestInfoEEERNS_9allocatorIS9_EEE9__end_capB8ne180100Ev, symObjAddr: 0x399A0, symBinAddr: 0x10003B050, symSize: 0xC0 }
  - { offset: 0x704EA, size: 0x8, addend: 0x0, symName: __ZNKSt3__117__compressed_pairIPNS_10shared_ptrIN7testing8internal26ParameterizedTestSuiteInfoIN12_GLOBAL__N_115CaesarDec_CleanEE8TestInfoEEERNS_9allocatorIS9_EEE5firstB8ne180100Ev, symObjAddr: 0x39A60, symBinAddr: 0x10003B110, symSize: 0xE0 }
  - { offset: 0x70510, size: 0x8, addend: 0x0, symName: __ZN7testing8internal12CodeLocationC2EOS1_, symObjAddr: 0x39B40, symBinAddr: 0x10003B1F0, symSize: 0x1D0 }
  - { offset: 0x70546, size: 0x8, addend: 0x0, symName: __ZN7testing8internal26ParameterizedTestSuiteInfoIN12_GLOBAL__N_115CaesarDec_CleanEE8TestInfoC2EPKcPNS0_19TestMetaFactoryBaseINSt3__15tupleIJNS9_12basic_stringIcNS9_11char_traitsIcEENS9_9allocatorIcEEEESG_EEEEENS0_12CodeLocationE, symObjAddr: 0x39D10, symBinAddr: 0x10003B3C0, symSize: 0xC0 }
  - { offset: 0x7059E, size: 0x8, addend: 0x0, symName: __ZNSt3__110unique_ptrIN7testing8internal19TestMetaFactoryBaseINS_5tupleIJNS_12basic_stringIcNS_11char_traitsIcEENS_9allocatorIcEEEESA_EEEEENS_14default_deleteISC_EEEC1B8ne180100ILb1EvEEPSC_, symObjAddr: 0x39DD0, symBinAddr: 0x10003B480, symSize: 0x60 }
  - { offset: 0x705E1, size: 0x8, addend: 0x0, symName: __ZNSt3__110unique_ptrIN7testing8internal19TestMetaFactoryBaseINS_5tupleIJNS_12basic_stringIcNS_11char_traitsIcEENS_9allocatorIcEEEESA_EEEEENS_14default_deleteISC_EEEC2B8ne180100ILb1EvEEPSC_, symObjAddr: 0x39E30, symBinAddr: 0x10003B4E0, symSize: 0x1D0 }
  - { offset: 0x70629, size: 0x8, addend: 0x0, symName: __ZNSt3__117__compressed_pairIPN7testing8internal19TestMetaFactoryBaseINS_5tupleIJNS_12basic_stringIcNS_11char_traitsIcEENS_9allocatorIcEEEESA_EEEEENS_14default_deleteISC_EEEC1B8ne180100IRSD_NS_16__value_init_tagEEEOT_OT0_, symObjAddr: 0x3A000, symBinAddr: 0x10003B6B0, symSize: 0x60 }
  - { offset: 0x70681, size: 0x8, addend: 0x0, symName: __ZNSt3__117__compressed_pairIPN7testing8internal19TestMetaFactoryBaseINS_5tupleIJNS_12basic_stringIcNS_11char_traitsIcEENS_9allocatorIcEEEESA_EEEEENS_14default_deleteISC_EEEC2B8ne180100IRSD_NS_16__value_init_tagEEEOT_OT0_, symObjAddr: 0x3A060, symBinAddr: 0x10003B710, symSize: 0xF0 }
  - { offset: 0x706D9, size: 0x8, addend: 0x0, symName: __ZNSt3__122__compressed_pair_elemIPN7testing8internal19TestMetaFactoryBaseINS_5tupleIJNS_12basic_stringIcNS_11char_traitsIcEENS_9allocatorIcEEEESA_EEEEELi0ELb0EEC2B8ne180100IRSD_vEEOT_, symObjAddr: 0x3A150, symBinAddr: 0x10003B800, symSize: 0xF0 }
  - { offset: 0x7071B, size: 0x8, addend: 0x0, symName: __ZNSt3__122__compressed_pair_elemINS_14default_deleteIN7testing8internal19TestMetaFactoryBaseINS_5tupleIJNS_12basic_stringIcNS_11char_traitsIcEENS_9allocatorIcEEEESB_EEEEEEELi1ELb1EEC2B8ne180100ENS_16__value_init_tagE, symObjAddr: 0x3A240, symBinAddr: 0x10003B8F0, symSize: 0x40 }
  - { offset: 0x70750, size: 0x8, addend: 0x0, symName: __ZN7testing8internal15TestMetaFactoryIN12_GLOBAL__N_125CaesarDec_Clean_Case_TestEEC2Ev, symObjAddr: 0x3A280, symBinAddr: 0x10003B930, symSize: 0xC0 }
  - { offset: 0x7077A, size: 0x8, addend: 0x0, symName: __ZN7testing8internal19TestMetaFactoryBaseINSt3__15tupleIJNS2_12basic_stringIcNS2_11char_traitsIcEENS2_9allocatorIcEEEES9_EEEEC2Ev, symObjAddr: 0x3A340, symBinAddr: 0x10003B9F0, symSize: 0x90 }
  - { offset: 0x707A7, size: 0x8, addend: 0x0, symName: __ZN7testing8internal15TestMetaFactoryIN12_GLOBAL__N_125CaesarDec_Clean_Case_TestEED1Ev, symObjAddr: 0x3A3D0, symBinAddr: 0x10003BA80, symSize: 0x50 }
  - { offset: 0x707D4, size: 0x8, addend: 0x0, symName: __ZN7testing8internal15TestMetaFactoryIN12_GLOBAL__N_125CaesarDec_Clean_Case_TestEED0Ev, symObjAddr: 0x3A420, symBinAddr: 0x10003BAD0, symSize: 0x60 }
  - { offset: 0x70801, size: 0x8, addend: 0x0, symName: __ZN7testing8internal15TestMetaFactoryIN12_GLOBAL__N_125CaesarDec_Clean_Case_TestEE17CreateTestFactoryENSt3__15tupleIJNS5_12basic_stringIcNS5_11char_traitsIcEENS5_9allocatorIcEEEESC_EEE, symObjAddr: 0x3A480, symBinAddr: 0x10003BB30, symSize: 0x340 }
  - { offset: 0x70839, size: 0x8, addend: 0x0, symName: __ZN7testing8internal19TestMetaFactoryBaseINSt3__15tupleIJNS2_12basic_stringIcNS2_11char_traitsIcEENS2_9allocatorIcEEEES9_EEEED1Ev, symObjAddr: 0x3A7C0, symBinAddr: 0x10003BE70, symSize: 0x50 }
  - { offset: 0x70863, size: 0x8, addend: 0x0, symName: __ZN7testing8internal19TestMetaFactoryBaseINSt3__15tupleIJNS2_12basic_stringIcNS2_11char_traitsIcEENS2_9allocatorIcEEEES9_EEEED0Ev, symObjAddr: 0x3A810, symBinAddr: 0x10003BEC0, symSize: 0x50 }
  - { offset: 0x7088D, size: 0x8, addend: 0x0, symName: __ZN7testing8internal15TestMetaFactoryIN12_GLOBAL__N_125CaesarDec_Clean_Case_TestEED2Ev, symObjAddr: 0x3A860, symBinAddr: 0x10003BF10, symSize: 0x50 }
  - { offset: 0x708BA, size: 0x8, addend: 0x0, symName: __ZN7testing8internal19TestMetaFactoryBaseINSt3__15tupleIJNS2_12basic_stringIcNS2_11char_traitsIcEENS2_9allocatorIcEEEES9_EEEED2Ev, symObjAddr: 0x3A8B0, symBinAddr: 0x10003BF60, symSize: 0x50 }
  - { offset: 0x708E4, size: 0x8, addend: 0x0, symName: __ZNSt3__15tupleIJNS_12basic_stringIcNS_11char_traitsIcEENS_9allocatorIcEEEES6_EEC1ERKS7_, symObjAddr: 0x3A900, symBinAddr: 0x10003BFB0, symSize: 0x60 }
  - { offset: 0x70934, size: 0x8, addend: 0x0, symName: __ZN7testing8internal24ParameterizedTestFactoryIN12_GLOBAL__N_125CaesarDec_Clean_Case_TestEEC1ENSt3__15tupleIJNS5_12basic_stringIcNS5_11char_traitsIcEENS5_9allocatorIcEEEESC_EEE, symObjAddr: 0x3A960, symBinAddr: 0x10003C010, symSize: 0x60 }
  - { offset: 0x7096E, size: 0x8, addend: 0x0, symName: __ZNSt3__15tupleIJNS_12basic_stringIcNS_11char_traitsIcEENS_9allocatorIcEEEES6_EED1Ev, symObjAddr: 0x3A9C0, symBinAddr: 0x10003C070, symSize: 0x50 }
  - { offset: 0x7099B, size: 0x8, addend: 0x0, symName: __ZNSt3__15tupleIJNS_12basic_stringIcNS_11char_traitsIcEENS_9allocatorIcEEEES6_EEC2ERKS7_, symObjAddr: 0x3AA10, symBinAddr: 0x10003C0C0, symSize: 0x90 }
  - { offset: 0x709D0, size: 0x8, addend: 0x0, symName: __ZNSt3__112__tuple_implINS_15__tuple_indicesIJLm0ELm1EEEEJNS_12basic_stringIcNS_11char_traitsIcEENS_9allocatorIcEEEES8_EEC1ERKS9_, symObjAddr: 0x3AAA0, symBinAddr: 0x10003C150, symSize: 0x60 }
  - { offset: 0x70A05, size: 0x8, addend: 0x0, symName: __ZNSt3__112__tuple_implINS_15__tuple_indicesIJLm0ELm1EEEEJNS_12basic_stringIcNS_11char_traitsIcEENS_9allocatorIcEEEES8_EEC2ERKS9_, symObjAddr: 0x3AB00, symBinAddr: 0x10003C1B0, symSize: 0x1B0 }
  - { offset: 0x70A3A, size: 0x8, addend: 0x0, symName: __ZNSt3__112__tuple_leafILm0ENS_12basic_stringIcNS_11char_traitsIcEENS_9allocatorIcEEEELb0EEC2B8ne180100ERKS7_, symObjAddr: 0x3ACB0, symBinAddr: 0x10003C360, symSize: 0x90 }
  - { offset: 0x70A73, size: 0x8, addend: 0x0, symName: __ZNSt3__112__tuple_leafILm1ENS_12basic_stringIcNS_11char_traitsIcEENS_9allocatorIcEEEELb0EEC2B8ne180100ERKS7_, symObjAddr: 0x3AD40, symBinAddr: 0x10003C3F0, symSize: 0x90 }
  - { offset: 0x70AAC, size: 0x8, addend: 0x0, symName: __ZNSt3__112__tuple_leafILm0ENS_12basic_stringIcNS_11char_traitsIcEENS_9allocatorIcEEEELb0EED2Ev, symObjAddr: 0x3ADD0, symBinAddr: 0x10003C480, symSize: 0x50 }
  - { offset: 0x70AD9, size: 0x8, addend: 0x0, symName: __ZN7testing8internal24ParameterizedTestFactoryIN12_GLOBAL__N_125CaesarDec_Clean_Case_TestEEC2ENSt3__15tupleIJNS5_12basic_stringIcNS5_11char_traitsIcEENS5_9allocatorIcEEEESC_EEE, symObjAddr: 0x3AE20, symBinAddr: 0x10003C4D0, symSize: 0x130 }
  - { offset: 0x70B13, size: 0x8, addend: 0x0, symName: __ZN7testing8internal24ParameterizedTestFactoryIN12_GLOBAL__N_125CaesarDec_Clean_Case_TestEED1Ev, symObjAddr: 0x3AF50, symBinAddr: 0x10003C600, symSize: 0x50 }
  - { offset: 0x70B40, size: 0x8, addend: 0x0, symName: __ZN7testing8internal24ParameterizedTestFactoryIN12_GLOBAL__N_125CaesarDec_Clean_Case_TestEED0Ev, symObjAddr: 0x3AFA0, symBinAddr: 0x10003C650, symSize: 0x60 }
  - { offset: 0x70B6D, size: 0x8, addend: 0x0, symName: __ZN7testing8internal24ParameterizedTestFactoryIN12_GLOBAL__N_125CaesarDec_Clean_Case_TestEE10CreateTestEv, symObjAddr: 0x3B000, symBinAddr: 0x10003C6B0, symSize: 0x180 }
  - { offset: 0x70B93, size: 0x8, addend: 0x0, symName: __ZN7testing8internal24ParameterizedTestFactoryIN12_GLOBAL__N_125CaesarDec_Clean_Case_TestEED2Ev, symObjAddr: 0x3B180, symBinAddr: 0x10003C830, symSize: 0xA8 }
  - { offset: 0x70BC0, size: 0x8, addend: 0x0, symName: __ZN7testing18WithParamInterfaceINSt3__15tupleIJNS1_12basic_stringIcNS1_11char_traitsIcEENS1_9allocatorIcEEEES8_EEEE8SetParamEPKS9_, symObjAddr: 0x3B228, symBinAddr: 0x10003C8D8, symSize: 0x18 }
  - { offset: 0x70BE4, size: 0x8, addend: 0x0, symName: __ZN12_GLOBAL__N_125CaesarDec_Clean_Case_TestC1Ev, symObjAddr: 0x3B240, symBinAddr: 0x10003C8F0, symSize: 0x50 }
  - { offset: 0x70C0E, size: 0x8, addend: 0x0, symName: __ZN12_GLOBAL__N_125CaesarDec_Clean_Case_TestC2Ev, symObjAddr: 0x3B290, symBinAddr: 0x10003C940, symSize: 0x100 }
  - { offset: 0x70C3D, size: 0x8, addend: 0x0, symName: __ZN12_GLOBAL__N_115CaesarDec_CleanC2Ev, symObjAddr: 0x3B390, symBinAddr: 0x10003CA40, symSize: 0x100 }
  - { offset: 0x70C69, size: 0x8, addend: 0x0, symName: __ZN12_GLOBAL__N_125CaesarDec_Clean_Case_TestD1Ev, symObjAddr: 0x3B490, symBinAddr: 0x10003CB40, symSize: 0x50 }
  - { offset: 0x70C95, size: 0x8, addend: 0x0, symName: __ZN12_GLOBAL__N_125CaesarDec_Clean_Case_TestD0Ev, symObjAddr: 0x3B4E0, symBinAddr: 0x10003CB90, symSize: 0x60 }
  - { offset: 0x70CC1, size: 0x8, addend: 0x0, symName: __ZN12_GLOBAL__N_125CaesarDec_Clean_Case_Test8TestBodyEv, symObjAddr: 0x3B540, symBinAddr: 0x10003CBF0, symSize: 0x6A0 }
  - { offset: 0x70D2E, size: 0x8, addend: 0x0, symName: __ZThn16_N12_GLOBAL__N_125CaesarDec_Clean_Case_TestD1Ev, symObjAddr: 0x3BBE0, symBinAddr: 0x10003D290, symSize: 0x20 }
  - { offset: 0x70D44, size: 0x8, addend: 0x0, symName: __ZThn16_N12_GLOBAL__N_125CaesarDec_Clean_Case_TestD0Ev, symObjAddr: 0x3BC00, symBinAddr: 0x10003D2B0, symSize: 0x20 }
  - { offset: 0x70D5F, size: 0x8, addend: 0x0, symName: __ZN7testing13TestWithParamINSt3__15tupleIJNS1_12basic_stringIcNS1_11char_traitsIcEENS1_9allocatorIcEEEES8_EEEEC2Ev, symObjAddr: 0x3BC20, symBinAddr: 0x10003D2D0, symSize: 0x140 }
  - { offset: 0x70D8C, size: 0x8, addend: 0x0, symName: __ZN12_GLOBAL__N_115CaesarDec_CleanD1Ev, symObjAddr: 0x3BD60, symBinAddr: 0x10003D410, symSize: 0x50 }
  - { offset: 0x70DB8, size: 0x8, addend: 0x0, symName: __ZN12_GLOBAL__N_115CaesarDec_CleanD0Ev, symObjAddr: 0x3BDB0, symBinAddr: 0x10003D460, symSize: 0x50 }
  - { offset: 0x70DE4, size: 0x8, addend: 0x0, symName: __ZThn16_N12_GLOBAL__N_115CaesarDec_CleanD1Ev, symObjAddr: 0x3BE00, symBinAddr: 0x10003D4B0, symSize: 0x20 }
  - { offset: 0x70DFA, size: 0x8, addend: 0x0, symName: __ZThn16_N12_GLOBAL__N_115CaesarDec_CleanD0Ev, symObjAddr: 0x3BE20, symBinAddr: 0x10003D4D0, symSize: 0x20 }
  - { offset: 0x70E10, size: 0x8, addend: 0x0, symName: __ZN7testing18WithParamInterfaceINSt3__15tupleIJNS1_12basic_stringIcNS1_11char_traitsIcEENS1_9allocatorIcEEEES8_EEEEC2Ev, symObjAddr: 0x3BE40, symBinAddr: 0x10003D4F0, symSize: 0x90 }
  - { offset: 0x70E3D, size: 0x8, addend: 0x0, symName: __ZN7testing13TestWithParamINSt3__15tupleIJNS1_12basic_stringIcNS1_11char_traitsIcEENS1_9allocatorIcEEEES8_EEEED1Ev, symObjAddr: 0x3BED0, symBinAddr: 0x10003D580, symSize: 0x50 }
  - { offset: 0x70E6A, size: 0x8, addend: 0x0, symName: __ZN7testing13TestWithParamINSt3__15tupleIJNS1_12basic_stringIcNS1_11char_traitsIcEENS1_9allocatorIcEEEES8_EEEED0Ev, symObjAddr: 0x3BF20, symBinAddr: 0x10003D5D0, symSize: 0x50 }
  - { offset: 0x70E97, size: 0x8, addend: 0x0, symName: __ZThn16_N7testing13TestWithParamINSt3__15tupleIJNS1_12basic_stringIcNS1_11char_traitsIcEENS1_9allocatorIcEEEES8_EEEED1Ev, symObjAddr: 0x3BF70, symBinAddr: 0x10003D620, symSize: 0x20 }
  - { offset: 0x70EAE, size: 0x8, addend: 0x0, symName: __ZThn16_N7testing13TestWithParamINSt3__15tupleIJNS1_12basic_stringIcNS1_11char_traitsIcEENS1_9allocatorIcEEEES8_EEEED0Ev, symObjAddr: 0x3BF90, symBinAddr: 0x10003D640, symSize: 0x20 }
  - { offset: 0x70EC5, size: 0x8, addend: 0x0, symName: __ZN7testing18WithParamInterfaceINSt3__15tupleIJNS1_12basic_stringIcNS1_11char_traitsIcEENS1_9allocatorIcEEEES8_EEEED1Ev, symObjAddr: 0x3BFB0, symBinAddr: 0x10003D660, symSize: 0x50 }
  - { offset: 0x70EEF, size: 0x8, addend: 0x0, symName: __ZN7testing18WithParamInterfaceINSt3__15tupleIJNS1_12basic_stringIcNS1_11char_traitsIcEENS1_9allocatorIcEEEES8_EEEED0Ev, symObjAddr: 0x3C000, symBinAddr: 0x10003D6B0, symSize: 0x60 }
  - { offset: 0x70F19, size: 0x8, addend: 0x0, symName: __ZN7testing18WithParamInterfaceINSt3__15tupleIJNS1_12basic_stringIcNS1_11char_traitsIcEENS1_9allocatorIcEEEES8_EEEED2Ev, symObjAddr: 0x3C060, symBinAddr: 0x10003D710, symSize: 0x50 }
  - { offset: 0x70F43, size: 0x8, addend: 0x0, symName: __ZN12_GLOBAL__N_125CaesarDec_Clean_Case_TestD2Ev, symObjAddr: 0x3C0B0, symBinAddr: 0x10003D760, symSize: 0x50 }
  - { offset: 0x70F6F, size: 0x8, addend: 0x0, symName: __ZN12_GLOBAL__N_115CaesarDec_CleanD2Ev, symObjAddr: 0x3C100, symBinAddr: 0x10003D7B0, symSize: 0x50 }
  - { offset: 0x70F9B, size: 0x8, addend: 0x0, symName: __ZN7testing13TestWithParamINSt3__15tupleIJNS1_12basic_stringIcNS1_11char_traitsIcEENS1_9allocatorIcEEEES8_EEEED2Ev, symObjAddr: 0x3C150, symBinAddr: 0x10003D800, symSize: 0x68 }
  - { offset: 0x70FC8, size: 0x8, addend: 0x0, symName: __ZN7testing18WithParamInterfaceINSt3__15tupleIJNS1_12basic_stringIcNS1_11char_traitsIcEENS1_9allocatorIcEEEES8_EEEE8GetParamEv, symObjAddr: 0x3C1B8, symBinAddr: 0x10003D868, symSize: 0x360 }
  - { offset: 0x70FDC, size: 0x8, addend: 0x0, symName: __ZN7testing8internal8EqHelper7CompareINSt3__112basic_stringIcNS3_11char_traitsIcEENS3_9allocatorIcEEEES9_TnPNS3_9enable_ifIXoontsr3std11is_integralIT_EE5valuentsr3std10is_pointerIT0_EE5valueEvE4typeELPv0EEENS_15AssertionResultEPKcSJ_RKSB_RKSC_, symObjAddr: 0x3C688, symBinAddr: 0x10003DD38, symSize: 0xC8 }
  - { offset: 0x71060, size: 0x8, addend: 0x0, symName: __ZN7testing8internal8GTestLog9GetStreamEv, symObjAddr: 0x3C750, symBinAddr: 0x10003DE00, symSize: 0x50 }
  - { offset: 0x71086, size: 0x8, addend: 0x0, symName: __ZNKSt3__112__tuple_leafILm0ENS_12basic_stringIcNS_11char_traitsIcEENS_9allocatorIcEEEELb0EE3getB8ne180100Ev, symObjAddr: 0x3C7A0, symBinAddr: 0x10003DE50, symSize: 0x80 }
  - { offset: 0x710AC, size: 0x8, addend: 0x0, symName: __ZNKSt3__112__tuple_leafILm1ENS_12basic_stringIcNS_11char_traitsIcEENS_9allocatorIcEEEELb0EE3getB8ne180100Ev, symObjAddr: 0x3C820, symBinAddr: 0x10003DED0, symSize: 0x88 }
  - { offset: 0x710D2, size: 0x8, addend: 0x0, symName: __ZN7testing8internal19FormatForComparisonINSt3__112basic_stringIcNS2_11char_traitsIcEENS2_9allocatorIcEEEES8_E6FormatERKS8_, symObjAddr: 0x3CED8, symBinAddr: 0x10003E588, symSize: 0x70 }
  - { offset: 0x710F6, size: 0x8, addend: 0x0, symName: __ZN7testing8internal21UniversalTersePrinterINSt3__112basic_stringIcNS2_11char_traitsIcEENS2_9allocatorIcEEEEE5PrintERKS8_PNS2_13basic_ostreamIcS5_EE, symObjAddr: 0x3D398, symBinAddr: 0x10003EA48, symSize: 0x58 }
  - { offset: 0x71129, size: 0x8, addend: 0x0, symName: __ZNSt3__15tupleIJNS_12basic_stringIcNS_11char_traitsIcEENS_9allocatorIcEEEES6_EED2Ev, symObjAddr: 0x3D3F0, symBinAddr: 0x10003EAA0, symSize: 0x50 }
  - { offset: 0x71156, size: 0x8, addend: 0x0, symName: __ZNSt3__112__tuple_implINS_15__tuple_indicesIJLm0ELm1EEEEJNS_12basic_stringIcNS_11char_traitsIcEENS_9allocatorIcEEEES8_EED1Ev, symObjAddr: 0x3D440, symBinAddr: 0x10003EAF0, symSize: 0x50 }
  - { offset: 0x71183, size: 0x8, addend: 0x0, symName: __ZNSt3__112__tuple_implINS_15__tuple_indicesIJLm0ELm1EEEEJNS_12basic_stringIcNS_11char_traitsIcEENS_9allocatorIcEEEES8_EED2Ev, symObjAddr: 0x3D490, symBinAddr: 0x10003EB40, symSize: 0x60 }
  - { offset: 0x711B0, size: 0x8, addend: 0x0, symName: __ZNSt3__112__tuple_leafILm1ENS_12basic_stringIcNS_11char_traitsIcEENS_9allocatorIcEEEELb0EED2Ev, symObjAddr: 0x3D4F0, symBinAddr: 0x10003EBA0, symSize: 0x58 }
  - { offset: 0x711E2, size: 0x8, addend: 0x0, symName: __ZNK7testing8internal10ValueArrayIJNSt3__15tupleIJPKcS5_EEES6_S6_S6_EEcvNS0_14ParamGeneratorIT_EEINS3_IJNS2_12basic_stringIcNS2_11char_traitsIcEENS2_9allocatorIcEEEESH_EEEEEv, symObjAddr: 0x3DED0, symBinAddr: 0x10003F580, symSize: 0x290 }
  - { offset: 0x71212, size: 0x8, addend: 0x0, symName: __ZN7testing8internal10ValueArrayIJNSt3__15tupleIJPKcS5_EEES6_S6_S6_EEC1ES6_S6_S6_S6_, symObjAddr: 0x3E160, symBinAddr: 0x10003F810, symSize: 0x400 }
  - { offset: 0x71283, size: 0x8, addend: 0x0, symName: __ZN7testing8internal10ValueArrayIJNSt3__15tupleIJPKcS5_EEES6_S6_S6_EEC2ES6_S6_S6_S6_, symObjAddr: 0x3E560, symBinAddr: 0x10003FC10, symSize: 0x2F0 }
  - { offset: 0x712FB, size: 0x8, addend: 0x0, symName: __ZN7testing8internal9FlatTupleIJNSt3__15tupleIJPKcS5_EEES6_S6_S6_EEC1IJS6_S6_S6_S6_EEENS0_21FlatTupleConstructTagEDpOT_, symObjAddr: 0x3E850, symBinAddr: 0x10003FF00, symSize: 0x70 }
  - { offset: 0x7138A, size: 0x8, addend: 0x0, symName: __ZN7testing8internal9FlatTupleIJNSt3__15tupleIJPKcS5_EEES6_S6_S6_EEC2IJS6_S6_S6_S6_EEENS0_21FlatTupleConstructTagEDpOT_, symObjAddr: 0x3E8C0, symBinAddr: 0x10003FF70, symSize: 0x170 }
  - { offset: 0x71419, size: 0x8, addend: 0x0, symName: __ZN7testing8internal13FlatTupleBaseINS0_9FlatTupleIJNSt3__15tupleIJPKcS6_EEES7_S7_S7_EEENS3_16integer_sequenceImJLm0ELm1ELm2ELm3EEEEEC2IJS7_S7_S7_S7_EEENS0_21FlatTupleConstructTagEDpOT_, symObjAddr: 0x3EA30, symBinAddr: 0x1000400E0, symSize: 0x250 }
  - { offset: 0x714A4, size: 0x8, addend: 0x0, symName: __ZN7testing8internal17FlatTupleElemBaseINS0_9FlatTupleIJNSt3__15tupleIJPKcS6_EEES7_S7_S7_EEELm0EEC2IS7_EENS0_21FlatTupleConstructTagEOT_, symObjAddr: 0x3EC80, symBinAddr: 0x100040330, symSize: 0x60 }
  - { offset: 0x714F1, size: 0x8, addend: 0x0, symName: __ZN7testing8internal17FlatTupleElemBaseINS0_9FlatTupleIJNSt3__15tupleIJPKcS6_EEES7_S7_S7_EEELm1EEC2IS7_EENS0_21FlatTupleConstructTagEOT_, symObjAddr: 0x3ECE0, symBinAddr: 0x100040390, symSize: 0x60 }
  - { offset: 0x7153E, size: 0x8, addend: 0x0, symName: __ZN7testing8internal17FlatTupleElemBaseINS0_9FlatTupleIJNSt3__15tupleIJPKcS6_EEES7_S7_S7_EEELm2EEC2IS7_EENS0_21FlatTupleConstructTagEOT_, symObjAddr: 0x3ED40, symBinAddr: 0x1000403F0, symSize: 0x60 }
  - { offset: 0x7158B, size: 0x8, addend: 0x0, symName: __ZN7testing8internal17FlatTupleElemBaseINS0_9FlatTupleIJNSt3__15tupleIJPKcS6_EEES7_S7_S7_EEELm3EEC2IS7_EENS0_21FlatTupleConstructTagEOT_, symObjAddr: 0x3EDA0, symBinAddr: 0x100040450, symSize: 0x60 }
  - { offset: 0x715D8, size: 0x8, addend: 0x0, symName: __ZNSt3__15tupleIJPKcS2_EEC1B8ne180100INS_4_AndETnNS_9enable_ifIXsrT_IJNS_17integral_constantIbLb1EEENS_21is_copy_constructibleIS2_EESB_EE5valueEiE4typeELi0EEERKS2_SG_, symObjAddr: 0x3EE00, symBinAddr: 0x1000404B0, symSize: 0x60 }
  - { offset: 0x71631, size: 0x8, addend: 0x0, symName: __ZNSt3__15tupleIJPKcS2_EEC2B8ne180100INS_4_AndETnNS_9enable_ifIXsrT_IJNS_17integral_constantIbLb1EEENS_21is_copy_constructibleIS2_EESB_EE5valueEiE4typeELi0EEERKS2_SG_, symObjAddr: 0x3EE60, symBinAddr: 0x100040510, symSize: 0xD0 }
  - { offset: 0x7168A, size: 0x8, addend: 0x0, symName: __ZNSt3__112__tuple_implINS_15__tuple_indicesIJLm0ELm1EEEEJPKcS4_EEC1B8ne180100IJLm0ELm1EEJS4_S4_ETpTnmJEJEJRKS4_S8_EEENS1_IJXspT_EEEENS_13__tuple_typesIJDpT0_EEENS1_IJXspT1_EEEENSA_IJDpT2_EEEDpOT3_, symObjAddr: 0x3EF30, symBinAddr: 0x1000405E0, symSize: 0x60 }
  - { offset: 0x7173C, size: 0x8, addend: 0x0, symName: __ZNSt3__112__tuple_implINS_15__tuple_indicesIJLm0ELm1EEEEJPKcS4_EEC2B8ne180100IJLm0ELm1EEJS4_S4_ETpTnmJEJEJRKS4_S8_EEENS1_IJXspT_EEEENS_13__tuple_typesIJDpT0_EEENS1_IJXspT1_EEEENSA_IJDpT2_EEEDpOT3_, symObjAddr: 0x3EF90, symBinAddr: 0x100040640, symSize: 0x140 }
  - { offset: 0x717EE, size: 0x8, addend: 0x0, symName: __ZNSt3__112__tuple_leafILm0EPKcLb0EEC2B8ne180100IRKS2_vEEOT_, symObjAddr: 0x3F0D0, symBinAddr: 0x100040780, symSize: 0xF0 }
  - { offset: 0x71831, size: 0x8, addend: 0x0, symName: __ZNSt3__112__tuple_leafILm1EPKcLb0EEC2B8ne180100IRKS2_vEEOT_, symObjAddr: 0x3F1C0, symBinAddr: 0x100040870, symSize: 0xF8 }
  - { offset: 0x71874, size: 0x8, addend: 0x0, symName: __ZNK7testing8internal10ValueArrayIJNSt3__15tupleIJPKcS5_EEES6_S6_S6_EE10MakeVectorINS3_IJNS2_12basic_stringIcNS2_11char_traitsIcEENS2_9allocatorIcEEEESE_EEEJLm0ELm1ELm2ELm3EEEENS2_6vectorIT_NSC_ISH_EEEENS2_16integer_sequenceImJXspT0_EEEE, symObjAddr: 0x3F360, symBinAddr: 0x100040A10, symSize: 0x8A0 }
  - { offset: 0x718CE, size: 0x8, addend: 0x0, symName: __ZNSt3__16vectorINS_5tupleIJNS_12basic_stringIcNS_11char_traitsIcEENS_9allocatorIcEEEES7_EEENS5_IS8_EEED1B8ne180100Ev, symObjAddr: 0x3FC00, symBinAddr: 0x1000412B0, symSize: 0x58 }
  - { offset: 0x718F8, size: 0x8, addend: 0x0, symName: __ZNKSt3__16vectorINS_5tupleIJNS_12basic_stringIcNS_11char_traitsIcEENS_9allocatorIcEEEES7_EEENS5_IS8_EEE5beginB8ne180100Ev, symObjAddr: 0x3FD90, symBinAddr: 0x100041440, symSize: 0x90 }
  - { offset: 0x7191E, size: 0x8, addend: 0x0, symName: __ZNKSt3__16vectorINS_5tupleIJNS_12basic_stringIcNS_11char_traitsIcEENS_9allocatorIcEEEES7_EEENS5_IS8_EEE3endB8ne180100Ev, symObjAddr: 0x3FE20, symBinAddr: 0x1000414D0, symSize: 0x90 }
  - { offset: 0x71944, size: 0x8, addend: 0x0, symName: __ZN7testing8internal30ValuesInIteratorRangeGeneratorINSt3__15tupleIJNS2_12basic_stringIcNS2_11char_traitsIcEENS2_9allocatorIcEEEES9_EEEEC1INS2_11__wrap_iterIPKSA_EEEET_SH_, symObjAddr: 0x3FEB0, symBinAddr: 0x100041560, symSize: 0x60 }
  - { offset: 0x71995, size: 0x8, addend: 0x0, symName: __ZN7testing8internal14ParamGeneratorINSt3__15tupleIJNS2_12basic_stringIcNS2_11char_traitsIcEENS2_9allocatorIcEEEES9_EEEEC1EPNS0_23ParamGeneratorInterfaceISA_EE, symObjAddr: 0x3FF10, symBinAddr: 0x1000415C0, symSize: 0x60 }
  - { offset: 0x719CD, size: 0x8, addend: 0x0, symName: __ZN7testing8internal30ValuesInIteratorRangeGeneratorINSt3__15tupleIJNS2_12basic_stringIcNS2_11char_traitsIcEENS2_9allocatorIcEEEES9_EEEEC2INS2_11__wrap_iterIPKSA_EEEET_SH_, symObjAddr: 0x3FF70, symBinAddr: 0x100041620, symSize: 0x130 }
  - { offset: 0x71A1E, size: 0x8, addend: 0x0, symName: __ZN7testing8internal23ParamGeneratorInterfaceINSt3__15tupleIJNS2_12basic_stringIcNS2_11char_traitsIcEENS2_9allocatorIcEEEES9_EEEEC2Ev, symObjAddr: 0x400A0, symBinAddr: 0x100041750, symSize: 0x90 }
  - { offset: 0x71A4A, size: 0x8, addend: 0x0, symName: __ZNSt3__16vectorINS_5tupleIJNS_12basic_stringIcNS_11char_traitsIcEENS_9allocatorIcEEEES7_EEENS5_IS8_EEEC1INS_11__wrap_iterIPKS8_EETnNS_9enable_ifIXaasr31__has_forward_iterator_categoryIT_EE5valuesr16is_constructibleIS8_NS_15iterator_traitsISH_E9referenceEEE5valueEiE4typeELi0EEESH_SH_, symObjAddr: 0x40130, symBinAddr: 0x1000417E0, symSize: 0x60 }
  - { offset: 0x71AA2, size: 0x8, addend: 0x0, symName: __ZN7testing8internal23ParamGeneratorInterfaceINSt3__15tupleIJNS2_12basic_stringIcNS2_11char_traitsIcEENS2_9allocatorIcEEEES9_EEEED2Ev, symObjAddr: 0x40190, symBinAddr: 0x100041840, symSize: 0x50 }
  - { offset: 0x71ACC, size: 0x8, addend: 0x0, symName: __ZN7testing8internal30ValuesInIteratorRangeGeneratorINSt3__15tupleIJNS2_12basic_stringIcNS2_11char_traitsIcEENS2_9allocatorIcEEEES9_EEEED1Ev, symObjAddr: 0x401E0, symBinAddr: 0x100041890, symSize: 0x50 }
  - { offset: 0x71AF6, size: 0x8, addend: 0x0, symName: __ZN7testing8internal30ValuesInIteratorRangeGeneratorINSt3__15tupleIJNS2_12basic_stringIcNS2_11char_traitsIcEENS2_9allocatorIcEEEES9_EEEED0Ev, symObjAddr: 0x40230, symBinAddr: 0x1000418E0, symSize: 0x60 }
  - { offset: 0x71B20, size: 0x8, addend: 0x0, symName: __ZNK7testing8internal30ValuesInIteratorRangeGeneratorINSt3__15tupleIJNS2_12basic_stringIcNS2_11char_traitsIcEENS2_9allocatorIcEEEES9_EEEE5BeginEv, symObjAddr: 0x40290, symBinAddr: 0x100041940, symSize: 0x1E0 }
  - { offset: 0x71B46, size: 0x8, addend: 0x0, symName: __ZNK7testing8internal30ValuesInIteratorRangeGeneratorINSt3__15tupleIJNS2_12basic_stringIcNS2_11char_traitsIcEENS2_9allocatorIcEEEES9_EEEE3EndEv, symObjAddr: 0x40470, symBinAddr: 0x100041B20, symSize: 0x1E0 }
  - { offset: 0x71B6C, size: 0x8, addend: 0x0, symName: __ZN7testing8internal23ParamGeneratorInterfaceINSt3__15tupleIJNS2_12basic_stringIcNS2_11char_traitsIcEENS2_9allocatorIcEEEES9_EEEED1Ev, symObjAddr: 0x40650, symBinAddr: 0x100041D00, symSize: 0x50 }
  - { offset: 0x71B96, size: 0x8, addend: 0x0, symName: __ZN7testing8internal23ParamGeneratorInterfaceINSt3__15tupleIJNS2_12basic_stringIcNS2_11char_traitsIcEENS2_9allocatorIcEEEES9_EEEED0Ev, symObjAddr: 0x406A0, symBinAddr: 0x100041D50, symSize: 0x50 }
  - { offset: 0x71BC0, size: 0x8, addend: 0x0, symName: __ZNSt3__16vectorINS_5tupleIJNS_12basic_stringIcNS_11char_traitsIcEENS_9allocatorIcEEEES7_EEENS5_IS8_EEEC2INS_11__wrap_iterIPKS8_EETnNS_9enable_ifIXaasr31__has_forward_iterator_categoryIT_EE5valuesr16is_constructibleIS8_NS_15iterator_traitsISH_E9referenceEEE5valueEiE4typeELi0EEESH_SH_, symObjAddr: 0x406F0, symBinAddr: 0x100041DA0, symSize: 0x300 }
  - { offset: 0x71C39, size: 0x8, addend: 0x0, symName: __ZNSt3__117__compressed_pairIPNS_5tupleIJNS_12basic_stringIcNS_11char_traitsIcEENS_9allocatorIcEEEES7_EEENS5_IS8_EEEC1B8ne180100IDnNS_18__default_init_tagEEEOT_OT0_, symObjAddr: 0x409F0, symBinAddr: 0x1000420A0, symSize: 0x68 }
  - { offset: 0x71C91, size: 0x8, addend: 0x0, symName: __ZNSt3__16vectorINS_5tupleIJNS_12basic_stringIcNS_11char_traitsIcEENS_9allocatorIcEEEES7_EEENS5_IS8_EEE16__init_with_sizeB8ne180100INS_11__wrap_iterIPKS8_EESF_EEvT_T0_m, symObjAddr: 0x40AA0, symBinAddr: 0x100042150, symSize: 0x380 }
  - { offset: 0x71D0D, size: 0x8, addend: 0x0, symName: __ZNSt3__117__compressed_pairIPNS_5tupleIJNS_12basic_stringIcNS_11char_traitsIcEENS_9allocatorIcEEEES7_EEENS5_IS8_EEEC2B8ne180100IDnNS_18__default_init_tagEEEOT_OT0_, symObjAddr: 0x40E20, symBinAddr: 0x1000424D0, symSize: 0xF0 }
  - { offset: 0x71D65, size: 0x8, addend: 0x0, symName: __ZNSt3__122__compressed_pair_elemIPNS_5tupleIJNS_12basic_stringIcNS_11char_traitsIcEENS_9allocatorIcEEEES7_EEELi0ELb0EEC2B8ne180100IDnvEEOT_, symObjAddr: 0x40F10, symBinAddr: 0x1000425C0, symSize: 0x80 }
  - { offset: 0x71DA7, size: 0x8, addend: 0x0, symName: __ZNSt3__122__compressed_pair_elemINS_9allocatorINS_5tupleIJNS_12basic_stringIcNS_11char_traitsIcEENS1_IcEEEES7_EEEEELi1ELb1EEC2B8ne180100ENS_18__default_init_tagE, symObjAddr: 0x40F90, symBinAddr: 0x100042640, symSize: 0x60 }
  - { offset: 0x71DDC, size: 0x8, addend: 0x0, symName: __ZNSt3__19allocatorINS_5tupleIJNS_12basic_stringIcNS_11char_traitsIcEENS0_IcEEEES6_EEEEC2B8ne180100Ev, symObjAddr: 0x40FF0, symBinAddr: 0x1000426A0, symSize: 0x60 }
  - { offset: 0x71E06, size: 0x8, addend: 0x0, symName: __ZNSt3__116__non_trivial_ifILb1ENS_9allocatorINS_5tupleIJNS_12basic_stringIcNS_11char_traitsIcEENS1_IcEEEES7_EEEEEEC2B8ne180100Ev, symObjAddr: 0x41050, symBinAddr: 0x100042700, symSize: 0x48 }
  - { offset: 0x71E30, size: 0x8, addend: 0x0, symName: __ZNKSt3__111__wrap_iterIPKNS_5tupleIJNS_12basic_stringIcNS_11char_traitsIcEENS_9allocatorIcEEEES7_EEEE4baseB8ne180100Ev, symObjAddr: 0x412C0, symBinAddr: 0x100042970, symSize: 0x88 }
  - { offset: 0x71E56, size: 0x8, addend: 0x0, symName: __ZNSt3__16vectorINS_5tupleIJNS_12basic_stringIcNS_11char_traitsIcEENS_9allocatorIcEEEES7_EEENS5_IS8_EEE16__destroy_vectorC1B8ne180100ERSA_, symObjAddr: 0x413C0, symBinAddr: 0x100042A70, symSize: 0x60 }
  - { offset: 0x71E8F, size: 0x8, addend: 0x0, symName: __ZNSt3__16vectorINS_5tupleIJNS_12basic_stringIcNS_11char_traitsIcEENS_9allocatorIcEEEES7_EEENS5_IS8_EEE11__vallocateB8ne180100Em, symObjAddr: 0x41420, symBinAddr: 0x100042AD0, symSize: 0x430 }
  - { offset: 0x71ED9, size: 0x8, addend: 0x0, symName: __ZNSt3__16vectorINS_5tupleIJNS_12basic_stringIcNS_11char_traitsIcEENS_9allocatorIcEEEES7_EEENS5_IS8_EEE18__construct_at_endINS_11__wrap_iterIPKS8_EESF_EEvT_T0_m, symObjAddr: 0x41850, symBinAddr: 0x100042F00, symSize: 0x3D0 }
  - { offset: 0x71F55, size: 0x8, addend: 0x0, symName: __ZNSt3__128__exception_guard_exceptionsINS_6vectorINS_5tupleIJNS_12basic_stringIcNS_11char_traitsIcEENS_9allocatorIcEEEES8_EEENS6_IS9_EEE16__destroy_vectorEE10__completeB8ne180100Ev, symObjAddr: 0x41C20, symBinAddr: 0x1000432D0, symSize: 0xA0 }
  - { offset: 0x71F7B, size: 0x8, addend: 0x0, symName: __ZNSt3__128__exception_guard_exceptionsINS_6vectorINS_5tupleIJNS_12basic_stringIcNS_11char_traitsIcEENS_9allocatorIcEEEES8_EEENS6_IS9_EEE16__destroy_vectorEED1B8ne180100Ev, symObjAddr: 0x41CC0, symBinAddr: 0x100043370, symSize: 0x50 }
  - { offset: 0x71FA5, size: 0x8, addend: 0x0, symName: __ZNSt3__128__exception_guard_exceptionsINS_6vectorINS_5tupleIJNS_12basic_stringIcNS_11char_traitsIcEENS_9allocatorIcEEEES8_EEENS6_IS9_EEE16__destroy_vectorEEC1B8ne180100ESC_, symObjAddr: 0x41D10, symBinAddr: 0x1000433C0, symSize: 0x60 }
  - { offset: 0x71FDD, size: 0x8, addend: 0x0, symName: __ZNSt3__128__exception_guard_exceptionsINS_6vectorINS_5tupleIJNS_12basic_stringIcNS_11char_traitsIcEENS_9allocatorIcEEEES8_EEENS6_IS9_EEE16__destroy_vectorEEC2B8ne180100ESC_, symObjAddr: 0x41D70, symBinAddr: 0x100043420, symSize: 0xB0 }
  - { offset: 0x72015, size: 0x8, addend: 0x0, symName: __ZNSt3__16vectorINS_5tupleIJNS_12basic_stringIcNS_11char_traitsIcEENS_9allocatorIcEEEES7_EEENS5_IS8_EEE16__destroy_vectorC2B8ne180100ERSA_, symObjAddr: 0x41E20, symBinAddr: 0x1000434D0, symSize: 0xC0 }
  - { offset: 0x7204E, size: 0x8, addend: 0x0, symName: __ZNKSt3__16vectorINS_5tupleIJNS_12basic_stringIcNS_11char_traitsIcEENS_9allocatorIcEEEES7_EEENS5_IS8_EEE8max_sizeEv, symObjAddr: 0x41EE0, symBinAddr: 0x100043590, symSize: 0x280 }
  - { offset: 0x72075, size: 0x8, addend: 0x0, symName: __ZNKSt3__16vectorINS_5tupleIJNS_12basic_stringIcNS_11char_traitsIcEENS_9allocatorIcEEEES7_EEENS5_IS8_EEE20__throw_length_errorB8ne180100Ev, symObjAddr: 0x42160, symBinAddr: 0x100043810, symSize: 0x78 }
  - { offset: 0x7209B, size: 0x8, addend: 0x0, symName: __ZNSt3__16vectorINS_5tupleIJNS_12basic_stringIcNS_11char_traitsIcEENS_9allocatorIcEEEES7_EEENS5_IS8_EEE7__allocB8ne180100Ev, symObjAddr: 0x42210, symBinAddr: 0x1000438C0, symSize: 0xB0 }
  - { offset: 0x720C1, size: 0x8, addend: 0x0, symName: __ZNSt3__16vectorINS_5tupleIJNS_12basic_stringIcNS_11char_traitsIcEENS_9allocatorIcEEEES7_EEENS5_IS8_EEE9__end_capB8ne180100Ev, symObjAddr: 0x422C0, symBinAddr: 0x100043970, symSize: 0xC0 }
  - { offset: 0x720E7, size: 0x8, addend: 0x0, symName: __ZNKSt3__16vectorINS_5tupleIJNS_12basic_stringIcNS_11char_traitsIcEENS_9allocatorIcEEEES7_EEENS5_IS8_EEE14__annotate_newB8ne180100Em, symObjAddr: 0x42380, symBinAddr: 0x100043A30, symSize: 0x168 }
  - { offset: 0x72127, size: 0x8, addend: 0x0, symName: __ZNSt3__116allocator_traitsINS_9allocatorINS_5tupleIJNS_12basic_stringIcNS_11char_traitsIcEENS1_IcEEEES7_EEEEEE8max_sizeB8ne180100IS9_vvEEmRKS9_, symObjAddr: 0x424E8, symBinAddr: 0x100043B98, symSize: 0x48 }
  - { offset: 0x72152, size: 0x8, addend: 0x0, symName: __ZNKSt3__16vectorINS_5tupleIJNS_12basic_stringIcNS_11char_traitsIcEENS_9allocatorIcEEEES7_EEENS5_IS8_EEE7__allocB8ne180100Ev, symObjAddr: 0x42530, symBinAddr: 0x100043BE0, symSize: 0xB0 }
  - { offset: 0x72178, size: 0x8, addend: 0x0, symName: __ZNKSt3__117__compressed_pairIPNS_5tupleIJNS_12basic_stringIcNS_11char_traitsIcEENS_9allocatorIcEEEES7_EEENS5_IS8_EEE6secondB8ne180100Ev, symObjAddr: 0x425E0, symBinAddr: 0x100043C90, symSize: 0xC0 }
  - { offset: 0x7219E, size: 0x8, addend: 0x0, symName: __ZNKSt3__122__compressed_pair_elemINS_9allocatorINS_5tupleIJNS_12basic_stringIcNS_11char_traitsIcEENS1_IcEEEES7_EEEEELi1ELb1EE5__getB8ne180100Ev, symObjAddr: 0x426A0, symBinAddr: 0x100043D50, symSize: 0x60 }
  - { offset: 0x721C4, size: 0x8, addend: 0x0, symName: __ZNSt3__19allocatorINS_5tupleIJNS_12basic_stringIcNS_11char_traitsIcEENS0_IcEEEES6_EEEE8allocateB8ne180100Em, symObjAddr: 0x42700, symBinAddr: 0x100043DB0, symSize: 0xB0 }
  - { offset: 0x721F8, size: 0x8, addend: 0x0, symName: __ZNSt3__117__compressed_pairIPNS_5tupleIJNS_12basic_stringIcNS_11char_traitsIcEENS_9allocatorIcEEEES7_EEENS5_IS8_EEE6secondB8ne180100Ev, symObjAddr: 0x427B0, symBinAddr: 0x100043E60, symSize: 0xC0 }
  - { offset: 0x7221E, size: 0x8, addend: 0x0, symName: __ZNSt3__122__compressed_pair_elemINS_9allocatorINS_5tupleIJNS_12basic_stringIcNS_11char_traitsIcEENS1_IcEEEES7_EEEEELi1ELb1EE5__getB8ne180100Ev, symObjAddr: 0x42870, symBinAddr: 0x100043F20, symSize: 0x60 }
  - { offset: 0x72244, size: 0x8, addend: 0x0, symName: __ZNSt3__117__compressed_pairIPNS_5tupleIJNS_12basic_stringIcNS_11char_traitsIcEENS_9allocatorIcEEEES7_EEENS5_IS8_EEE5firstB8ne180100Ev, symObjAddr: 0x428D0, symBinAddr: 0x100043F80, symSize: 0xE0 }
  - { offset: 0x7226A, size: 0x8, addend: 0x0, symName: __ZNSt3__122__compressed_pair_elemIPNS_5tupleIJNS_12basic_stringIcNS_11char_traitsIcEENS_9allocatorIcEEEES7_EEELi0ELb0EE5__getB8ne180100Ev, symObjAddr: 0x429B0, symBinAddr: 0x100044060, symSize: 0x80 }
  - { offset: 0x72290, size: 0x8, addend: 0x0, symName: __ZNKSt3__16vectorINS_5tupleIJNS_12basic_stringIcNS_11char_traitsIcEENS_9allocatorIcEEEES7_EEENS5_IS8_EEE31__annotate_contiguous_containerB8ne180100EPKvSC_, symObjAddr: 0x42A30, symBinAddr: 0x1000440E0, symSize: 0x100 }
  - { offset: 0x722F2, size: 0x8, addend: 0x0, symName: __ZNKSt3__16vectorINS_5tupleIJNS_12basic_stringIcNS_11char_traitsIcEENS_9allocatorIcEEEES7_EEENS5_IS8_EEE4dataB8ne180100Ev, symObjAddr: 0x42B30, symBinAddr: 0x1000441E0, symSize: 0x80 }
  - { offset: 0x72318, size: 0x8, addend: 0x0, symName: __ZNKSt3__16vectorINS_5tupleIJNS_12basic_stringIcNS_11char_traitsIcEENS_9allocatorIcEEEES7_EEENS5_IS8_EEE8capacityB8ne180100Ev, symObjAddr: 0x42BB0, symBinAddr: 0x100044260, symSize: 0x108 }
  - { offset: 0x7233E, size: 0x8, addend: 0x0, symName: __ZNKSt3__16vectorINS_5tupleIJNS_12basic_stringIcNS_11char_traitsIcEENS_9allocatorIcEEEES7_EEENS5_IS8_EEE9__end_capB8ne180100Ev, symObjAddr: 0x42CD0, symBinAddr: 0x100044380, symSize: 0xC0 }
  - { offset: 0x72364, size: 0x8, addend: 0x0, symName: __ZNKSt3__117__compressed_pairIPNS_5tupleIJNS_12basic_stringIcNS_11char_traitsIcEENS_9allocatorIcEEEES7_EEENS5_IS8_EEE5firstB8ne180100Ev, symObjAddr: 0x42D90, symBinAddr: 0x100044440, symSize: 0xE0 }
  - { offset: 0x7238A, size: 0x8, addend: 0x0, symName: __ZNKSt3__122__compressed_pair_elemIPNS_5tupleIJNS_12basic_stringIcNS_11char_traitsIcEENS_9allocatorIcEEEES7_EEELi0ELb0EE5__getB8ne180100Ev, symObjAddr: 0x42E70, symBinAddr: 0x100044520, symSize: 0x80 }
  - { offset: 0x723CB, size: 0x8, addend: 0x0, symName: __ZNSt3__16vectorINS_5tupleIJNS_12basic_stringIcNS_11char_traitsIcEENS_9allocatorIcEEEES7_EEENS5_IS8_EEE21_ConstructTransactionC1B8ne180100ERSA_m, symObjAddr: 0x42EF0, symBinAddr: 0x1000445A0, symSize: 0x68 }
  - { offset: 0x72413, size: 0x8, addend: 0x0, symName: __ZNSt3__16vectorINS_5tupleIJNS_12basic_stringIcNS_11char_traitsIcEENS_9allocatorIcEEEES7_EEENS5_IS8_EEE21_ConstructTransactionD1B8ne180100Ev, symObjAddr: 0x431D0, symBinAddr: 0x100044880, symSize: 0x50 }
  - { offset: 0x7243D, size: 0x8, addend: 0x0, symName: __ZNSt3__16vectorINS_5tupleIJNS_12basic_stringIcNS_11char_traitsIcEENS_9allocatorIcEEEES7_EEENS5_IS8_EEE21_ConstructTransactionC2B8ne180100ERSA_m, symObjAddr: 0x43220, symBinAddr: 0x1000448D0, symSize: 0x2C0 }
  - { offset: 0x72485, size: 0x8, addend: 0x0, symName: __ZNKSt3__16vectorINS_5tupleIJNS_12basic_stringIcNS_11char_traitsIcEENS_9allocatorIcEEEES7_EEENS5_IS8_EEE19__annotate_increaseB8ne180100Em, symObjAddr: 0x434E0, symBinAddr: 0x100044B90, symSize: 0x1E0 }
  - { offset: 0x724BA, size: 0x8, addend: 0x0, symName: __ZNKSt3__16vectorINS_5tupleIJNS_12basic_stringIcNS_11char_traitsIcEENS_9allocatorIcEEEES7_EEENS5_IS8_EEE4sizeB8ne180100Ev, symObjAddr: 0x436C0, symBinAddr: 0x100044D70, symSize: 0xD8 }
  - { offset: 0x724FC, size: 0x8, addend: 0x0, symName: __ZNSt3__119__unwrap_range_implINS_11__wrap_iterIPKNS_5tupleIJNS_12basic_stringIcNS_11char_traitsIcEENS_9allocatorIcEEEES8_EEEEESC_E8__unwrapB8ne180100ESC_SC_, symObjAddr: 0x43DA8, symBinAddr: 0x100045458, symSize: 0x240 }
  - { offset: 0x72535, size: 0x8, addend: 0x0, symName: __ZNSt3__14pairIPKNS_5tupleIJNS_12basic_stringIcNS_11char_traitsIcEENS_9allocatorIcEEEES7_EEESA_EC1B8ne180100ISA_SA_TnNS_9enable_ifIXclsr10_CheckArgsE17__enable_implicitIT_T0_EEEiE4typeELi0EEEOSE_OSF_, symObjAddr: 0x44020, symBinAddr: 0x1000456D0, symSize: 0x68 }
  - { offset: 0x72594, size: 0x8, addend: 0x0, symName: __ZNSt3__118__unwrap_iter_implINS_11__wrap_iterIPKNS_5tupleIJNS_12basic_stringIcNS_11char_traitsIcEENS_9allocatorIcEEEES8_EEEEELb1EE8__unwrapB8ne180100ESC_, symObjAddr: 0x44088, symBinAddr: 0x100045738, symSize: 0x150 }
  - { offset: 0x725C5, size: 0x8, addend: 0x0, symName: __ZNSt3__119__to_address_helperINS_11__wrap_iterIPKNS_5tupleIJNS_12basic_stringIcNS_11char_traitsIcEENS_9allocatorIcEEEES8_EEEEEvE6__callB8ne180100ERKSC_, symObjAddr: 0x44238, symBinAddr: 0x1000458E8, symSize: 0x40 }
  - { offset: 0x725E8, size: 0x8, addend: 0x0, symName: __ZNSt3__114pointer_traitsINS_11__wrap_iterIPKNS_5tupleIJNS_12basic_stringIcNS_11char_traitsIcEENS_9allocatorIcEEEES8_EEEEEE10to_addressB8ne180100ESC_, symObjAddr: 0x44278, symBinAddr: 0x100045928, symSize: 0x150 }
  - { offset: 0x7260E, size: 0x8, addend: 0x0, symName: __ZNSt3__14pairIPKNS_5tupleIJNS_12basic_stringIcNS_11char_traitsIcEENS_9allocatorIcEEEES7_EEESA_EC2B8ne180100ISA_SA_TnNS_9enable_ifIXclsr10_CheckArgsE17__enable_implicitIT_T0_EEEiE4typeELi0EEEOSE_OSF_, symObjAddr: 0x443E0, symBinAddr: 0x100045A90, symSize: 0x198 }
  - { offset: 0x7266D, size: 0x8, addend: 0x0, symName: __ZNSt3__129_AllocatorDestroyRangeReverseINS_9allocatorINS_5tupleIJNS_12basic_stringIcNS_11char_traitsIcEENS1_IcEEEES7_EEEEEPS8_EC1B8ne180100ERS9_RSA_SD_, symObjAddr: 0x44770, symBinAddr: 0x100045E20, symSize: 0x78 }
  - { offset: 0x726C4, size: 0x8, addend: 0x0, symName: __ZNSt3__116allocator_traitsINS_9allocatorINS_5tupleIJNS_12basic_stringIcNS_11char_traitsIcEENS1_IcEEEES7_EEEEEE9constructB8ne180100IS8_JRKS8_EvvEEvRS9_PT_DpOT0_, symObjAddr: 0x447E8, symBinAddr: 0x100045E98, symSize: 0x68 }
  - { offset: 0x72718, size: 0x8, addend: 0x0, symName: __ZNSt3__128__exception_guard_exceptionsINS_29_AllocatorDestroyRangeReverseINS_9allocatorINS_5tupleIJNS_12basic_stringIcNS_11char_traitsIcEENS2_IcEEEES8_EEEEEPS9_EEE10__completeB8ne180100Ev, symObjAddr: 0x44850, symBinAddr: 0x100045F00, symSize: 0xA0 }
  - { offset: 0x7273E, size: 0x8, addend: 0x0, symName: __ZNSt3__128__exception_guard_exceptionsINS_29_AllocatorDestroyRangeReverseINS_9allocatorINS_5tupleIJNS_12basic_stringIcNS_11char_traitsIcEENS2_IcEEEES8_EEEEEPS9_EEED1B8ne180100Ev, symObjAddr: 0x448F0, symBinAddr: 0x100045FA0, symSize: 0x50 }
  - { offset: 0x72768, size: 0x8, addend: 0x0, symName: __ZNSt3__128__exception_guard_exceptionsINS_29_AllocatorDestroyRangeReverseINS_9allocatorINS_5tupleIJNS_12basic_stringIcNS_11char_traitsIcEENS2_IcEEEES8_EEEEEPS9_EEEC1B8ne180100ESC_, symObjAddr: 0x44940, symBinAddr: 0x100045FF0, symSize: 0x280 }
  - { offset: 0x727A5, size: 0x8, addend: 0x0, symName: __ZNSt3__128__exception_guard_exceptionsINS_29_AllocatorDestroyRangeReverseINS_9allocatorINS_5tupleIJNS_12basic_stringIcNS_11char_traitsIcEENS2_IcEEEES8_EEEEEPS9_EEEC2B8ne180100ESC_, symObjAddr: 0x44BC0, symBinAddr: 0x100046270, symSize: 0x220 }
  - { offset: 0x727E2, size: 0x8, addend: 0x0, symName: __ZNSt3__129_AllocatorDestroyRangeReverseINS_9allocatorINS_5tupleIJNS_12basic_stringIcNS_11char_traitsIcEENS1_IcEEEES7_EEEEEPS8_EC2B8ne180100ERS9_RSA_SD_, symObjAddr: 0x44DE0, symBinAddr: 0x100046490, symSize: 0x198 }
  - { offset: 0x72839, size: 0x8, addend: 0x0, symName: __ZNSt3__128__exception_guard_exceptionsINS_29_AllocatorDestroyRangeReverseINS_9allocatorINS_5tupleIJNS_12basic_stringIcNS_11char_traitsIcEENS2_IcEEEES8_EEEEEPS9_EEED2B8ne180100Ev, symObjAddr: 0x450C0, symBinAddr: 0x100046770, symSize: 0x120 }
  - { offset: 0x72863, size: 0x8, addend: 0x0, symName: __ZNKSt3__129_AllocatorDestroyRangeReverseINS_9allocatorINS_5tupleIJNS_12basic_stringIcNS_11char_traitsIcEENS1_IcEEEES7_EEEEEPS8_EclB8ne180100Ev, symObjAddr: 0x451E0, symBinAddr: 0x100046890, symSize: 0x2E8 }
  - { offset: 0x7288A, size: 0x8, addend: 0x0, symName: __ZNSt3__116reverse_iteratorIPNS_5tupleIJNS_12basic_stringIcNS_11char_traitsIcEENS_9allocatorIcEEEES7_EEEEC1B8ne180100ES9_, symObjAddr: 0x456C0, symBinAddr: 0x100046D70, symSize: 0x68 }
  - { offset: 0x728C2, size: 0x8, addend: 0x0, symName: __ZNSt3__116allocator_traitsINS_9allocatorINS_5tupleIJNS_12basic_stringIcNS_11char_traitsIcEENS1_IcEEEES7_EEEEEE7destroyB8ne180100IS8_vvEEvRS9_PT_, symObjAddr: 0x457C8, symBinAddr: 0x100046E78, symSize: 0x30 }
  - { offset: 0x728FC, size: 0x8, addend: 0x0, symName: __ZNSt3__116reverse_iteratorIPNS_5tupleIJNS_12basic_stringIcNS_11char_traitsIcEENS_9allocatorIcEEEES7_EEEEppB8ne180100Ev, symObjAddr: 0x45850, symBinAddr: 0x100046F00, symSize: 0x130 }
  - { offset: 0x72922, size: 0x8, addend: 0x0, symName: __ZNKSt3__116reverse_iteratorIPNS_5tupleIJNS_12basic_stringIcNS_11char_traitsIcEENS_9allocatorIcEEEES7_EEEE4baseB8ne180100Ev, symObjAddr: 0x45980, symBinAddr: 0x100047030, symSize: 0x88 }
  - { offset: 0x7294E, size: 0x8, addend: 0x0, symName: __ZNSt3__119__to_address_helperINS_16reverse_iteratorIPNS_5tupleIJNS_12basic_stringIcNS_11char_traitsIcEENS_9allocatorIcEEEES8_EEEEEvE6__callB8ne180100ERKSB_, symObjAddr: 0x45A68, symBinAddr: 0x100047118, symSize: 0x68 }
  - { offset: 0x72971, size: 0x8, addend: 0x0, symName: __ZNKSt3__116reverse_iteratorIPNS_5tupleIJNS_12basic_stringIcNS_11char_traitsIcEENS_9allocatorIcEEEES7_EEEEptB8ne180100EvQoo12is_pointer_vIT_ErQSB__XcldtfpK_onptEE, symObjAddr: 0x45AD0, symBinAddr: 0x100047180, symSize: 0x98 }
  - { offset: 0x72997, size: 0x8, addend: 0x0, symName: __ZNSt3__116reverse_iteratorIPNS_5tupleIJNS_12basic_stringIcNS_11char_traitsIcEENS_9allocatorIcEEEES7_EEEEC2B8ne180100ES9_, symObjAddr: 0x45E60, symBinAddr: 0x100047510, symSize: 0xD8 }
  - { offset: 0x729CF, size: 0x8, addend: 0x0, symName: __ZNSt3__118__unwrap_iter_implIPNS_5tupleIJNS_12basic_stringIcNS_11char_traitsIcEENS_9allocatorIcEEEES7_EEELb1EE8__unwrapB8ne180100ES9_, symObjAddr: 0x45F38, symBinAddr: 0x1000475E8, symSize: 0x30 }
  - { offset: 0x729F2, size: 0x8, addend: 0x0, symName: __ZNSt3__118__unwrap_iter_implIPNS_5tupleIJNS_12basic_stringIcNS_11char_traitsIcEENS_9allocatorIcEEEES7_EEELb1EE8__rewrapB8ne180100ES9_S9_, symObjAddr: 0x45F68, symBinAddr: 0x100047618, symSize: 0xB8 }
  - { offset: 0x72A23, size: 0x8, addend: 0x0, symName: __ZNSt3__16vectorINS_5tupleIJNS_12basic_stringIcNS_11char_traitsIcEENS_9allocatorIcEEEES7_EEENS5_IS8_EEE21_ConstructTransactionD2B8ne180100Ev, symObjAddr: 0x46020, symBinAddr: 0x1000476D0, symSize: 0x2F0 }
  - { offset: 0x72A4D, size: 0x8, addend: 0x0, symName: __ZNKSt3__16vectorINS_5tupleIJNS_12basic_stringIcNS_11char_traitsIcEENS_9allocatorIcEEEES7_EEENS5_IS8_EEE17__annotate_shrinkB8ne180100Em, symObjAddr: 0x46310, symBinAddr: 0x1000479C0, symSize: 0x160 }
  - { offset: 0x72A82, size: 0x8, addend: 0x0, symName: __ZNSt3__128__exception_guard_exceptionsINS_6vectorINS_5tupleIJNS_12basic_stringIcNS_11char_traitsIcEENS_9allocatorIcEEEES8_EEENS6_IS9_EEE16__destroy_vectorEED2B8ne180100Ev, symObjAddr: 0x46470, symBinAddr: 0x100047B20, symSize: 0x120 }
  - { offset: 0x72AAC, size: 0x8, addend: 0x0, symName: __ZNSt3__16vectorINS_5tupleIJNS_12basic_stringIcNS_11char_traitsIcEENS_9allocatorIcEEEES7_EEENS5_IS8_EEE16__destroy_vectorclB8ne180100Ev, symObjAddr: 0x46590, symBinAddr: 0x100047C40, symSize: 0x350 }
  - { offset: 0x72AD2, size: 0x8, addend: 0x0, symName: __ZNSt3__16vectorINS_5tupleIJNS_12basic_stringIcNS_11char_traitsIcEENS_9allocatorIcEEEES7_EEENS5_IS8_EEE7__clearB8ne180100Ev, symObjAddr: 0x468E0, symBinAddr: 0x100047F90, symSize: 0x80 }
  - { offset: 0x72AF8, size: 0x8, addend: 0x0, symName: __ZNKSt3__16vectorINS_5tupleIJNS_12basic_stringIcNS_11char_traitsIcEENS_9allocatorIcEEEES7_EEENS5_IS8_EEE17__annotate_deleteB8ne180100Ev, symObjAddr: 0x46960, symBinAddr: 0x100048010, symSize: 0x168 }
  - { offset: 0x72B1E, size: 0x8, addend: 0x0, symName: __ZNSt3__116allocator_traitsINS_9allocatorINS_5tupleIJNS_12basic_stringIcNS_11char_traitsIcEENS1_IcEEEES7_EEEEEE10deallocateB8ne180100ERS9_PS8_m, symObjAddr: 0x46AC8, symBinAddr: 0x100048178, symSize: 0x38 }
  - { offset: 0x72B60, size: 0x8, addend: 0x0, symName: __ZNSt3__16vectorINS_5tupleIJNS_12basic_stringIcNS_11char_traitsIcEENS_9allocatorIcEEEES7_EEENS5_IS8_EEE22__base_destruct_at_endB8ne180100EPS8_, symObjAddr: 0x46B00, symBinAddr: 0x1000481B0, symSize: 0x190 }
  - { offset: 0x72BA4, size: 0x8, addend: 0x0, symName: __ZNSt3__19allocatorINS_5tupleIJNS_12basic_stringIcNS_11char_traitsIcEENS0_IcEEEES6_EEEE10deallocateB8ne180100EPS7_m, symObjAddr: 0x46C90, symBinAddr: 0x100048340, symSize: 0x70 }
  - { offset: 0x72BE6, size: 0x8, addend: 0x0, symName: __ZN7testing8internal30ValuesInIteratorRangeGeneratorINSt3__15tupleIJNS2_12basic_stringIcNS2_11char_traitsIcEENS2_9allocatorIcEEEES9_EEEED2Ev, symObjAddr: 0x46D00, symBinAddr: 0x1000483B0, symSize: 0xA0 }
  - { offset: 0x72C10, size: 0x8, addend: 0x0, symName: __ZN7testing8internal30ValuesInIteratorRangeGeneratorINSt3__15tupleIJNS2_12basic_stringIcNS2_11char_traitsIcEENS2_9allocatorIcEEEES9_EEEE8IteratorC1EPKNS0_23ParamGeneratorInterfaceISA_EENS2_11__wrap_iterIPKSA_EE, symObjAddr: 0x46DA0, symBinAddr: 0x100048450, symSize: 0x60 }
  - { offset: 0x72C58, size: 0x8, addend: 0x0, symName: __ZN7testing8internal30ValuesInIteratorRangeGeneratorINSt3__15tupleIJNS2_12basic_stringIcNS2_11char_traitsIcEENS2_9allocatorIcEEEES9_EEEE8IteratorC2EPKNS0_23ParamGeneratorInterfaceISA_EENS2_11__wrap_iterIPKSA_EE, symObjAddr: 0x46E00, symBinAddr: 0x1000484B0, symSize: 0x130 }
  - { offset: 0x72CA0, size: 0x8, addend: 0x0, symName: __ZN7testing8internal22ParamIteratorInterfaceINSt3__15tupleIJNS2_12basic_stringIcNS2_11char_traitsIcEENS2_9allocatorIcEEEES9_EEEEC2Ev, symObjAddr: 0x46F30, symBinAddr: 0x1000485E0, symSize: 0x90 }
  - { offset: 0x72CCC, size: 0x8, addend: 0x0, symName: __ZNSt3__110unique_ptrIKNS_5tupleIJNS_12basic_stringIcNS_11char_traitsIcEENS_9allocatorIcEEEES7_EEENS_14default_deleteIS9_EEEC1B8ne180100ILb1EvEEv, symObjAddr: 0x46FC0, symBinAddr: 0x100048670, symSize: 0x50 }
  - { offset: 0x72D01, size: 0x8, addend: 0x0, symName: __ZN7testing8internal30ValuesInIteratorRangeGeneratorINSt3__15tupleIJNS2_12basic_stringIcNS2_11char_traitsIcEENS2_9allocatorIcEEEES9_EEEE8IteratorD1Ev, symObjAddr: 0x47010, symBinAddr: 0x1000486C0, symSize: 0x50 }
  - { offset: 0x72D2B, size: 0x8, addend: 0x0, symName: __ZN7testing8internal30ValuesInIteratorRangeGeneratorINSt3__15tupleIJNS2_12basic_stringIcNS2_11char_traitsIcEENS2_9allocatorIcEEEES9_EEEE8IteratorD0Ev, symObjAddr: 0x47060, symBinAddr: 0x100048710, symSize: 0x60 }
  - { offset: 0x72D55, size: 0x8, addend: 0x0, symName: __ZNK7testing8internal30ValuesInIteratorRangeGeneratorINSt3__15tupleIJNS2_12basic_stringIcNS2_11char_traitsIcEENS2_9allocatorIcEEEES9_EEEE8Iterator13BaseGeneratorEv, symObjAddr: 0x470C0, symBinAddr: 0x100048770, symSize: 0x110 }
  - { offset: 0x72D7B, size: 0x8, addend: 0x0, symName: __ZN7testing8internal30ValuesInIteratorRangeGeneratorINSt3__15tupleIJNS2_12basic_stringIcNS2_11char_traitsIcEENS2_9allocatorIcEEEES9_EEEE8Iterator7AdvanceEv, symObjAddr: 0x471D0, symBinAddr: 0x100048880, symSize: 0x1E0 }
  - { offset: 0x72DA1, size: 0x8, addend: 0x0, symName: __ZNK7testing8internal30ValuesInIteratorRangeGeneratorINSt3__15tupleIJNS2_12basic_stringIcNS2_11char_traitsIcEENS2_9allocatorIcEEEES9_EEEE8Iterator5CloneEv, symObjAddr: 0x473B0, symBinAddr: 0x100048A60, symSize: 0x120 }
  - { offset: 0x72DC7, size: 0x8, addend: 0x0, symName: __ZNK7testing8internal30ValuesInIteratorRangeGeneratorINSt3__15tupleIJNS2_12basic_stringIcNS2_11char_traitsIcEENS2_9allocatorIcEEEES9_EEEE8Iterator7CurrentEv, symObjAddr: 0x474D0, symBinAddr: 0x100048B80, symSize: 0x430 }
  - { offset: 0x72DED, size: 0x8, addend: 0x0, symName: __ZNK7testing8internal30ValuesInIteratorRangeGeneratorINSt3__15tupleIJNS2_12basic_stringIcNS2_11char_traitsIcEENS2_9allocatorIcEEEES9_EEEE8Iterator6EqualsERKNS0_22ParamIteratorInterfaceISA_EE, symObjAddr: 0x47900, symBinAddr: 0x100048FB0, symSize: 0x8E0 }
  - { offset: 0x72E24, size: 0x8, addend: 0x0, symName: __ZN7testing8internal22ParamIteratorInterfaceINSt3__15tupleIJNS2_12basic_stringIcNS2_11char_traitsIcEENS2_9allocatorIcEEEES9_EEEED1Ev, symObjAddr: 0x481E0, symBinAddr: 0x100049890, symSize: 0x50 }
  - { offset: 0x72E4E, size: 0x8, addend: 0x0, symName: __ZN7testing8internal22ParamIteratorInterfaceINSt3__15tupleIJNS2_12basic_stringIcNS2_11char_traitsIcEENS2_9allocatorIcEEEES9_EEEED0Ev, symObjAddr: 0x48230, symBinAddr: 0x1000498E0, symSize: 0x50 }
  - { offset: 0x72E78, size: 0x8, addend: 0x0, symName: __ZNSt3__110unique_ptrIKNS_5tupleIJNS_12basic_stringIcNS_11char_traitsIcEENS_9allocatorIcEEEES7_EEENS_14default_deleteIS9_EEEC2B8ne180100ILb1EvEEv, symObjAddr: 0x48280, symBinAddr: 0x100049930, symSize: 0x1B0 }
  - { offset: 0x72EAE, size: 0x8, addend: 0x0, symName: __ZNSt3__117__compressed_pairIPKNS_5tupleIJNS_12basic_stringIcNS_11char_traitsIcEENS_9allocatorIcEEEES7_EEENS_14default_deleteIS9_EEEC1B8ne180100INS_16__value_init_tagESF_EEOT_OT0_, symObjAddr: 0x48430, symBinAddr: 0x100049AE0, symSize: 0x60 }
  - { offset: 0x72F06, size: 0x8, addend: 0x0, symName: __ZNSt3__117__compressed_pairIPKNS_5tupleIJNS_12basic_stringIcNS_11char_traitsIcEENS_9allocatorIcEEEES7_EEENS_14default_deleteIS9_EEEC2B8ne180100INS_16__value_init_tagESF_EEOT_OT0_, symObjAddr: 0x48490, symBinAddr: 0x100049B40, symSize: 0xB0 }
  - { offset: 0x72F5E, size: 0x8, addend: 0x0, symName: __ZNSt3__122__compressed_pair_elemIPKNS_5tupleIJNS_12basic_stringIcNS_11char_traitsIcEENS_9allocatorIcEEEES7_EEELi0ELb0EEC2B8ne180100ENS_16__value_init_tagE, symObjAddr: 0x48540, symBinAddr: 0x100049BF0, symSize: 0x80 }
  - { offset: 0x72F93, size: 0x8, addend: 0x0, symName: __ZNSt3__122__compressed_pair_elemINS_14default_deleteIKNS_5tupleIJNS_12basic_stringIcNS_11char_traitsIcEENS_9allocatorIcEEEES8_EEEEELi1ELb1EEC2B8ne180100ENS_16__value_init_tagE, symObjAddr: 0x485C0, symBinAddr: 0x100049C70, symSize: 0x40 }
  - { offset: 0x72FC8, size: 0x8, addend: 0x0, symName: __ZN7testing8internal30ValuesInIteratorRangeGeneratorINSt3__15tupleIJNS2_12basic_stringIcNS2_11char_traitsIcEENS2_9allocatorIcEEEES9_EEEE8IteratorD2Ev, symObjAddr: 0x48600, symBinAddr: 0x100049CB0, symSize: 0xA0 }
  - { offset: 0x72FF2, size: 0x8, addend: 0x0, symName: __ZNSt3__110unique_ptrIKNS_5tupleIJNS_12basic_stringIcNS_11char_traitsIcEENS_9allocatorIcEEEES7_EEENS_14default_deleteIS9_EEED1B8ne180100Ev, symObjAddr: 0x486A0, symBinAddr: 0x100049D50, symSize: 0x50 }
  - { offset: 0x7301C, size: 0x8, addend: 0x0, symName: __ZN7testing8internal22ParamIteratorInterfaceINSt3__15tupleIJNS2_12basic_stringIcNS2_11char_traitsIcEENS2_9allocatorIcEEEES9_EEEED2Ev, symObjAddr: 0x486F0, symBinAddr: 0x100049DA0, symSize: 0x50 }
  - { offset: 0x73046, size: 0x8, addend: 0x0, symName: __ZNSt3__110unique_ptrIKNS_5tupleIJNS_12basic_stringIcNS_11char_traitsIcEENS_9allocatorIcEEEES7_EEENS_14default_deleteIS9_EEED2B8ne180100Ev, symObjAddr: 0x48740, symBinAddr: 0x100049DF0, symSize: 0x60 }
  - { offset: 0x73070, size: 0x8, addend: 0x0, symName: __ZNSt3__110unique_ptrIKNS_5tupleIJNS_12basic_stringIcNS_11char_traitsIcEENS_9allocatorIcEEEES7_EEENS_14default_deleteIS9_EEE5resetB8ne180100EPS9_, symObjAddr: 0x487A0, symBinAddr: 0x100049E50, symSize: 0x210 }
  - { offset: 0x730B4, size: 0x8, addend: 0x0, symName: __ZNSt3__117__compressed_pairIPKNS_5tupleIJNS_12basic_stringIcNS_11char_traitsIcEENS_9allocatorIcEEEES7_EEENS_14default_deleteIS9_EEE5firstB8ne180100Ev, symObjAddr: 0x489B0, symBinAddr: 0x10004A060, symSize: 0xE0 }
  - { offset: 0x730DA, size: 0x8, addend: 0x0, symName: __ZNSt3__117__compressed_pairIPKNS_5tupleIJNS_12basic_stringIcNS_11char_traitsIcEENS_9allocatorIcEEEES7_EEENS_14default_deleteIS9_EEE6secondB8ne180100Ev, symObjAddr: 0x48A90, symBinAddr: 0x10004A140, symSize: 0xC0 }
  - { offset: 0x73100, size: 0x8, addend: 0x0, symName: __ZNKSt3__114default_deleteIKNS_5tupleIJNS_12basic_stringIcNS_11char_traitsIcEENS_9allocatorIcEEEES7_EEEEclB8ne180100EPS9_, symObjAddr: 0x48B50, symBinAddr: 0x10004A200, symSize: 0x90 }
  - { offset: 0x73134, size: 0x8, addend: 0x0, symName: __ZNSt3__122__compressed_pair_elemIPKNS_5tupleIJNS_12basic_stringIcNS_11char_traitsIcEENS_9allocatorIcEEEES7_EEELi0ELb0EE5__getB8ne180100Ev, symObjAddr: 0x48BE0, symBinAddr: 0x10004A290, symSize: 0x80 }
  - { offset: 0x7315A, size: 0x8, addend: 0x0, symName: __ZNSt3__122__compressed_pair_elemINS_14default_deleteIKNS_5tupleIJNS_12basic_stringIcNS_11char_traitsIcEENS_9allocatorIcEEEES8_EEEEELi1ELb1EE5__getB8ne180100Ev, symObjAddr: 0x48C60, symBinAddr: 0x10004A310, symSize: 0x60 }
  - { offset: 0x73180, size: 0x8, addend: 0x0, symName: __ZNSt3__111__wrap_iterIPKNS_5tupleIJNS_12basic_stringIcNS_11char_traitsIcEENS_9allocatorIcEEEES7_EEEEppB8ne180100Ev, symObjAddr: 0x48CC0, symBinAddr: 0x10004A370, symSize: 0x130 }
  - { offset: 0x731A6, size: 0x8, addend: 0x0, symName: __ZN7testing8internal30ValuesInIteratorRangeGeneratorINSt3__15tupleIJNS2_12basic_stringIcNS2_11char_traitsIcEENS2_9allocatorIcEEEES9_EEEE8IteratorC1ERKSC_, symObjAddr: 0x48DF0, symBinAddr: 0x10004A4A0, symSize: 0x60 }
  - { offset: 0x731DF, size: 0x8, addend: 0x0, symName: __ZN7testing8internal30ValuesInIteratorRangeGeneratorINSt3__15tupleIJNS2_12basic_stringIcNS2_11char_traitsIcEENS2_9allocatorIcEEEES9_EEEE8IteratorC2ERKSC_, symObjAddr: 0x48E50, symBinAddr: 0x10004A500, symSize: 0x190 }
  - { offset: 0x73218, size: 0x8, addend: 0x0, symName: __ZNKSt3__110unique_ptrIKNS_5tupleIJNS_12basic_stringIcNS_11char_traitsIcEENS_9allocatorIcEEEES7_EEENS_14default_deleteIS9_EEE3getB8ne180100Ev, symObjAddr: 0x48FE0, symBinAddr: 0x10004A690, symSize: 0xF0 }
  - { offset: 0x7323E, size: 0x8, addend: 0x0, symName: __ZNKSt3__111__wrap_iterIPKNS_5tupleIJNS_12basic_stringIcNS_11char_traitsIcEENS_9allocatorIcEEEES7_EEEEdeB8ne180100Ev, symObjAddr: 0x490D0, symBinAddr: 0x10004A780, symSize: 0xB0 }
  - { offset: 0x73264, size: 0x8, addend: 0x0, symName: __ZNKSt3__117__compressed_pairIPKNS_5tupleIJNS_12basic_stringIcNS_11char_traitsIcEENS_9allocatorIcEEEES7_EEENS_14default_deleteIS9_EEE5firstB8ne180100Ev, symObjAddr: 0x49180, symBinAddr: 0x10004A830, symSize: 0xE0 }
  - { offset: 0x7328A, size: 0x8, addend: 0x0, symName: __ZNKSt3__122__compressed_pair_elemIPKNS_5tupleIJNS_12basic_stringIcNS_11char_traitsIcEENS_9allocatorIcEEEES7_EEELi0ELb0EE5__getB8ne180100Ev, symObjAddr: 0x49260, symBinAddr: 0x10004A910, symSize: 0x80 }
  - { offset: 0x732B0, size: 0x8, addend: 0x0, symName: __ZNSt3__113basic_ostreamIcNS_11char_traitsIcEEElsB8ne180100EPFRS3_S4_E, symObjAddr: 0x492E0, symBinAddr: 0x10004A990, symSize: 0x108 }
  - { offset: 0x732E4, size: 0x8, addend: 0x0, symName: __ZN7testing8internal14ParamGeneratorINSt3__15tupleIJNS2_12basic_stringIcNS2_11char_traitsIcEENS2_9allocatorIcEEEES9_EEEEC2EPNS0_23ParamGeneratorInterfaceISA_EE, symObjAddr: 0x49CF0, symBinAddr: 0x10004B3A0, symSize: 0x60 }
  - { offset: 0x7331C, size: 0x8, addend: 0x0, symName: __ZNSt3__110shared_ptrIKN7testing8internal23ParamGeneratorInterfaceINS_5tupleIJNS_12basic_stringIcNS_11char_traitsIcEENS_9allocatorIcEEEESA_EEEEEEC1B8ne180100ISC_vEEPT_, symObjAddr: 0x49D50, symBinAddr: 0x10004B400, symSize: 0x60 }
  - { offset: 0x7335F, size: 0x8, addend: 0x0, symName: __ZNSt3__110shared_ptrIKN7testing8internal23ParamGeneratorInterfaceINS_5tupleIJNS_12basic_stringIcNS_11char_traitsIcEENS_9allocatorIcEEEESA_EEEEEEC2B8ne180100ISC_vEEPT_, symObjAddr: 0x49DB0, symBinAddr: 0x10004B460, symSize: 0x3D0 }
  - { offset: 0x7345D, size: 0x8, addend: 0x0, symName: __ZNSt3__110unique_ptrIN7testing8internal23ParamGeneratorInterfaceINS_5tupleIJNS_12basic_stringIcNS_11char_traitsIcEENS_9allocatorIcEEEESA_EEEEENS_14default_deleteISC_EEEC1B8ne180100ILb1EvEEPSC_, symObjAddr: 0x4A180, symBinAddr: 0x10004B830, symSize: 0x60 }
  - { offset: 0x734AA, size: 0x8, addend: 0x0, symName: __ZNSt3__19allocatorIN7testing8internal23ParamGeneratorInterfaceINS_5tupleIJNS_12basic_stringIcNS_11char_traitsIcEENS0_IcEEEES9_EEEEEEC1B8ne180100Ev, symObjAddr: 0x4A1E0, symBinAddr: 0x10004B890, symSize: 0x40 }
  - { offset: 0x7357B, size: 0x8, addend: 0x0, symName: __ZNSt3__120__shared_ptr_pointerIPN7testing8internal23ParamGeneratorInterfaceINS_5tupleIJNS_12basic_stringIcNS_11char_traitsIcEENS_9allocatorIcEEEESA_EEEEENS_10shared_ptrIKSC_E27__shared_ptr_default_deleteISF_SC_EENS8_ISC_EEEC1B8ne180100ESD_SI_SJ_, symObjAddr: 0x4A220, symBinAddr: 0x10004B8D0, symSize: 0x60 }
  - { offset: 0x735CF, size: 0x8, addend: 0x0, symName: __ZNSt3__110unique_ptrIN7testing8internal23ParamGeneratorInterfaceINS_5tupleIJNS_12basic_stringIcNS_11char_traitsIcEENS_9allocatorIcEEEESA_EEEEENS_14default_deleteISC_EEE7releaseB8ne180100Ev, symObjAddr: 0x4A280, symBinAddr: 0x10004B930, symSize: 0x190 }
  - { offset: 0x73604, size: 0x8, addend: 0x0, symName: __ZNSt3__110shared_ptrIKN7testing8internal23ParamGeneratorInterfaceINS_5tupleIJNS_12basic_stringIcNS_11char_traitsIcEENS_9allocatorIcEEEESA_EEEEEE18__enable_weak_thisB8ne180100Ez, symObjAddr: 0x4A410, symBinAddr: 0x10004BAC0, symSize: 0x50 }
  - { offset: 0x7362C, size: 0x8, addend: 0x0, symName: __ZNSt3__110unique_ptrIN7testing8internal23ParamGeneratorInterfaceINS_5tupleIJNS_12basic_stringIcNS_11char_traitsIcEENS_9allocatorIcEEEESA_EEEEENS_14default_deleteISC_EEED1B8ne180100Ev, symObjAddr: 0x4A460, symBinAddr: 0x10004BB10, symSize: 0x50 }
  - { offset: 0x73656, size: 0x8, addend: 0x0, symName: __ZNSt3__110unique_ptrIN7testing8internal23ParamGeneratorInterfaceINS_5tupleIJNS_12basic_stringIcNS_11char_traitsIcEENS_9allocatorIcEEEESA_EEEEENS_14default_deleteISC_EEEC2B8ne180100ILb1EvEEPSC_, symObjAddr: 0x4A4B0, symBinAddr: 0x10004BB60, symSize: 0x1D0 }
  - { offset: 0x7369E, size: 0x8, addend: 0x0, symName: __ZNSt3__117__compressed_pairIPN7testing8internal23ParamGeneratorInterfaceINS_5tupleIJNS_12basic_stringIcNS_11char_traitsIcEENS_9allocatorIcEEEESA_EEEEENS_14default_deleteISC_EEEC1B8ne180100IRSD_NS_16__value_init_tagEEEOT_OT0_, symObjAddr: 0x4A680, symBinAddr: 0x10004BD30, symSize: 0x60 }
  - { offset: 0x736F6, size: 0x8, addend: 0x0, symName: __ZNSt3__117__compressed_pairIPN7testing8internal23ParamGeneratorInterfaceINS_5tupleIJNS_12basic_stringIcNS_11char_traitsIcEENS_9allocatorIcEEEESA_EEEEENS_14default_deleteISC_EEEC2B8ne180100IRSD_NS_16__value_init_tagEEEOT_OT0_, symObjAddr: 0x4A6E0, symBinAddr: 0x10004BD90, symSize: 0xF0 }
  - { offset: 0x7374E, size: 0x8, addend: 0x0, symName: __ZNSt3__122__compressed_pair_elemIPN7testing8internal23ParamGeneratorInterfaceINS_5tupleIJNS_12basic_stringIcNS_11char_traitsIcEENS_9allocatorIcEEEESA_EEEEELi0ELb0EEC2B8ne180100IRSD_vEEOT_, symObjAddr: 0x4A7D0, symBinAddr: 0x10004BE80, symSize: 0xF0 }
  - { offset: 0x73790, size: 0x8, addend: 0x0, symName: __ZNSt3__122__compressed_pair_elemINS_14default_deleteIN7testing8internal23ParamGeneratorInterfaceINS_5tupleIJNS_12basic_stringIcNS_11char_traitsIcEENS_9allocatorIcEEEESB_EEEEEEELi1ELb1EEC2B8ne180100ENS_16__value_init_tagE, symObjAddr: 0x4A8C0, symBinAddr: 0x10004BF70, symSize: 0x40 }
  - { offset: 0x737C5, size: 0x8, addend: 0x0, symName: __ZNSt3__19allocatorIN7testing8internal23ParamGeneratorInterfaceINS_5tupleIJNS_12basic_stringIcNS_11char_traitsIcEENS0_IcEEEES9_EEEEEEC2B8ne180100Ev, symObjAddr: 0x4A900, symBinAddr: 0x10004BFB0, symSize: 0x60 }
  - { offset: 0x737EF, size: 0x8, addend: 0x0, symName: __ZNSt3__116__non_trivial_ifILb1ENS_9allocatorIN7testing8internal23ParamGeneratorInterfaceINS_5tupleIJNS_12basic_stringIcNS_11char_traitsIcEENS1_IcEEEESA_EEEEEEEEC2B8ne180100Ev, symObjAddr: 0x4A960, symBinAddr: 0x10004C010, symSize: 0x40 }
  - { offset: 0x73819, size: 0x8, addend: 0x0, symName: __ZNSt3__120__shared_ptr_pointerIPN7testing8internal23ParamGeneratorInterfaceINS_5tupleIJNS_12basic_stringIcNS_11char_traitsIcEENS_9allocatorIcEEEESA_EEEEENS_10shared_ptrIKSC_E27__shared_ptr_default_deleteISF_SC_EENS8_ISC_EEEC2B8ne180100ESD_SI_SJ_, symObjAddr: 0x4A9A0, symBinAddr: 0x10004C050, symSize: 0x350 }
  - { offset: 0x73880, size: 0x8, addend: 0x0, symName: __ZNSt3__117__compressed_pairIPN7testing8internal23ParamGeneratorInterfaceINS_5tupleIJNS_12basic_stringIcNS_11char_traitsIcEENS_9allocatorIcEEEESA_EEEEENS_10shared_ptrIKSC_E27__shared_ptr_default_deleteISF_SC_EEEC1B8ne180100IRSD_SI_EEOT_OT0_, symObjAddr: 0x4ACF0, symBinAddr: 0x10004C3A0, symSize: 0x60 }
  - { offset: 0x738E4, size: 0x8, addend: 0x0, symName: __ZNSt3__117__compressed_pairINS0_IPN7testing8internal23ParamGeneratorInterfaceINS_5tupleIJNS_12basic_stringIcNS_11char_traitsIcEENS_9allocatorIcEEEESA_EEEEENS_10shared_ptrIKSC_E27__shared_ptr_default_deleteISF_SC_EEEENS8_ISC_EEEC1B8ne180100ISJ_SK_EEOT_OT0_, symObjAddr: 0x4AD50, symBinAddr: 0x10004C400, symSize: 0x60 }
  - { offset: 0x7393C, size: 0x8, addend: 0x0, symName: __ZNSt3__120__shared_ptr_pointerIPN7testing8internal23ParamGeneratorInterfaceINS_5tupleIJNS_12basic_stringIcNS_11char_traitsIcEENS_9allocatorIcEEEESA_EEEEENS_10shared_ptrIKSC_E27__shared_ptr_default_deleteISF_SC_EENS8_ISC_EEED1Ev, symObjAddr: 0x4ADB0, symBinAddr: 0x10004C460, symSize: 0x50 }
  - { offset: 0x73968, size: 0x8, addend: 0x0, symName: __ZNSt3__120__shared_ptr_pointerIPN7testing8internal23ParamGeneratorInterfaceINS_5tupleIJNS_12basic_stringIcNS_11char_traitsIcEENS_9allocatorIcEEEESA_EEEEENS_10shared_ptrIKSC_E27__shared_ptr_default_deleteISF_SC_EENS8_ISC_EEED0Ev, symObjAddr: 0x4AE00, symBinAddr: 0x10004C4B0, symSize: 0x60 }
  - { offset: 0x73994, size: 0x8, addend: 0x0, symName: __ZNSt3__120__shared_ptr_pointerIPN7testing8internal23ParamGeneratorInterfaceINS_5tupleIJNS_12basic_stringIcNS_11char_traitsIcEENS_9allocatorIcEEEESA_EEEEENS_10shared_ptrIKSC_E27__shared_ptr_default_deleteISF_SC_EENS8_ISC_EEE16__on_zero_sharedEv, symObjAddr: 0x4AE60, symBinAddr: 0x10004C510, symSize: 0x3E0 }
  - { offset: 0x739BA, size: 0x8, addend: 0x0, symName: __ZNKSt3__120__shared_ptr_pointerIPN7testing8internal23ParamGeneratorInterfaceINS_5tupleIJNS_12basic_stringIcNS_11char_traitsIcEENS_9allocatorIcEEEESA_EEEEENS_10shared_ptrIKSC_E27__shared_ptr_default_deleteISF_SC_EENS8_ISC_EEE13__get_deleterERKSt9type_info, symObjAddr: 0x4B240, symBinAddr: 0x10004C8F0, symSize: 0x260 }
  - { offset: 0x739EE, size: 0x8, addend: 0x0, symName: __ZNSt3__120__shared_ptr_pointerIPN7testing8internal23ParamGeneratorInterfaceINS_5tupleIJNS_12basic_stringIcNS_11char_traitsIcEENS_9allocatorIcEEEESA_EEEEENS_10shared_ptrIKSC_E27__shared_ptr_default_deleteISF_SC_EENS8_ISC_EEE21__on_zero_shared_weakEv, symObjAddr: 0x4B4A0, symBinAddr: 0x10004CB50, symSize: 0x380 }
  - { offset: 0x73A32, size: 0x8, addend: 0x0, symName: __ZNSt3__117__compressed_pairIPN7testing8internal23ParamGeneratorInterfaceINS_5tupleIJNS_12basic_stringIcNS_11char_traitsIcEENS_9allocatorIcEEEESA_EEEEENS_10shared_ptrIKSC_E27__shared_ptr_default_deleteISF_SC_EEEC2B8ne180100IRSD_SI_EEOT_OT0_, symObjAddr: 0x4B820, symBinAddr: 0x10004CED0, symSize: 0x110 }
  - { offset: 0x73A8A, size: 0x8, addend: 0x0, symName: __ZNSt3__122__compressed_pair_elemINS_10shared_ptrIKN7testing8internal23ParamGeneratorInterfaceINS_5tupleIJNS_12basic_stringIcNS_11char_traitsIcEENS_9allocatorIcEEEESB_EEEEEE27__shared_ptr_default_deleteISE_SD_EELi1ELb1EEC2B8ne180100ISH_vEEOT_, symObjAddr: 0x4B930, symBinAddr: 0x10004CFE0, symSize: 0x40 }
  - { offset: 0x73ACC, size: 0x8, addend: 0x0, symName: __ZNSt3__117__compressed_pairINS0_IPN7testing8internal23ParamGeneratorInterfaceINS_5tupleIJNS_12basic_stringIcNS_11char_traitsIcEENS_9allocatorIcEEEESA_EEEEENS_10shared_ptrIKSC_E27__shared_ptr_default_deleteISF_SC_EEEENS8_ISC_EEEC2B8ne180100ISJ_SK_EEOT_OT0_, symObjAddr: 0x4B970, symBinAddr: 0x10004D020, symSize: 0x110 }
  - { offset: 0x73B24, size: 0x8, addend: 0x0, symName: __ZNSt3__122__compressed_pair_elemINS_17__compressed_pairIPN7testing8internal23ParamGeneratorInterfaceINS_5tupleIJNS_12basic_stringIcNS_11char_traitsIcEENS_9allocatorIcEEEESB_EEEEENS_10shared_ptrIKSD_E27__shared_ptr_default_deleteISG_SD_EEEELi0ELb0EEC2B8ne180100ISK_vEEOT_, symObjAddr: 0x4BA80, symBinAddr: 0x10004D130, symSize: 0x60 }
  - { offset: 0x73B66, size: 0x8, addend: 0x0, symName: __ZNSt3__122__compressed_pair_elemINS_9allocatorIN7testing8internal23ParamGeneratorInterfaceINS_5tupleIJNS_12basic_stringIcNS_11char_traitsIcEENS1_IcEEEESA_EEEEEEELi1ELb1EEC2B8ne180100ISD_vEEOT_, symObjAddr: 0x4BAE0, symBinAddr: 0x10004D190, symSize: 0x40 }
  - { offset: 0x73BA8, size: 0x8, addend: 0x0, symName: __ZNSt3__120__shared_ptr_pointerIPN7testing8internal23ParamGeneratorInterfaceINS_5tupleIJNS_12basic_stringIcNS_11char_traitsIcEENS_9allocatorIcEEEESA_EEEEENS_10shared_ptrIKSC_E27__shared_ptr_default_deleteISF_SC_EENS8_ISC_EEED2Ev, symObjAddr: 0x4BB20, symBinAddr: 0x10004D1D0, symSize: 0x50 }
  - { offset: 0x73BD4, size: 0x8, addend: 0x0, symName: __ZNSt3__117__compressed_pairINS0_IPN7testing8internal23ParamGeneratorInterfaceINS_5tupleIJNS_12basic_stringIcNS_11char_traitsIcEENS_9allocatorIcEEEESA_EEEEENS_10shared_ptrIKSC_E27__shared_ptr_default_deleteISF_SC_EEEENS8_ISC_EEE5firstB8ne180100Ev, symObjAddr: 0x4BB70, symBinAddr: 0x10004D220, symSize: 0xE0 }
  - { offset: 0x73BFA, size: 0x8, addend: 0x0, symName: __ZNSt3__117__compressed_pairIPN7testing8internal23ParamGeneratorInterfaceINS_5tupleIJNS_12basic_stringIcNS_11char_traitsIcEENS_9allocatorIcEEEESA_EEEEENS_10shared_ptrIKSC_E27__shared_ptr_default_deleteISF_SC_EEE6secondB8ne180100Ev, symObjAddr: 0x4BC50, symBinAddr: 0x10004D300, symSize: 0xC0 }
  - { offset: 0x73C20, size: 0x8, addend: 0x0, symName: __ZNKSt3__114default_deleteIN7testing8internal23ParamGeneratorInterfaceINS_5tupleIJNS_12basic_stringIcNS_11char_traitsIcEENS_9allocatorIcEEEESA_EEEEEEclB8ne180100EPSC_, symObjAddr: 0x4BD10, symBinAddr: 0x10004D3C0, symSize: 0x190 }
  - { offset: 0x73C54, size: 0x8, addend: 0x0, symName: __ZNSt3__117__compressed_pairIPN7testing8internal23ParamGeneratorInterfaceINS_5tupleIJNS_12basic_stringIcNS_11char_traitsIcEENS_9allocatorIcEEEESA_EEEEENS_10shared_ptrIKSC_E27__shared_ptr_default_deleteISF_SC_EEE5firstB8ne180100Ev, symObjAddr: 0x4BEA0, symBinAddr: 0x10004D550, symSize: 0xE0 }
  - { offset: 0x73C7A, size: 0x8, addend: 0x0, symName: __ZNSt3__122__compressed_pair_elemINS_17__compressed_pairIPN7testing8internal23ParamGeneratorInterfaceINS_5tupleIJNS_12basic_stringIcNS_11char_traitsIcEENS_9allocatorIcEEEESB_EEEEENS_10shared_ptrIKSD_E27__shared_ptr_default_deleteISG_SD_EEEELi0ELb0EE5__getB8ne180100Ev, symObjAddr: 0x4BF80, symBinAddr: 0x10004D630, symSize: 0x80 }
  - { offset: 0x73CA0, size: 0x8, addend: 0x0, symName: __ZNSt3__122__compressed_pair_elemINS_10shared_ptrIKN7testing8internal23ParamGeneratorInterfaceINS_5tupleIJNS_12basic_stringIcNS_11char_traitsIcEENS_9allocatorIcEEEESB_EEEEEE27__shared_ptr_default_deleteISE_SD_EELi1ELb1EE5__getB8ne180100Ev, symObjAddr: 0x4C000, symBinAddr: 0x10004D6B0, symSize: 0x60 }
  - { offset: 0x73CC6, size: 0x8, addend: 0x0, symName: __ZNSt3__122__compressed_pair_elemIPN7testing8internal23ParamGeneratorInterfaceINS_5tupleIJNS_12basic_stringIcNS_11char_traitsIcEENS_9allocatorIcEEEESA_EEEEELi0ELb0EE5__getB8ne180100Ev, symObjAddr: 0x4C060, symBinAddr: 0x10004D710, symSize: 0x80 }
  - { offset: 0x73CEC, size: 0x8, addend: 0x0, symName: __ZNKSt3__117__compressed_pairINS0_IPN7testing8internal23ParamGeneratorInterfaceINS_5tupleIJNS_12basic_stringIcNS_11char_traitsIcEENS_9allocatorIcEEEESA_EEEEENS_10shared_ptrIKSC_E27__shared_ptr_default_deleteISF_SC_EEEENS8_ISC_EEE5firstB8ne180100Ev, symObjAddr: 0x4C0E0, symBinAddr: 0x10004D790, symSize: 0xE0 }
  - { offset: 0x73D12, size: 0x8, addend: 0x0, symName: __ZNKSt3__117__compressed_pairIPN7testing8internal23ParamGeneratorInterfaceINS_5tupleIJNS_12basic_stringIcNS_11char_traitsIcEENS_9allocatorIcEEEESA_EEEEENS_10shared_ptrIKSC_E27__shared_ptr_default_deleteISF_SC_EEE6secondB8ne180100Ev, symObjAddr: 0x4C1C0, symBinAddr: 0x10004D870, symSize: 0xC0 }
  - { offset: 0x73D38, size: 0x8, addend: 0x0, symName: __ZNKSt3__122__compressed_pair_elemINS_17__compressed_pairIPN7testing8internal23ParamGeneratorInterfaceINS_5tupleIJNS_12basic_stringIcNS_11char_traitsIcEENS_9allocatorIcEEEESB_EEEEENS_10shared_ptrIKSD_E27__shared_ptr_default_deleteISG_SD_EEEELi0ELb0EE5__getB8ne180100Ev, symObjAddr: 0x4C280, symBinAddr: 0x10004D930, symSize: 0x80 }
  - { offset: 0x73D5E, size: 0x8, addend: 0x0, symName: __ZNKSt3__122__compressed_pair_elemINS_10shared_ptrIKN7testing8internal23ParamGeneratorInterfaceINS_5tupleIJNS_12basic_stringIcNS_11char_traitsIcEENS_9allocatorIcEEEESB_EEEEEE27__shared_ptr_default_deleteISE_SD_EELi1ELb1EE5__getB8ne180100Ev, symObjAddr: 0x4C300, symBinAddr: 0x10004D9B0, symSize: 0x60 }
  - { offset: 0x73D84, size: 0x8, addend: 0x0, symName: __ZNSt3__117__compressed_pairINS0_IPN7testing8internal23ParamGeneratorInterfaceINS_5tupleIJNS_12basic_stringIcNS_11char_traitsIcEENS_9allocatorIcEEEESA_EEEEENS_10shared_ptrIKSC_E27__shared_ptr_default_deleteISF_SC_EEEENS8_ISC_EEE6secondB8ne180100Ev, symObjAddr: 0x4C360, symBinAddr: 0x10004DA10, symSize: 0xC0 }
  - { offset: 0x73DB9, size: 0x8, addend: 0x0, symName: __ZNSt3__19allocatorINS_20__shared_ptr_pointerIPN7testing8internal23ParamGeneratorInterfaceINS_5tupleIJNS_12basic_stringIcNS_11char_traitsIcEENS0_IcEEEESA_EEEEENS_10shared_ptrIKSC_E27__shared_ptr_default_deleteISF_SC_EENS0_ISC_EEEEEC1B8ne180100ISC_EERKNS0_IT_EE, symObjAddr: 0x4C420, symBinAddr: 0x10004DAD0, symSize: 0x50 }
  - { offset: 0x73DF7, size: 0x8, addend: 0x0, symName: __ZNSt3__19allocatorINS_20__shared_ptr_pointerIPN7testing8internal23ParamGeneratorInterfaceINS_5tupleIJNS_12basic_stringIcNS_11char_traitsIcEENS0_IcEEEESA_EEEEENS_10shared_ptrIKSC_E27__shared_ptr_default_deleteISF_SC_EENS0_ISC_EEEEE10deallocateB8ne180100EPSK_m, symObjAddr: 0x4C470, symBinAddr: 0x10004DB20, symSize: 0x78 }
  - { offset: 0x73E3F, size: 0x8, addend: 0x0, symName: __ZNSt3__114pointer_traitsIPNS_20__shared_ptr_pointerIPN7testing8internal23ParamGeneratorInterfaceINS_5tupleIJNS_12basic_stringIcNS_11char_traitsIcEENS_9allocatorIcEEEESB_EEEEENS_10shared_ptrIKSD_E27__shared_ptr_default_deleteISG_SD_EENS9_ISD_EEEEE10pointer_toB8ne180100ERSL_, symObjAddr: 0x4C4E8, symBinAddr: 0x10004DB98, symSize: 0x18 }
  - { offset: 0x73E62, size: 0x8, addend: 0x0, symName: __ZNSt3__122__compressed_pair_elemINS_9allocatorIN7testing8internal23ParamGeneratorInterfaceINS_5tupleIJNS_12basic_stringIcNS_11char_traitsIcEENS1_IcEEEESA_EEEEEEELi1ELb1EE5__getB8ne180100Ev, symObjAddr: 0x4C500, symBinAddr: 0x10004DBB0, symSize: 0x60 }
  - { offset: 0x73E88, size: 0x8, addend: 0x0, symName: __ZNSt3__19allocatorINS_20__shared_ptr_pointerIPN7testing8internal23ParamGeneratorInterfaceINS_5tupleIJNS_12basic_stringIcNS_11char_traitsIcEENS0_IcEEEESA_EEEEENS_10shared_ptrIKSC_E27__shared_ptr_default_deleteISF_SC_EENS0_ISC_EEEEEC2B8ne180100ISC_EERKNS0_IT_EE, symObjAddr: 0x4C560, symBinAddr: 0x10004DC10, symSize: 0x60 }
  - { offset: 0x73EC6, size: 0x8, addend: 0x0, symName: __ZNSt3__116__non_trivial_ifILb1ENS_9allocatorINS_20__shared_ptr_pointerIPN7testing8internal23ParamGeneratorInterfaceINS_5tupleIJNS_12basic_stringIcNS_11char_traitsIcEENS1_IcEEEESB_EEEEENS_10shared_ptrIKSD_E27__shared_ptr_default_deleteISG_SD_EENS1_ISD_EEEEEEEC2B8ne180100Ev, symObjAddr: 0x4C5C0, symBinAddr: 0x10004DC70, symSize: 0x40 }
  - { offset: 0x73EF0, size: 0x8, addend: 0x0, symName: __ZNSt3__117__compressed_pairIPN7testing8internal23ParamGeneratorInterfaceINS_5tupleIJNS_12basic_stringIcNS_11char_traitsIcEENS_9allocatorIcEEEESA_EEEEENS_14default_deleteISC_EEE5firstB8ne180100Ev, symObjAddr: 0x4C600, symBinAddr: 0x10004DCB0, symSize: 0xE0 }
  - { offset: 0x73F16, size: 0x8, addend: 0x0, symName: __ZNSt3__110unique_ptrIN7testing8internal23ParamGeneratorInterfaceINS_5tupleIJNS_12basic_stringIcNS_11char_traitsIcEENS_9allocatorIcEEEESA_EEEEENS_14default_deleteISC_EEED2B8ne180100Ev, symObjAddr: 0x4C6E0, symBinAddr: 0x10004DD90, symSize: 0x60 }
  - { offset: 0x73F40, size: 0x8, addend: 0x0, symName: __ZNSt3__110unique_ptrIN7testing8internal23ParamGeneratorInterfaceINS_5tupleIJNS_12basic_stringIcNS_11char_traitsIcEENS_9allocatorIcEEEESA_EEEEENS_14default_deleteISC_EEE5resetB8ne180100EPSC_, symObjAddr: 0x4C740, symBinAddr: 0x10004DDF0, symSize: 0x210 }
  - { offset: 0x73F84, size: 0x8, addend: 0x0, symName: __ZNSt3__117__compressed_pairIPN7testing8internal23ParamGeneratorInterfaceINS_5tupleIJNS_12basic_stringIcNS_11char_traitsIcEENS_9allocatorIcEEEESA_EEEEENS_14default_deleteISC_EEE6secondB8ne180100Ev, symObjAddr: 0x4C950, symBinAddr: 0x10004E000, symSize: 0xC0 }
  - { offset: 0x73FAA, size: 0x8, addend: 0x0, symName: __ZNSt3__122__compressed_pair_elemINS_14default_deleteIN7testing8internal23ParamGeneratorInterfaceINS_5tupleIJNS_12basic_stringIcNS_11char_traitsIcEENS_9allocatorIcEEEESB_EEEEEEELi1ELb1EE5__getB8ne180100Ev, symObjAddr: 0x4CA10, symBinAddr: 0x10004E0C0, symSize: 0x60 }
  - { offset: 0x73FD0, size: 0x8, addend: 0x0, symName: __ZNKSt3__16vectorINS_5tupleIJNS_12basic_stringIcNS_11char_traitsIcEENS_9allocatorIcEEEES7_EEENS5_IS8_EEE11__make_iterB8ne180100EPKS8_, symObjAddr: 0x4CA70, symBinAddr: 0x10004E120, symSize: 0x190 }
  - { offset: 0x74007, size: 0x8, addend: 0x0, symName: __ZNSt3__111__wrap_iterIPKNS_5tupleIJNS_12basic_stringIcNS_11char_traitsIcEENS_9allocatorIcEEEES7_EEEEC1B8ne180100ESA_, symObjAddr: 0x4CC00, symBinAddr: 0x10004E2B0, symSize: 0x60 }
  - { offset: 0x7403F, size: 0x8, addend: 0x0, symName: __ZNSt3__111__wrap_iterIPKNS_5tupleIJNS_12basic_stringIcNS_11char_traitsIcEENS_9allocatorIcEEEES7_EEEEC2B8ne180100ESA_, symObjAddr: 0x4CC60, symBinAddr: 0x10004E310, symSize: 0x90 }
  - { offset: 0x7408C, size: 0x8, addend: 0x0, symName: __ZNK7testing8internal13FlatTupleBaseINS0_9FlatTupleIJNSt3__15tupleIJPKcS6_EEES7_S7_S7_EEENS3_16integer_sequenceImJLm0ELm1ELm2ELm3EEEEE3GetILm0EEERKNS0_12ElemFromListIXT_EJS7_S7_S7_S7_EE4typeEv, symObjAddr: 0x4CCF0, symBinAddr: 0x10004E3A0, symSize: 0xA0 }
  - { offset: 0x740BC, size: 0x8, addend: 0x0, symName: __ZNSt3__15tupleIJNS_12basic_stringIcNS_11char_traitsIcEENS_9allocatorIcEEEES6_EEC1B8ne180100IJPKcSA_ETnNS_9enable_ifIXsr4_AndINS7_26_EnableCtorFromUTypesTupleIRKNS0_IJDpT_EEEu14__remove_cvrefISH_EvEEEE5valueEiE4typeELi0EEESH_, symObjAddr: 0x4CD90, symBinAddr: 0x10004E440, symSize: 0x60 }
  - { offset: 0x74117, size: 0x8, addend: 0x0, symName: __ZNK7testing8internal13FlatTupleBaseINS0_9FlatTupleIJNSt3__15tupleIJPKcS6_EEES7_S7_S7_EEENS3_16integer_sequenceImJLm0ELm1ELm2ELm3EEEEE3GetILm1EEERKNS0_12ElemFromListIXT_EJS7_S7_S7_S7_EE4typeEv, symObjAddr: 0x4CDF0, symBinAddr: 0x10004E4A0, symSize: 0xB0 }
  - { offset: 0x74152, size: 0x8, addend: 0x0, symName: __ZNK7testing8internal13FlatTupleBaseINS0_9FlatTupleIJNSt3__15tupleIJPKcS6_EEES7_S7_S7_EEENS3_16integer_sequenceImJLm0ELm1ELm2ELm3EEEEE3GetILm2EEERKNS0_12ElemFromListIXT_EJS7_S7_S7_S7_EE4typeEv, symObjAddr: 0x4CEA0, symBinAddr: 0x10004E550, symSize: 0xB0 }
  - { offset: 0x7418D, size: 0x8, addend: 0x0, symName: __ZNK7testing8internal13FlatTupleBaseINS0_9FlatTupleIJNSt3__15tupleIJPKcS6_EEES7_S7_S7_EEENS3_16integer_sequenceImJLm0ELm1ELm2ELm3EEEEE3GetILm3EEERKNS0_12ElemFromListIXT_EJS7_S7_S7_S7_EE4typeEv, symObjAddr: 0x4CF50, symBinAddr: 0x10004E600, symSize: 0xB0 }
  - { offset: 0x741BD, size: 0x8, addend: 0x0, symName: __ZNSt3__16vectorINS_5tupleIJNS_12basic_stringIcNS_11char_traitsIcEENS_9allocatorIcEEEES7_EEENS5_IS8_EEEC1B8ne180100ESt16initializer_listIS8_E, symObjAddr: 0x4D000, symBinAddr: 0x10004E6B0, symSize: 0x60 }
  - { offset: 0x741F6, size: 0x8, addend: 0x0, symName: __ZNSt3__15tupleIJNS_12basic_stringIcNS_11char_traitsIcEENS_9allocatorIcEEEES6_EEC2B8ne180100IJPKcSA_ETnNS_9enable_ifIXsr4_AndINS7_26_EnableCtorFromUTypesTupleIRKNS0_IJDpT_EEEu14__remove_cvrefISH_EvEEEE5valueEiE4typeELi0EEESH_, symObjAddr: 0x4D060, symBinAddr: 0x10004E710, symSize: 0x90 }
  - { offset: 0x74246, size: 0x8, addend: 0x0, symName: __ZNSt3__112__tuple_implINS_15__tuple_indicesIJLm0ELm1EEEEJNS_12basic_stringIcNS_11char_traitsIcEENS_9allocatorIcEEEES8_EEC1B8ne180100IRKNS_5tupleIJPKcSD_EEEvEEOT_, symObjAddr: 0x4D0F0, symBinAddr: 0x10004E7A0, symSize: 0x60 }
  - { offset: 0x74289, size: 0x8, addend: 0x0, symName: __ZNSt3__112__tuple_implINS_15__tuple_indicesIJLm0ELm1EEEEJNS_12basic_stringIcNS_11char_traitsIcEENS_9allocatorIcEEEES8_EEC2B8ne180100IRKNS_5tupleIJPKcSD_EEEvEEOT_, symObjAddr: 0x4D150, symBinAddr: 0x10004E800, symSize: 0x1E8 }
  - { offset: 0x742CC, size: 0x8, addend: 0x0, symName: __ZNSt3__112__tuple_leafILm0ENS_12basic_stringIcNS_11char_traitsIcEENS_9allocatorIcEEEELb0EEC2B8ne180100IRKPKcvEEOT_, symObjAddr: 0x4D3E0, symBinAddr: 0x10004EA90, symSize: 0xC8 }
  - { offset: 0x7430F, size: 0x8, addend: 0x0, symName: __ZNSt3__112__tuple_leafILm1ENS_12basic_stringIcNS_11char_traitsIcEENS_9allocatorIcEEEELb0EEC2B8ne180100IRKPKcvEEOT_, symObjAddr: 0x4D560, symBinAddr: 0x10004EC10, symSize: 0xC0 }
  - { offset: 0x74352, size: 0x8, addend: 0x0, symName: __ZNKSt3__112__tuple_leafILm0EPKcLb0EE3getB8ne180100Ev, symObjAddr: 0x4D620, symBinAddr: 0x10004ECD0, symSize: 0x80 }
  - { offset: 0x74378, size: 0x8, addend: 0x0, symName: __ZNKSt3__112__tuple_leafILm1EPKcLb0EE3getB8ne180100Ev, symObjAddr: 0x4D6A0, symBinAddr: 0x10004ED50, symSize: 0x80 }
  - { offset: 0x7439E, size: 0x8, addend: 0x0, symName: __ZNSt3__16vectorINS_5tupleIJNS_12basic_stringIcNS_11char_traitsIcEENS_9allocatorIcEEEES7_EEENS5_IS8_EEEC2B8ne180100ESt16initializer_listIS8_E, symObjAddr: 0x4D720, symBinAddr: 0x10004EDD0, symSize: 0x4A0 }
  - { offset: 0x743F5, size: 0x8, addend: 0x0, symName: __ZNKSt16initializer_listINSt3__15tupleIJNS0_12basic_stringIcNS0_11char_traitsIcEENS0_9allocatorIcEEEES7_EEEE4sizeB8ne180100Ev, symObjAddr: 0x4DBC0, symBinAddr: 0x10004F270, symSize: 0x80 }
  - { offset: 0x7441B, size: 0x8, addend: 0x0, symName: __ZNSt3__16vectorINS_5tupleIJNS_12basic_stringIcNS_11char_traitsIcEENS_9allocatorIcEEEES7_EEENS5_IS8_EEE18__construct_at_endIPKS8_SD_EEvT_T0_m, symObjAddr: 0x4DC40, symBinAddr: 0x10004F2F0, symSize: 0x390 }
  - { offset: 0x74497, size: 0x8, addend: 0x0, symName: __ZNKSt16initializer_listINSt3__15tupleIJNS0_12basic_stringIcNS0_11char_traitsIcEENS0_9allocatorIcEEEES7_EEEE5beginB8ne180100Ev, symObjAddr: 0x4DFD0, symBinAddr: 0x10004F680, symSize: 0x80 }
  - { offset: 0x744BD, size: 0x8, addend: 0x0, symName: __ZNKSt16initializer_listINSt3__15tupleIJNS0_12basic_stringIcNS0_11char_traitsIcEENS0_9allocatorIcEEEES7_EEEE3endB8ne180100Ev, symObjAddr: 0x4E050, symBinAddr: 0x10004F700, symSize: 0x128 }
  - { offset: 0x744E3, size: 0x8, addend: 0x0, symName: __ZNSt3__119__unwrap_range_implIPKNS_5tupleIJNS_12basic_stringIcNS_11char_traitsIcEENS_9allocatorIcEEEES7_EEESA_E8__unwrapB8ne180100ESA_SA_, symObjAddr: 0x4E3E8, symBinAddr: 0x10004FA98, symSize: 0x1F0 }
  - { offset: 0x74516, size: 0x8, addend: 0x0, symName: __ZNSt3__118__unwrap_iter_implIPKNS_5tupleIJNS_12basic_stringIcNS_11char_traitsIcEENS_9allocatorIcEEEES7_EEELb1EE8__unwrapB8ne180100ESA_, symObjAddr: 0x4E608, symBinAddr: 0x10004FCB8, symSize: 0x28 }
  - { offset: 0x74539, size: 0x8, addend: 0x0, symName: __ZNSt3__16vectorINS_5tupleIJNS_12basic_stringIcNS_11char_traitsIcEENS_9allocatorIcEEEES7_EEENS5_IS8_EEED2B8ne180100Ev, symObjAddr: 0x4E630, symBinAddr: 0x10004FCE0, symSize: 0x1D8 }
  - { offset: 0x7456A, size: 0x8, addend: 0x0, symName: __ZNSt3__15tupleIJN7testing8internal10ValueArrayIJNS0_IJPKcS5_EEES6_S6_S6_EEEEEC1B8ne180100IJS7_ETnNS_9enable_ifIXsr4_AndINS_17integral_constantIbXeqsZT_sZT_EEENS8_17_EnableUTypesCtorIJDpT_EEEEE5valueEiE4typeELi0EEEDpOSE_, symObjAddr: 0x4E970, symBinAddr: 0x100050020, symSize: 0x60 }
  - { offset: 0x745B5, size: 0x8, addend: 0x0, symName: __ZNSt3__15tupleIJN7testing8internal10ValueArrayIJNS0_IJPKcS5_EEES6_S6_S6_EEEEEC2B8ne180100IJS7_ETnNS_9enable_ifIXsr4_AndINS_17integral_constantIbXeqsZT_sZT_EEENS8_17_EnableUTypesCtorIJDpT_EEEEE5valueEiE4typeELi0EEEDpOSE_, symObjAddr: 0x4E9D0, symBinAddr: 0x100050080, symSize: 0x90 }
  - { offset: 0x74600, size: 0x8, addend: 0x0, symName: __ZNSt3__112__tuple_implINS_15__tuple_indicesIJLm0EEEEJN7testing8internal10ValueArrayIJNS_5tupleIJPKcS8_EEES9_S9_S9_EEEEEC1B8ne180100IJLm0EEJSA_ETpTnmJEJEJSA_EEENS1_IJXspT_EEEENS_13__tuple_typesIJDpT0_EEENS1_IJXspT1_EEEENSE_IJDpT2_EEEDpOT3_, symObjAddr: 0x4EA60, symBinAddr: 0x100050110, symSize: 0x60 }
  - { offset: 0x74693, size: 0x8, addend: 0x0, symName: __ZNSt3__112__tuple_implINS_15__tuple_indicesIJLm0EEEEJN7testing8internal10ValueArrayIJNS_5tupleIJPKcS8_EEES9_S9_S9_EEEEEC2B8ne180100IJLm0EEJSA_ETpTnmJEJEJSA_EEENS1_IJXspT_EEEENS_13__tuple_typesIJDpT0_EEENS1_IJXspT1_EEEENSE_IJDpT2_EEEDpOT3_, symObjAddr: 0x4EAC0, symBinAddr: 0x100050170, symSize: 0xC0 }
  - { offset: 0x74726, size: 0x8, addend: 0x0, symName: __ZNSt3__112__tuple_leafILm0EN7testing8internal10ValueArrayIJNS_5tupleIJPKcS6_EEES7_S7_S7_EEELb0EEC2B8ne180100IS8_vEEOT_, symObjAddr: 0x4EB80, symBinAddr: 0x100050230, symSize: 0x60 }
  - { offset: 0x74769, size: 0x8, addend: 0x0, symName: __ZN7testing8internal26ParameterizedTestSuiteInfoIN12_GLOBAL__N_121CaesarDec_SplitSpacesEE14AddTestPatternEPKcS6_PNS0_19TestMetaFactoryBaseINSt3__15tupleIJNS8_12basic_stringIcNS8_11char_traitsIcEENS8_9allocatorIcEEEENS8_6vectorISF_NSD_ISF_EEEEEEEEENS0_12CodeLocationE, symObjAddr: 0x4EBE0, symBinAddr: 0x100050290, symSize: 0x430 }
  - { offset: 0x747E3, size: 0x8, addend: 0x0, symName: __ZN7testing8internal15TestMetaFactoryIN12_GLOBAL__N_131CaesarDec_SplitSpaces_Case_TestEEC1Ev, symObjAddr: 0x4F010, symBinAddr: 0x1000506C0, symSize: 0x50 }
  - { offset: 0x74818, size: 0x8, addend: 0x0, symName: __ZNSt3__16vectorINS_10shared_ptrIN7testing8internal26ParameterizedTestSuiteInfoIN12_GLOBAL__N_121CaesarDec_SplitSpacesEE8TestInfoEEENS_9allocatorIS9_EEE12emplace_backIJPS8_EEERS9_DpOT_, symObjAddr: 0x4F060, symBinAddr: 0x100050710, symSize: 0x2C0 }
  - { offset: 0x74867, size: 0x8, addend: 0x0, symName: __ZN7testing8internal26ParameterizedTestSuiteInfoIN12_GLOBAL__N_121CaesarDec_SplitSpacesEE8TestInfoC1EPKcPNS0_19TestMetaFactoryBaseINSt3__15tupleIJNS9_12basic_stringIcNS9_11char_traitsIcEENS9_9allocatorIcEEEENS9_6vectorISG_NSE_ISG_EEEEEEEEENS0_12CodeLocationE, symObjAddr: 0x4F320, symBinAddr: 0x1000509D0, symSize: 0x70 }
  - { offset: 0x748BF, size: 0x8, addend: 0x0, symName: __ZNSt3__16vectorINS_10shared_ptrIN7testing8internal26ParameterizedTestSuiteInfoIN12_GLOBAL__N_121CaesarDec_SplitSpacesEE8TestInfoEEENS_9allocatorIS9_EEE9__end_capB8ne180100Ev, symObjAddr: 0x4F390, symBinAddr: 0x100050A40, symSize: 0xC0 }
  - { offset: 0x748E5, size: 0x8, addend: 0x0, symName: __ZNSt3__16vectorINS_10shared_ptrIN7testing8internal26ParameterizedTestSuiteInfoIN12_GLOBAL__N_121CaesarDec_SplitSpacesEE8TestInfoEEENS_9allocatorIS9_EEE22__construct_one_at_endB8ne180100IJPS8_EEEvDpOT_, symObjAddr: 0x4F450, symBinAddr: 0x100050B00, symSize: 0x3F0 }
  - { offset: 0x7493A, size: 0x8, addend: 0x0, symName: __ZNSt3__16vectorINS_10shared_ptrIN7testing8internal26ParameterizedTestSuiteInfoIN12_GLOBAL__N_121CaesarDec_SplitSpacesEE8TestInfoEEENS_9allocatorIS9_EEE24__emplace_back_slow_pathIJPS8_EEEPS9_DpOT_, symObjAddr: 0x4F840, symBinAddr: 0x100050EF0, symSize: 0x4E0 }
  - { offset: 0x7499F, size: 0x8, addend: 0x0, symName: __ZNSt3__117__compressed_pairIPNS_10shared_ptrIN7testing8internal26ParameterizedTestSuiteInfoIN12_GLOBAL__N_121CaesarDec_SplitSpacesEE8TestInfoEEENS_9allocatorIS9_EEE5firstB8ne180100Ev, symObjAddr: 0x4FD20, symBinAddr: 0x1000513D0, symSize: 0xE0 }
  - { offset: 0x749C5, size: 0x8, addend: 0x0, symName: __ZNSt3__122__compressed_pair_elemIPNS_10shared_ptrIN7testing8internal26ParameterizedTestSuiteInfoIN12_GLOBAL__N_121CaesarDec_SplitSpacesEE8TestInfoEEELi0ELb0EE5__getB8ne180100Ev, symObjAddr: 0x4FE00, symBinAddr: 0x1000514B0, symSize: 0x80 }
  - { offset: 0x74A06, size: 0x8, addend: 0x0, symName: __ZNSt3__16vectorINS_10shared_ptrIN7testing8internal26ParameterizedTestSuiteInfoIN12_GLOBAL__N_121CaesarDec_SplitSpacesEE8TestInfoEEENS_9allocatorIS9_EEE21_ConstructTransactionC1B8ne180100ERSC_m, symObjAddr: 0x4FE80, symBinAddr: 0x100051530, symSize: 0x68 }
  - { offset: 0x74A4E, size: 0x8, addend: 0x0, symName: __ZNSt3__116allocator_traitsINS_9allocatorINS_10shared_ptrIN7testing8internal26ParameterizedTestSuiteInfoIN12_GLOBAL__N_121CaesarDec_SplitSpacesEE8TestInfoEEEEEE9constructB8ne180100ISA_JPS9_EvvEEvRSB_PT_DpOT0_, symObjAddr: 0x4FEE8, symBinAddr: 0x100051598, symSize: 0x68 }
  - { offset: 0x74AA2, size: 0x8, addend: 0x0, symName: __ZNSt3__16vectorINS_10shared_ptrIN7testing8internal26ParameterizedTestSuiteInfoIN12_GLOBAL__N_121CaesarDec_SplitSpacesEE8TestInfoEEENS_9allocatorIS9_EEE7__allocB8ne180100Ev, symObjAddr: 0x4FF50, symBinAddr: 0x100051600, symSize: 0xB8 }
  - { offset: 0x74AC8, size: 0x8, addend: 0x0, symName: __ZNSt3__16vectorINS_10shared_ptrIN7testing8internal26ParameterizedTestSuiteInfoIN12_GLOBAL__N_121CaesarDec_SplitSpacesEE8TestInfoEEENS_9allocatorIS9_EEE21_ConstructTransactionD1B8ne180100Ev, symObjAddr: 0x50020, symBinAddr: 0x1000516D0, symSize: 0x50 }
  - { offset: 0x74AF2, size: 0x8, addend: 0x0, symName: __ZNSt3__16vectorINS_10shared_ptrIN7testing8internal26ParameterizedTestSuiteInfoIN12_GLOBAL__N_121CaesarDec_SplitSpacesEE8TestInfoEEENS_9allocatorIS9_EEE21_ConstructTransactionC2B8ne180100ERSC_m, symObjAddr: 0x50070, symBinAddr: 0x100051720, symSize: 0x2C0 }
  - { offset: 0x74B3A, size: 0x8, addend: 0x0, symName: __ZNKSt3__16vectorINS_10shared_ptrIN7testing8internal26ParameterizedTestSuiteInfoIN12_GLOBAL__N_121CaesarDec_SplitSpacesEE8TestInfoEEENS_9allocatorIS9_EEE19__annotate_increaseB8ne180100Em, symObjAddr: 0x50330, symBinAddr: 0x1000519E0, symSize: 0x1D0 }
  - { offset: 0x74B6F, size: 0x8, addend: 0x0, symName: __ZNKSt3__16vectorINS_10shared_ptrIN7testing8internal26ParameterizedTestSuiteInfoIN12_GLOBAL__N_121CaesarDec_SplitSpacesEE8TestInfoEEENS_9allocatorIS9_EEE31__annotate_contiguous_containerB8ne180100EPKvSE_, symObjAddr: 0x50500, symBinAddr: 0x100051BB0, symSize: 0x100 }
  - { offset: 0x74BD1, size: 0x8, addend: 0x0, symName: __ZNKSt3__16vectorINS_10shared_ptrIN7testing8internal26ParameterizedTestSuiteInfoIN12_GLOBAL__N_121CaesarDec_SplitSpacesEE8TestInfoEEENS_9allocatorIS9_EEE4dataB8ne180100Ev, symObjAddr: 0x50600, symBinAddr: 0x100051CB0, symSize: 0x80 }
  - { offset: 0x74BF7, size: 0x8, addend: 0x0, symName: __ZNKSt3__16vectorINS_10shared_ptrIN7testing8internal26ParameterizedTestSuiteInfoIN12_GLOBAL__N_121CaesarDec_SplitSpacesEE8TestInfoEEENS_9allocatorIS9_EEE4sizeB8ne180100Ev, symObjAddr: 0x50680, symBinAddr: 0x100051D30, symSize: 0xC0 }
  - { offset: 0x74C1D, size: 0x8, addend: 0x0, symName: __ZNKSt3__16vectorINS_10shared_ptrIN7testing8internal26ParameterizedTestSuiteInfoIN12_GLOBAL__N_121CaesarDec_SplitSpacesEE8TestInfoEEENS_9allocatorIS9_EEE8capacityB8ne180100Ev, symObjAddr: 0x50740, symBinAddr: 0x100051DF0, symSize: 0x100 }
  - { offset: 0x74C43, size: 0x8, addend: 0x0, symName: __ZNKSt3__16vectorINS_10shared_ptrIN7testing8internal26ParameterizedTestSuiteInfoIN12_GLOBAL__N_121CaesarDec_SplitSpacesEE8TestInfoEEENS_9allocatorIS9_EEE9__end_capB8ne180100Ev, symObjAddr: 0x50840, symBinAddr: 0x100051EF0, symSize: 0xC0 }
  - { offset: 0x74C69, size: 0x8, addend: 0x0, symName: __ZNKSt3__117__compressed_pairIPNS_10shared_ptrIN7testing8internal26ParameterizedTestSuiteInfoIN12_GLOBAL__N_121CaesarDec_SplitSpacesEE8TestInfoEEENS_9allocatorIS9_EEE5firstB8ne180100Ev, symObjAddr: 0x50900, symBinAddr: 0x100051FB0, symSize: 0xE0 }
  - { offset: 0x74C8F, size: 0x8, addend: 0x0, symName: __ZNKSt3__122__compressed_pair_elemIPNS_10shared_ptrIN7testing8internal26ParameterizedTestSuiteInfoIN12_GLOBAL__N_121CaesarDec_SplitSpacesEE8TestInfoEEELi0ELb0EE5__getB8ne180100Ev, symObjAddr: 0x509E0, symBinAddr: 0x100052090, symSize: 0x88 }
  - { offset: 0x74CB5, size: 0x8, addend: 0x0, symName: __ZNSt3__110shared_ptrIN7testing8internal26ParameterizedTestSuiteInfoIN12_GLOBAL__N_121CaesarDec_SplitSpacesEE8TestInfoEEC1B8ne180100IS7_vEEPT_, symObjAddr: 0x50BD0, symBinAddr: 0x100052280, symSize: 0x60 }
  - { offset: 0x74CF8, size: 0x8, addend: 0x0, symName: __ZNSt3__110shared_ptrIN7testing8internal26ParameterizedTestSuiteInfoIN12_GLOBAL__N_121CaesarDec_SplitSpacesEE8TestInfoEEC2B8ne180100IS7_vEEPT_, symObjAddr: 0x50C30, symBinAddr: 0x1000522E0, symSize: 0x3D0 }
  - { offset: 0x74DF0, size: 0x8, addend: 0x0, symName: __ZNSt3__110unique_ptrIN7testing8internal26ParameterizedTestSuiteInfoIN12_GLOBAL__N_121CaesarDec_SplitSpacesEE8TestInfoENS_14default_deleteIS7_EEEC1B8ne180100ILb1EvEEPS7_, symObjAddr: 0x51000, symBinAddr: 0x1000526B0, symSize: 0x60 }
  - { offset: 0x74E3D, size: 0x8, addend: 0x0, symName: __ZNSt3__19allocatorIN7testing8internal26ParameterizedTestSuiteInfoIN12_GLOBAL__N_121CaesarDec_SplitSpacesEE8TestInfoEEC1B8ne180100Ev, symObjAddr: 0x51060, symBinAddr: 0x100052710, symSize: 0x40 }
  - { offset: 0x74F0E, size: 0x8, addend: 0x0, symName: __ZNSt3__120__shared_ptr_pointerIPN7testing8internal26ParameterizedTestSuiteInfoIN12_GLOBAL__N_121CaesarDec_SplitSpacesEE8TestInfoENS_10shared_ptrIS7_E27__shared_ptr_default_deleteIS7_S7_EENS_9allocatorIS7_EEEC1B8ne180100ES8_SC_SE_, symObjAddr: 0x510A0, symBinAddr: 0x100052750, symSize: 0x60 }
  - { offset: 0x74F62, size: 0x8, addend: 0x0, symName: __ZNSt3__110unique_ptrIN7testing8internal26ParameterizedTestSuiteInfoIN12_GLOBAL__N_121CaesarDec_SplitSpacesEE8TestInfoENS_14default_deleteIS7_EEE7releaseB8ne180100Ev, symObjAddr: 0x51100, symBinAddr: 0x1000527B0, symSize: 0x190 }
  - { offset: 0x74F97, size: 0x8, addend: 0x0, symName: __ZNSt3__110shared_ptrIN7testing8internal26ParameterizedTestSuiteInfoIN12_GLOBAL__N_121CaesarDec_SplitSpacesEE8TestInfoEE18__enable_weak_thisB8ne180100Ez, symObjAddr: 0x51290, symBinAddr: 0x100052940, symSize: 0x50 }
  - { offset: 0x74FBF, size: 0x8, addend: 0x0, symName: __ZNSt3__110unique_ptrIN7testing8internal26ParameterizedTestSuiteInfoIN12_GLOBAL__N_121CaesarDec_SplitSpacesEE8TestInfoENS_14default_deleteIS7_EEED1B8ne180100Ev, symObjAddr: 0x512E0, symBinAddr: 0x100052990, symSize: 0x50 }
  - { offset: 0x74FE9, size: 0x8, addend: 0x0, symName: __ZNSt3__110unique_ptrIN7testing8internal26ParameterizedTestSuiteInfoIN12_GLOBAL__N_121CaesarDec_SplitSpacesEE8TestInfoENS_14default_deleteIS7_EEEC2B8ne180100ILb1EvEEPS7_, symObjAddr: 0x51330, symBinAddr: 0x1000529E0, symSize: 0x1D0 }
  - { offset: 0x75031, size: 0x8, addend: 0x0, symName: __ZNSt3__117__compressed_pairIPN7testing8internal26ParameterizedTestSuiteInfoIN12_GLOBAL__N_121CaesarDec_SplitSpacesEE8TestInfoENS_14default_deleteIS7_EEEC1B8ne180100IRS8_NS_16__value_init_tagEEEOT_OT0_, symObjAddr: 0x51500, symBinAddr: 0x100052BB0, symSize: 0x60 }
  - { offset: 0x75089, size: 0x8, addend: 0x0, symName: __ZNSt3__117__compressed_pairIPN7testing8internal26ParameterizedTestSuiteInfoIN12_GLOBAL__N_121CaesarDec_SplitSpacesEE8TestInfoENS_14default_deleteIS7_EEEC2B8ne180100IRS8_NS_16__value_init_tagEEEOT_OT0_, symObjAddr: 0x51560, symBinAddr: 0x100052C10, symSize: 0xF0 }
  - { offset: 0x750E1, size: 0x8, addend: 0x0, symName: __ZNSt3__122__compressed_pair_elemIPN7testing8internal26ParameterizedTestSuiteInfoIN12_GLOBAL__N_121CaesarDec_SplitSpacesEE8TestInfoELi0ELb0EEC2B8ne180100IRS8_vEEOT_, symObjAddr: 0x51650, symBinAddr: 0x100052D00, symSize: 0xF0 }
  - { offset: 0x75123, size: 0x8, addend: 0x0, symName: __ZNSt3__122__compressed_pair_elemINS_14default_deleteIN7testing8internal26ParameterizedTestSuiteInfoIN12_GLOBAL__N_121CaesarDec_SplitSpacesEE8TestInfoEEELi1ELb1EEC2B8ne180100ENS_16__value_init_tagE, symObjAddr: 0x51740, symBinAddr: 0x100052DF0, symSize: 0x40 }
  - { offset: 0x75158, size: 0x8, addend: 0x0, symName: __ZNSt3__19allocatorIN7testing8internal26ParameterizedTestSuiteInfoIN12_GLOBAL__N_121CaesarDec_SplitSpacesEE8TestInfoEEC2B8ne180100Ev, symObjAddr: 0x51780, symBinAddr: 0x100052E30, symSize: 0x60 }
  - { offset: 0x75182, size: 0x8, addend: 0x0, symName: __ZNSt3__116__non_trivial_ifILb1ENS_9allocatorIN7testing8internal26ParameterizedTestSuiteInfoIN12_GLOBAL__N_121CaesarDec_SplitSpacesEE8TestInfoEEEEC2B8ne180100Ev, symObjAddr: 0x517E0, symBinAddr: 0x100052E90, symSize: 0x40 }
  - { offset: 0x751AC, size: 0x8, addend: 0x0, symName: __ZNSt3__120__shared_ptr_pointerIPN7testing8internal26ParameterizedTestSuiteInfoIN12_GLOBAL__N_121CaesarDec_SplitSpacesEE8TestInfoENS_10shared_ptrIS7_E27__shared_ptr_default_deleteIS7_S7_EENS_9allocatorIS7_EEEC2B8ne180100ES8_SC_SE_, symObjAddr: 0x51820, symBinAddr: 0x100052ED0, symSize: 0x340 }
  - { offset: 0x75213, size: 0x8, addend: 0x0, symName: __ZNSt3__117__compressed_pairIPN7testing8internal26ParameterizedTestSuiteInfoIN12_GLOBAL__N_121CaesarDec_SplitSpacesEE8TestInfoENS_10shared_ptrIS7_E27__shared_ptr_default_deleteIS7_S7_EEEC1B8ne180100IRS8_SC_EEOT_OT0_, symObjAddr: 0x51B60, symBinAddr: 0x100053210, symSize: 0x60 }
  - { offset: 0x75277, size: 0x8, addend: 0x0, symName: __ZNSt3__117__compressed_pairINS0_IPN7testing8internal26ParameterizedTestSuiteInfoIN12_GLOBAL__N_121CaesarDec_SplitSpacesEE8TestInfoENS_10shared_ptrIS7_E27__shared_ptr_default_deleteIS7_S7_EEEENS_9allocatorIS7_EEEC1B8ne180100ISD_SF_EEOT_OT0_, symObjAddr: 0x51BC0, symBinAddr: 0x100053270, symSize: 0x60 }
  - { offset: 0x752CF, size: 0x8, addend: 0x0, symName: __ZNSt3__120__shared_ptr_pointerIPN7testing8internal26ParameterizedTestSuiteInfoIN12_GLOBAL__N_121CaesarDec_SplitSpacesEE8TestInfoENS_10shared_ptrIS7_E27__shared_ptr_default_deleteIS7_S7_EENS_9allocatorIS7_EEED1Ev, symObjAddr: 0x51C20, symBinAddr: 0x1000532D0, symSize: 0x50 }
  - { offset: 0x752FB, size: 0x8, addend: 0x0, symName: __ZNSt3__120__shared_ptr_pointerIPN7testing8internal26ParameterizedTestSuiteInfoIN12_GLOBAL__N_121CaesarDec_SplitSpacesEE8TestInfoENS_10shared_ptrIS7_E27__shared_ptr_default_deleteIS7_S7_EENS_9allocatorIS7_EEED0Ev, symObjAddr: 0x51C70, symBinAddr: 0x100053320, symSize: 0x60 }
  - { offset: 0x75327, size: 0x8, addend: 0x0, symName: __ZNSt3__120__shared_ptr_pointerIPN7testing8internal26ParameterizedTestSuiteInfoIN12_GLOBAL__N_121CaesarDec_SplitSpacesEE8TestInfoENS_10shared_ptrIS7_E27__shared_ptr_default_deleteIS7_S7_EENS_9allocatorIS7_EEE16__on_zero_sharedEv, symObjAddr: 0x51CD0, symBinAddr: 0x100053380, symSize: 0x3E0 }
  - { offset: 0x7534D, size: 0x8, addend: 0x0, symName: __ZNKSt3__120__shared_ptr_pointerIPN7testing8internal26ParameterizedTestSuiteInfoIN12_GLOBAL__N_121CaesarDec_SplitSpacesEE8TestInfoENS_10shared_ptrIS7_E27__shared_ptr_default_deleteIS7_S7_EENS_9allocatorIS7_EEE13__get_deleterERKSt9type_info, symObjAddr: 0x520B0, symBinAddr: 0x100053760, symSize: 0x260 }
  - { offset: 0x75381, size: 0x8, addend: 0x0, symName: __ZNSt3__120__shared_ptr_pointerIPN7testing8internal26ParameterizedTestSuiteInfoIN12_GLOBAL__N_121CaesarDec_SplitSpacesEE8TestInfoENS_10shared_ptrIS7_E27__shared_ptr_default_deleteIS7_S7_EENS_9allocatorIS7_EEE21__on_zero_shared_weakEv, symObjAddr: 0x52310, symBinAddr: 0x1000539C0, symSize: 0x380 }
  - { offset: 0x753C5, size: 0x8, addend: 0x0, symName: __ZNSt3__117__compressed_pairIPN7testing8internal26ParameterizedTestSuiteInfoIN12_GLOBAL__N_121CaesarDec_SplitSpacesEE8TestInfoENS_10shared_ptrIS7_E27__shared_ptr_default_deleteIS7_S7_EEEC2B8ne180100IRS8_SC_EEOT_OT0_, symObjAddr: 0x52690, symBinAddr: 0x100053D40, symSize: 0x110 }
  - { offset: 0x7541D, size: 0x8, addend: 0x0, symName: __ZNSt3__122__compressed_pair_elemINS_10shared_ptrIN7testing8internal26ParameterizedTestSuiteInfoIN12_GLOBAL__N_121CaesarDec_SplitSpacesEE8TestInfoEE27__shared_ptr_default_deleteIS8_S8_EELi1ELb1EEC2B8ne180100ISB_vEEOT_, symObjAddr: 0x527A0, symBinAddr: 0x100053E50, symSize: 0x40 }
  - { offset: 0x7545F, size: 0x8, addend: 0x0, symName: __ZNSt3__117__compressed_pairINS0_IPN7testing8internal26ParameterizedTestSuiteInfoIN12_GLOBAL__N_121CaesarDec_SplitSpacesEE8TestInfoENS_10shared_ptrIS7_E27__shared_ptr_default_deleteIS7_S7_EEEENS_9allocatorIS7_EEEC2B8ne180100ISD_SF_EEOT_OT0_, symObjAddr: 0x527E0, symBinAddr: 0x100053E90, symSize: 0x110 }
  - { offset: 0x754B7, size: 0x8, addend: 0x0, symName: __ZNSt3__122__compressed_pair_elemINS_17__compressed_pairIPN7testing8internal26ParameterizedTestSuiteInfoIN12_GLOBAL__N_121CaesarDec_SplitSpacesEE8TestInfoENS_10shared_ptrIS8_E27__shared_ptr_default_deleteIS8_S8_EEEELi0ELb0EEC2B8ne180100ISE_vEEOT_, symObjAddr: 0x528F0, symBinAddr: 0x100053FA0, symSize: 0x60 }
  - { offset: 0x754F9, size: 0x8, addend: 0x0, symName: __ZNSt3__122__compressed_pair_elemINS_9allocatorIN7testing8internal26ParameterizedTestSuiteInfoIN12_GLOBAL__N_121CaesarDec_SplitSpacesEE8TestInfoEEELi1ELb1EEC2B8ne180100IS9_vEEOT_, symObjAddr: 0x52950, symBinAddr: 0x100054000, symSize: 0x40 }
  - { offset: 0x7553B, size: 0x8, addend: 0x0, symName: __ZNSt3__120__shared_ptr_pointerIPN7testing8internal26ParameterizedTestSuiteInfoIN12_GLOBAL__N_121CaesarDec_SplitSpacesEE8TestInfoENS_10shared_ptrIS7_E27__shared_ptr_default_deleteIS7_S7_EENS_9allocatorIS7_EEED2Ev, symObjAddr: 0x52990, symBinAddr: 0x100054040, symSize: 0x50 }
  - { offset: 0x75567, size: 0x8, addend: 0x0, symName: __ZNSt3__117__compressed_pairINS0_IPN7testing8internal26ParameterizedTestSuiteInfoIN12_GLOBAL__N_121CaesarDec_SplitSpacesEE8TestInfoENS_10shared_ptrIS7_E27__shared_ptr_default_deleteIS7_S7_EEEENS_9allocatorIS7_EEE5firstB8ne180100Ev, symObjAddr: 0x529E0, symBinAddr: 0x100054090, symSize: 0xE0 }
  - { offset: 0x7558D, size: 0x8, addend: 0x0, symName: __ZNSt3__117__compressed_pairIPN7testing8internal26ParameterizedTestSuiteInfoIN12_GLOBAL__N_121CaesarDec_SplitSpacesEE8TestInfoENS_10shared_ptrIS7_E27__shared_ptr_default_deleteIS7_S7_EEE6secondB8ne180100Ev, symObjAddr: 0x52AC0, symBinAddr: 0x100054170, symSize: 0xC0 }
  - { offset: 0x755B3, size: 0x8, addend: 0x0, symName: __ZNKSt3__114default_deleteIN7testing8internal26ParameterizedTestSuiteInfoIN12_GLOBAL__N_121CaesarDec_SplitSpacesEE8TestInfoEEclB8ne180100EPS7_, symObjAddr: 0x52B80, symBinAddr: 0x100054230, symSize: 0x90 }
  - { offset: 0x755E7, size: 0x8, addend: 0x0, symName: __ZNSt3__117__compressed_pairIPN7testing8internal26ParameterizedTestSuiteInfoIN12_GLOBAL__N_121CaesarDec_SplitSpacesEE8TestInfoENS_10shared_ptrIS7_E27__shared_ptr_default_deleteIS7_S7_EEE5firstB8ne180100Ev, symObjAddr: 0x52C10, symBinAddr: 0x1000542C0, symSize: 0xE0 }
  - { offset: 0x7560D, size: 0x8, addend: 0x0, symName: __ZNSt3__122__compressed_pair_elemINS_17__compressed_pairIPN7testing8internal26ParameterizedTestSuiteInfoIN12_GLOBAL__N_121CaesarDec_SplitSpacesEE8TestInfoENS_10shared_ptrIS8_E27__shared_ptr_default_deleteIS8_S8_EEEELi0ELb0EE5__getB8ne180100Ev, symObjAddr: 0x52CF0, symBinAddr: 0x1000543A0, symSize: 0x80 }
  - { offset: 0x75633, size: 0x8, addend: 0x0, symName: __ZNSt3__122__compressed_pair_elemINS_10shared_ptrIN7testing8internal26ParameterizedTestSuiteInfoIN12_GLOBAL__N_121CaesarDec_SplitSpacesEE8TestInfoEE27__shared_ptr_default_deleteIS8_S8_EELi1ELb1EE5__getB8ne180100Ev, symObjAddr: 0x52D70, symBinAddr: 0x100054420, symSize: 0x60 }
  - { offset: 0x75659, size: 0x8, addend: 0x0, symName: __ZN7testing8internal26ParameterizedTestSuiteInfoIN12_GLOBAL__N_121CaesarDec_SplitSpacesEE8TestInfoD1Ev, symObjAddr: 0x52DD0, symBinAddr: 0x100054480, symSize: 0x50 }
  - { offset: 0x75686, size: 0x8, addend: 0x0, symName: __ZN7testing8internal26ParameterizedTestSuiteInfoIN12_GLOBAL__N_121CaesarDec_SplitSpacesEE8TestInfoD2Ev, symObjAddr: 0x52E20, symBinAddr: 0x1000544D0, symSize: 0x70 }
  - { offset: 0x756B3, size: 0x8, addend: 0x0, symName: __ZNSt3__110unique_ptrIN7testing8internal19TestMetaFactoryBaseINS_5tupleIJNS_12basic_stringIcNS_11char_traitsIcEENS_9allocatorIcEEEENS_6vectorISA_NS8_ISA_EEEEEEEEENS_14default_deleteISF_EEED1B8ne180100Ev, symObjAddr: 0x52E90, symBinAddr: 0x100054540, symSize: 0x50 }
  - { offset: 0x756DD, size: 0x8, addend: 0x0, symName: __ZNSt3__110unique_ptrIN7testing8internal19TestMetaFactoryBaseINS_5tupleIJNS_12basic_stringIcNS_11char_traitsIcEENS_9allocatorIcEEEENS_6vectorISA_NS8_ISA_EEEEEEEEENS_14default_deleteISF_EEED2B8ne180100Ev, symObjAddr: 0x52EE0, symBinAddr: 0x100054590, symSize: 0x60 }
  - { offset: 0x75707, size: 0x8, addend: 0x0, symName: __ZNSt3__110unique_ptrIN7testing8internal19TestMetaFactoryBaseINS_5tupleIJNS_12basic_stringIcNS_11char_traitsIcEENS_9allocatorIcEEEENS_6vectorISA_NS8_ISA_EEEEEEEEENS_14default_deleteISF_EEE5resetB8ne180100EPSF_, symObjAddr: 0x52F40, symBinAddr: 0x1000545F0, symSize: 0x210 }
  - { offset: 0x7574B, size: 0x8, addend: 0x0, symName: __ZNSt3__117__compressed_pairIPN7testing8internal19TestMetaFactoryBaseINS_5tupleIJNS_12basic_stringIcNS_11char_traitsIcEENS_9allocatorIcEEEENS_6vectorISA_NS8_ISA_EEEEEEEEENS_14default_deleteISF_EEE5firstB8ne180100Ev, symObjAddr: 0x53150, symBinAddr: 0x100054800, symSize: 0xE0 }
  - { offset: 0x75771, size: 0x8, addend: 0x0, symName: __ZNSt3__117__compressed_pairIPN7testing8internal19TestMetaFactoryBaseINS_5tupleIJNS_12basic_stringIcNS_11char_traitsIcEENS_9allocatorIcEEEENS_6vectorISA_NS8_ISA_EEEEEEEEENS_14default_deleteISF_EEE6secondB8ne180100Ev, symObjAddr: 0x53230, symBinAddr: 0x1000548E0, symSize: 0xC0 }
  - { offset: 0x75797, size: 0x8, addend: 0x0, symName: __ZNKSt3__114default_deleteIN7testing8internal19TestMetaFactoryBaseINS_5tupleIJNS_12basic_stringIcNS_11char_traitsIcEENS_9allocatorIcEEEENS_6vectorISA_NS8_ISA_EEEEEEEEEEclB8ne180100EPSF_, symObjAddr: 0x532F0, symBinAddr: 0x1000549A0, symSize: 0x190 }
  - { offset: 0x757CB, size: 0x8, addend: 0x0, symName: __ZNSt3__122__compressed_pair_elemIPN7testing8internal19TestMetaFactoryBaseINS_5tupleIJNS_12basic_stringIcNS_11char_traitsIcEENS_9allocatorIcEEEENS_6vectorISA_NS8_ISA_EEEEEEEEELi0ELb0EE5__getB8ne180100Ev, symObjAddr: 0x53480, symBinAddr: 0x100054B30, symSize: 0x80 }
  - { offset: 0x757F1, size: 0x8, addend: 0x0, symName: __ZNSt3__122__compressed_pair_elemINS_14default_deleteIN7testing8internal19TestMetaFactoryBaseINS_5tupleIJNS_12basic_stringIcNS_11char_traitsIcEENS_9allocatorIcEEEENS_6vectorISB_NS9_ISB_EEEEEEEEEEELi1ELb1EE5__getB8ne180100Ev, symObjAddr: 0x53500, symBinAddr: 0x100054BB0, symSize: 0x60 }
  - { offset: 0x75817, size: 0x8, addend: 0x0, symName: __ZNSt3__122__compressed_pair_elemIPN7testing8internal26ParameterizedTestSuiteInfoIN12_GLOBAL__N_121CaesarDec_SplitSpacesEE8TestInfoELi0ELb0EE5__getB8ne180100Ev, symObjAddr: 0x53560, symBinAddr: 0x100054C10, symSize: 0x80 }
  - { offset: 0x7583D, size: 0x8, addend: 0x0, symName: __ZNKSt3__117__compressed_pairINS0_IPN7testing8internal26ParameterizedTestSuiteInfoIN12_GLOBAL__N_121CaesarDec_SplitSpacesEE8TestInfoENS_10shared_ptrIS7_E27__shared_ptr_default_deleteIS7_S7_EEEENS_9allocatorIS7_EEE5firstB8ne180100Ev, symObjAddr: 0x535E0, symBinAddr: 0x100054C90, symSize: 0xE0 }
  - { offset: 0x75863, size: 0x8, addend: 0x0, symName: __ZNKSt3__117__compressed_pairIPN7testing8internal26ParameterizedTestSuiteInfoIN12_GLOBAL__N_121CaesarDec_SplitSpacesEE8TestInfoENS_10shared_ptrIS7_E27__shared_ptr_default_deleteIS7_S7_EEE6secondB8ne180100Ev, symObjAddr: 0x536C0, symBinAddr: 0x100054D70, symSize: 0xC0 }
  - { offset: 0x75889, size: 0x8, addend: 0x0, symName: __ZNKSt3__122__compressed_pair_elemINS_17__compressed_pairIPN7testing8internal26ParameterizedTestSuiteInfoIN12_GLOBAL__N_121CaesarDec_SplitSpacesEE8TestInfoENS_10shared_ptrIS8_E27__shared_ptr_default_deleteIS8_S8_EEEELi0ELb0EE5__getB8ne180100Ev, symObjAddr: 0x53780, symBinAddr: 0x100054E30, symSize: 0x80 }
  - { offset: 0x758AF, size: 0x8, addend: 0x0, symName: __ZNKSt3__122__compressed_pair_elemINS_10shared_ptrIN7testing8internal26ParameterizedTestSuiteInfoIN12_GLOBAL__N_121CaesarDec_SplitSpacesEE8TestInfoEE27__shared_ptr_default_deleteIS8_S8_EELi1ELb1EE5__getB8ne180100Ev, symObjAddr: 0x53800, symBinAddr: 0x100054EB0, symSize: 0x60 }
  - { offset: 0x758D5, size: 0x8, addend: 0x0, symName: __ZNSt3__117__compressed_pairINS0_IPN7testing8internal26ParameterizedTestSuiteInfoIN12_GLOBAL__N_121CaesarDec_SplitSpacesEE8TestInfoENS_10shared_ptrIS7_E27__shared_ptr_default_deleteIS7_S7_EEEENS_9allocatorIS7_EEE6secondB8ne180100Ev, symObjAddr: 0x53860, symBinAddr: 0x100054F10, symSize: 0xC0 }
  - { offset: 0x7590A, size: 0x8, addend: 0x0, symName: __ZNSt3__19allocatorINS_20__shared_ptr_pointerIPN7testing8internal26ParameterizedTestSuiteInfoIN12_GLOBAL__N_121CaesarDec_SplitSpacesEE8TestInfoENS_10shared_ptrIS8_E27__shared_ptr_default_deleteIS8_S8_EENS0_IS8_EEEEEC1B8ne180100IS8_EERKNS0_IT_EE, symObjAddr: 0x53920, symBinAddr: 0x100054FD0, symSize: 0x50 }
  - { offset: 0x75948, size: 0x8, addend: 0x0, symName: __ZNSt3__19allocatorINS_20__shared_ptr_pointerIPN7testing8internal26ParameterizedTestSuiteInfoIN12_GLOBAL__N_121CaesarDec_SplitSpacesEE8TestInfoENS_10shared_ptrIS8_E27__shared_ptr_default_deleteIS8_S8_EENS0_IS8_EEEEE10deallocateB8ne180100EPSF_m, symObjAddr: 0x53970, symBinAddr: 0x100055020, symSize: 0x78 }
  - { offset: 0x75990, size: 0x8, addend: 0x0, symName: __ZNSt3__114pointer_traitsIPNS_20__shared_ptr_pointerIPN7testing8internal26ParameterizedTestSuiteInfoIN12_GLOBAL__N_121CaesarDec_SplitSpacesEE8TestInfoENS_10shared_ptrIS8_E27__shared_ptr_default_deleteIS8_S8_EENS_9allocatorIS8_EEEEE10pointer_toB8ne180100ERSG_, symObjAddr: 0x539E8, symBinAddr: 0x100055098, symSize: 0x18 }
  - { offset: 0x759B3, size: 0x8, addend: 0x0, symName: __ZNSt3__122__compressed_pair_elemINS_9allocatorIN7testing8internal26ParameterizedTestSuiteInfoIN12_GLOBAL__N_121CaesarDec_SplitSpacesEE8TestInfoEEELi1ELb1EE5__getB8ne180100Ev, symObjAddr: 0x53A00, symBinAddr: 0x1000550B0, symSize: 0x60 }
  - { offset: 0x759D9, size: 0x8, addend: 0x0, symName: __ZNSt3__19allocatorINS_20__shared_ptr_pointerIPN7testing8internal26ParameterizedTestSuiteInfoIN12_GLOBAL__N_121CaesarDec_SplitSpacesEE8TestInfoENS_10shared_ptrIS8_E27__shared_ptr_default_deleteIS8_S8_EENS0_IS8_EEEEEC2B8ne180100IS8_EERKNS0_IT_EE, symObjAddr: 0x53A60, symBinAddr: 0x100055110, symSize: 0x60 }
  - { offset: 0x75A17, size: 0x8, addend: 0x0, symName: __ZNSt3__116__non_trivial_ifILb1ENS_9allocatorINS_20__shared_ptr_pointerIPN7testing8internal26ParameterizedTestSuiteInfoIN12_GLOBAL__N_121CaesarDec_SplitSpacesEE8TestInfoENS_10shared_ptrIS9_E27__shared_ptr_default_deleteIS9_S9_EENS1_IS9_EEEEEEEC2B8ne180100Ev, symObjAddr: 0x53AC0, symBinAddr: 0x100055170, symSize: 0x40 }
  - { offset: 0x75A41, size: 0x8, addend: 0x0, symName: __ZNSt3__117__compressed_pairIPN7testing8internal26ParameterizedTestSuiteInfoIN12_GLOBAL__N_121CaesarDec_SplitSpacesEE8TestInfoENS_14default_deleteIS7_EEE5firstB8ne180100Ev, symObjAddr: 0x53B00, symBinAddr: 0x1000551B0, symSize: 0xE0 }
  - { offset: 0x75A67, size: 0x8, addend: 0x0, symName: __ZNSt3__110unique_ptrIN7testing8internal26ParameterizedTestSuiteInfoIN12_GLOBAL__N_121CaesarDec_SplitSpacesEE8TestInfoENS_14default_deleteIS7_EEED2B8ne180100Ev, symObjAddr: 0x53BE0, symBinAddr: 0x100055290, symSize: 0x60 }
  - { offset: 0x75A91, size: 0x8, addend: 0x0, symName: __ZNSt3__110unique_ptrIN7testing8internal26ParameterizedTestSuiteInfoIN12_GLOBAL__N_121CaesarDec_SplitSpacesEE8TestInfoENS_14default_deleteIS7_EEE5resetB8ne180100EPS7_, symObjAddr: 0x53C40, symBinAddr: 0x1000552F0, symSize: 0x210 }
  - { offset: 0x75AD5, size: 0x8, addend: 0x0, symName: __ZNSt3__117__compressed_pairIPN7testing8internal26ParameterizedTestSuiteInfoIN12_GLOBAL__N_121CaesarDec_SplitSpacesEE8TestInfoENS_14default_deleteIS7_EEE6secondB8ne180100Ev, symObjAddr: 0x53E50, symBinAddr: 0x100055500, symSize: 0xC0 }
  - { offset: 0x75AFB, size: 0x8, addend: 0x0, symName: __ZNSt3__122__compressed_pair_elemINS_14default_deleteIN7testing8internal26ParameterizedTestSuiteInfoIN12_GLOBAL__N_121CaesarDec_SplitSpacesEE8TestInfoEEELi1ELb1EE5__getB8ne180100Ev, symObjAddr: 0x53F10, symBinAddr: 0x1000555C0, symSize: 0x60 }
  - { offset: 0x75B21, size: 0x8, addend: 0x0, symName: __ZNSt3__117__compressed_pairIPNS_10shared_ptrIN7testing8internal26ParameterizedTestSuiteInfoIN12_GLOBAL__N_121CaesarDec_SplitSpacesEE8TestInfoEEENS_9allocatorIS9_EEE6secondB8ne180100Ev, symObjAddr: 0x53F70, symBinAddr: 0x100055620, symSize: 0xC0 }
  - { offset: 0x75B47, size: 0x8, addend: 0x0, symName: __ZNSt3__122__compressed_pair_elemINS_9allocatorINS_10shared_ptrIN7testing8internal26ParameterizedTestSuiteInfoIN12_GLOBAL__N_121CaesarDec_SplitSpacesEE8TestInfoEEEEELi1ELb1EE5__getB8ne180100Ev, symObjAddr: 0x54030, symBinAddr: 0x1000556E0, symSize: 0x60 }
  - { offset: 0x75B6D, size: 0x8, addend: 0x0, symName: __ZNSt3__16vectorINS_10shared_ptrIN7testing8internal26ParameterizedTestSuiteInfoIN12_GLOBAL__N_121CaesarDec_SplitSpacesEE8TestInfoEEENS_9allocatorIS9_EEE21_ConstructTransactionD2B8ne180100Ev, symObjAddr: 0x54090, symBinAddr: 0x100055740, symSize: 0x2E0 }
  - { offset: 0x75B97, size: 0x8, addend: 0x0, symName: __ZNKSt3__16vectorINS_10shared_ptrIN7testing8internal26ParameterizedTestSuiteInfoIN12_GLOBAL__N_121CaesarDec_SplitSpacesEE8TestInfoEEENS_9allocatorIS9_EEE17__annotate_shrinkB8ne180100Em, symObjAddr: 0x54370, symBinAddr: 0x100055A20, symSize: 0x160 }
  - { offset: 0x75BCC, size: 0x8, addend: 0x0, symName: __ZNKSt3__16vectorINS_10shared_ptrIN7testing8internal26ParameterizedTestSuiteInfoIN12_GLOBAL__N_121CaesarDec_SplitSpacesEE8TestInfoEEENS_9allocatorIS9_EEE11__recommendB8ne180100Em, symObjAddr: 0x544D0, symBinAddr: 0x100055B80, symSize: 0x310 }
  - { offset: 0x75C26, size: 0x8, addend: 0x0, symName: __ZNSt3__114__split_bufferINS_10shared_ptrIN7testing8internal26ParameterizedTestSuiteInfoIN12_GLOBAL__N_121CaesarDec_SplitSpacesEE8TestInfoEEERNS_9allocatorIS9_EEEC1EmmSC_, symObjAddr: 0x547E0, symBinAddr: 0x100055E90, symSize: 0x70 }
  - { offset: 0x75C7A, size: 0x8, addend: 0x0, symName: __ZNSt3__114__split_bufferINS_10shared_ptrIN7testing8internal26ParameterizedTestSuiteInfoIN12_GLOBAL__N_121CaesarDec_SplitSpacesEE8TestInfoEEERNS_9allocatorIS9_EEED1Ev, symObjAddr: 0x54F10, symBinAddr: 0x1000565C0, symSize: 0x50 }
  - { offset: 0x75CA4, size: 0x8, addend: 0x0, symName: __ZNKSt3__16vectorINS_10shared_ptrIN7testing8internal26ParameterizedTestSuiteInfoIN12_GLOBAL__N_121CaesarDec_SplitSpacesEE8TestInfoEEENS_9allocatorIS9_EEE8max_sizeEv, symObjAddr: 0x54F60, symBinAddr: 0x100056610, symSize: 0x280 }
  - { offset: 0x75CCB, size: 0x8, addend: 0x0, symName: __ZNKSt3__16vectorINS_10shared_ptrIN7testing8internal26ParameterizedTestSuiteInfoIN12_GLOBAL__N_121CaesarDec_SplitSpacesEE8TestInfoEEENS_9allocatorIS9_EEE20__throw_length_errorB8ne180100Ev, symObjAddr: 0x551E0, symBinAddr: 0x100056890, symSize: 0x78 }
  - { offset: 0x75CFC, size: 0x8, addend: 0x0, symName: __ZNSt3__116allocator_traitsINS_9allocatorINS_10shared_ptrIN7testing8internal26ParameterizedTestSuiteInfoIN12_GLOBAL__N_121CaesarDec_SplitSpacesEE8TestInfoEEEEEE8max_sizeB8ne180100ISB_vvEEmRKSB_, symObjAddr: 0x55258, symBinAddr: 0x100056908, symSize: 0x48 }
  - { offset: 0x75D27, size: 0x8, addend: 0x0, symName: __ZNKSt3__16vectorINS_10shared_ptrIN7testing8internal26ParameterizedTestSuiteInfoIN12_GLOBAL__N_121CaesarDec_SplitSpacesEE8TestInfoEEENS_9allocatorIS9_EEE7__allocB8ne180100Ev, symObjAddr: 0x552A0, symBinAddr: 0x100056950, symSize: 0xB0 }
