---
triple:          'x86_64-apple-darwin'
binary-path:     search_main
relocations:
  - { offset: 0x3B, size: 0x8, addend: 0x0, symName: _.str, symObjAddr: 0x2ECE0, symBinAddr: 0x100030880, symSize: 0x0 }
  - { offset: 0x6B, size: 0x8, addend: 0x0, symName: _.str.1, symObjAddr: 0x44E40, symBinAddr: 0x1000399C0, symSize: 0x0 }
  - { offset: 0x88, size: 0x8, addend: 0x0, symName: _.str.2, symObjAddr: 0x44E80, symBinAddr: 0x100039A00, symSize: 0x0 }
  - { offset: 0xA5, size: 0x8, addend: 0x0, symName: _.str.3, symObjAddr: 0x44EA0, symBinAddr: 0x100039A20, symSize: 0x0 }
  - { offset: 0xC2, size: 0x8, addend: 0x0, symName: _.str.4, symObjAddr: 0x44F00, symBinAddr: 0x100039A80, symSize: 0x0 }
  - { offset: 0xDF, size: 0x8, addend: 0x0, symName: _.str.5, symObjAddr: 0x44F40, symBinAddr: 0x100039AC0, symSize: 0x0 }
  - { offset: 0xF0, size: 0x8, addend: 0x0, symName: _.str.6, symObjAddr: 0x44F60, symBinAddr: 0x100039AE0, symSize: 0x0 }
  - { offset: 0x10D, size: 0x8, addend: 0x0, symName: _.str.7, symObjAddr: 0x44FC0, symBinAddr: 0x100039B40, symSize: 0x0 }
  - { offset: 0x12A, size: 0x8, addend: 0x0, symName: _.str.8, symObjAddr: 0x44FE0, symBinAddr: 0x100039B60, symSize: 0x0 }
  - { offset: 0x147, size: 0x8, addend: 0x0, symName: _.str.9, symObjAddr: 0x45020, symBinAddr: 0x100039BA0, symSize: 0x0 }
  - { offset: 0x172, size: 0x8, addend: 0x0, symName: __ZNSt3__119piecewise_constructE, symObjAddr: 0x32980, symBinAddr: 0x100034520, symSize: 0x0 }
  - { offset: 0xF196, size: 0x8, addend: 0x0, symName: __ZNSt3__17advanceB8ne180100INS_21__tree_const_iteratorINS_12basic_stringIcNS_11char_traitsIcEENS_9allocatorIcEEEEPNS_11__tree_nodeIS7_PvEElEEllvEEvRT_T0_, symObjAddr: 0x139C8, symBinAddr: 0x100014E98, symSize: 0x70 }
  - { offset: 0xF7AE, size: 0x8, addend: 0x0, symName: __ZNSt3__124__put_character_sequenceB8ne180100IcNS_11char_traitsIcEEEERNS_13basic_ostreamIT_T0_EES7_PKS4_m, symObjAddr: 0x1F178, symBinAddr: 0x100020648, symSize: 0xFB8 }
  - { offset: 0x1453F, size: 0x8, addend: 0x0, symName: __ZNSt3__1rsB8ne180100IcNS_11char_traitsIcEENS_9allocatorIcEEEERNS_13basic_istreamIT_T0_EES9_RNS_12basic_stringIS6_S7_T1_EE, symObjAddr: 0x2158, symBinAddr: 0x100003628, symSize: 0x1B58 }
  - { offset: 0x14E96, size: 0x8, addend: 0x0, symName: __ZNSt3__1lsB8ne180100IcNS_11char_traitsIcEENS_9allocatorIcEEEERNS_13basic_ostreamIT_T0_EES9_RKNS_12basic_stringIS6_S7_T1_EE, symObjAddr: 0x5868, symBinAddr: 0x100006D38, symSize: 0x100 }
  - { offset: 0x14EEE, size: 0x8, addend: 0x0, symName: __ZNSt3__1lsB8ne180100INS_11char_traitsIcEEEERNS_13basic_ostreamIcT_EES6_PKc, symObjAddr: 0x5968, symBinAddr: 0x100006E38, symSize: 0xA8 }
  - { offset: 0x14F34, size: 0x8, addend: 0x0, symName: __ZNSt3__14endlB8ne180100IcNS_11char_traitsIcEEEERNS_13basic_ostreamIT_T0_EES7_, symObjAddr: 0x5B18, symBinAddr: 0x100006FE8, symSize: 0x3C0 }
  - { offset: 0x14F74, size: 0x8, addend: 0x0, symName: __ZNSt3__17getlineB8ne180100IcNS_11char_traitsIcEENS_9allocatorIcEEEERNS_13basic_istreamIT_T0_EES9_RNS_12basic_stringIS6_S7_T1_EE, symObjAddr: 0x5ED8, symBinAddr: 0x1000073A8, symSize: 0x2C8 }
  - { offset: 0x14FCC, size: 0x8, addend: 0x0, symName: __ZNSt3__1neB8ne180100ERKNS_21__tree_const_iteratorINS_12basic_stringIcNS_11char_traitsIcEENS_9allocatorIcEEEEPNS_11__tree_nodeIS6_PvEElEESD_, symObjAddr: 0x6528, symBinAddr: 0x1000079F8, symSize: 0x98 }
  - { offset: 0x15014, size: 0x8, addend: 0x0, symName: __ZNSt3__1neB8ne180100ERKNS_20__map_const_iteratorINS_21__tree_const_iteratorINS_12__value_typeINS_12basic_stringIcNS_11char_traitsIcEENS_9allocatorIcEEEENS_3setIS8_NS_4lessIS8_EENS6_IS8_EEEEEEPNS_11__tree_nodeISE_PvEElEEEESM_, symObjAddr: 0x81F8, symBinAddr: 0x1000096C8, symSize: 0x98 }
  - { offset: 0x15051, size: 0x8, addend: 0x0, symName: __ZNSt3__116set_intersectionB8ne180100INS_21__tree_const_iteratorINS_12basic_stringIcNS_11char_traitsIcEENS_9allocatorIcEEEEPNS_11__tree_nodeIS7_PvEElEESC_NS_15insert_iteratorINS_3setIS7_NS_4lessIS7_EENS5_IS7_EEEEEEEET1_T_SL_T0_SM_SK_, symObjAddr: 0x8648, symBinAddr: 0x100009B18, symSize: 0x2E0 }
  - { offset: 0x150D5, size: 0x8, addend: 0x0, symName: __ZNSt3__18inserterB8ne180100INS_3setINS_12basic_stringIcNS_11char_traitsIcEENS_9allocatorIcEEEENS_4lessIS7_EENS5_IS7_EEEEEENS_15insert_iteratorIT_EERSD_DTclL_ZNS_6ranges5__cpo5beginEEclsr3stdE7declvalISF_EEEE, symObjAddr: 0x8928, symBinAddr: 0x100009DF8, symSize: 0x1D0 }
  - { offset: 0x1511A, size: 0x8, addend: 0x0, symName: __ZNSt3__114set_differenceB8ne180100INS_21__tree_const_iteratorINS_12basic_stringIcNS_11char_traitsIcEENS_9allocatorIcEEEEPNS_11__tree_nodeIS7_PvEElEESC_NS_15insert_iteratorINS_3setIS7_NS_4lessIS7_EENS5_IS7_EEEEEEEET1_T_SL_T0_SM_SK_, symObjAddr: 0x8AF8, symBinAddr: 0x100009FC8, symSize: 0x290 }
  - { offset: 0x151AF, size: 0x8, addend: 0x0, symName: __ZNSt3__19set_unionB8ne180100INS_21__tree_const_iteratorINS_12basic_stringIcNS_11char_traitsIcEENS_9allocatorIcEEEEPNS_11__tree_nodeIS7_PvEElEESC_NS_15insert_iteratorINS_3setIS7_NS_4lessIS7_EENS5_IS7_EEEEEEEET1_T_SL_T0_SM_SK_, symObjAddr: 0x8D88, symBinAddr: 0x10000A258, symSize: 0xC0 }
  - { offset: 0x1522E, size: 0x8, addend: 0x0, symName: __ZNSt3__118__constexpr_strlenB8ne180100EPKc, symObjAddr: 0xA518, symBinAddr: 0x10000B9E8, symSize: 0x28 }
  - { offset: 0x1525A, size: 0x8, addend: 0x0, symName: __ZNSt3__112__to_addressB8ne180100IKcEEPT_S3_, symObjAddr: 0xAF18, symBinAddr: 0x10000C3E8, symSize: 0x18 }
  - { offset: 0x152C2, size: 0x8, addend: 0x0, symName: __ZNSt3__119__libcpp_deallocateB8ne180100EPvmm, symObjAddr: 0xC3A8, symBinAddr: 0x10000D878, symSize: 0x70 }
  - { offset: 0x15327, size: 0x8, addend: 0x0, symName: __ZNSt3__124__is_overaligned_for_newB8ne180100Em, symObjAddr: 0xC418, symBinAddr: 0x10000D8E8, symSize: 0x20 }
  - { offset: 0x15355, size: 0x8, addend: 0x0, symName: __ZNSt3__127__do_deallocate_handle_sizeB8ne180100IJSt11align_val_tEEEvPvmDpT_, symObjAddr: 0xC438, symBinAddr: 0x10000D908, symSize: 0x30 }
  - { offset: 0x153A8, size: 0x8, addend: 0x0, symName: __ZNSt3__127__do_deallocate_handle_sizeB8ne180100IJEEEvPvmDpT_, symObjAddr: 0xC468, symBinAddr: 0x10000D938, symSize: 0x30 }
  - { offset: 0x153E6, size: 0x8, addend: 0x0, symName: __ZNSt3__124__libcpp_operator_deleteB8ne180100IJPvSt11align_val_tEEEvDpT_, symObjAddr: 0xC498, symBinAddr: 0x10000D968, symSize: 0x30 }
  - { offset: 0x1542F, size: 0x8, addend: 0x0, symName: __ZNSt3__124__libcpp_operator_deleteB8ne180100IJPvEEEvDpT_, symObjAddr: 0xC4C8, symBinAddr: 0x10000D998, symSize: 0x28 }
  - { offset: 0x15464, size: 0x8, addend: 0x0, symName: __ZNSt3__118__set_intersectionB8ne180100INS_17_ClassicAlgPolicyENS_6__lessIvvEENS_21__tree_const_iteratorINS_12basic_stringIcNS_11char_traitsIcEENS_9allocatorIcEEEEPNS_11__tree_nodeISA_PvEElEESF_SF_SF_NS_15insert_iteratorINS_3setISA_NS_4lessISA_EENS8_ISA_EEEEEEEENS_25__set_intersection_resultIT1_T3_T5_EESO_T2_SP_T4_SQ_OT0_, symObjAddr: 0xCF08, symBinAddr: 0x10000E3D8, symSize: 0x6D8 }
  - { offset: 0x1572B, size: 0x8, addend: 0x0, symName: __ZNSt3__1ltB8ne180100ENS_15strong_orderingENS_20_CmpUnspecifiedParamE, symObjAddr: 0xDB38, symBinAddr: 0x10000F008, symSize: 0x30 }
  - { offset: 0x15761, size: 0x8, addend: 0x0, symName: __ZNSt3__1ssB8ne180100IcNS_11char_traitsIcEENS_9allocatorIcEEEEDaRKNS_12basic_stringIT_T0_T1_EESB_, symObjAddr: 0xDB68, symBinAddr: 0x10000F038, symSize: 0xA8 }
  - { offset: 0x157D5, size: 0x8, addend: 0x0, symName: __ZNSt3__1ssB8ne180100IcNS_11char_traitsIcEEEEDaNS_17basic_string_viewIT_T0_EENS_13type_identityIS6_E4typeE, symObjAddr: 0xDC68, symBinAddr: 0x10000F138, symSize: 0x1E8 }
  - { offset: 0x15829, size: 0x8, addend: 0x0, symName: __ZNSt3__13minB8ne180100ImEERKT_S3_S3_, symObjAddr: 0xE378, symBinAddr: 0x10000F848, symSize: 0xC8 }
  - { offset: 0x1586C, size: 0x8, addend: 0x0, symName: __ZNSt3__13minB8ne180100ImNS_6__lessIvvEEEERKT_S5_S5_T0_, symObjAddr: 0xE588, symBinAddr: 0x10000FA58, symSize: 0x218 }
  - { offset: 0x158CC, size: 0x8, addend: 0x0, symName: __ZNSt3__1eqB8ne180100ERKNS_21__tree_const_iteratorINS_12basic_stringIcNS_11char_traitsIcEENS_9allocatorIcEEEEPNS_11__tree_nodeIS6_PvEElEESD_, symObjAddr: 0x11518, symBinAddr: 0x1000129E8, symSize: 0xD8 }
  - { offset: 0x15909, size: 0x8, addend: 0x0, symName: __ZNSt3__14nextB8ne180100INS_21__tree_const_iteratorINS_12basic_stringIcNS_11char_traitsIcEENS_9allocatorIcEEEEPNS_11__tree_nodeIS7_PvEElEETnNS_9enable_ifIXsr29__has_input_iterator_categoryIT_EE5valueEiE4typeELi0EEESE_SE_NS_15iterator_traitsISE_E15difference_typeE, symObjAddr: 0x128D8, symBinAddr: 0x100013DA8, symSize: 0x178 }
  - { offset: 0x1598A, size: 0x8, addend: 0x0, symName: __ZNSt3__116__tree_prev_iterB8ne180100IPNS_16__tree_node_baseIPvEEPNS_15__tree_end_nodeIS4_EEEET_T0_, symObjAddr: 0x12FE8, symBinAddr: 0x1000144B8, symSize: 0x270 }
  - { offset: 0x159D6, size: 0x8, addend: 0x0, symName: __ZNSt3__110__tree_maxB8ne180100IPNS_16__tree_node_baseIPvEEEET_S5_, symObjAddr: 0x13258, symBinAddr: 0x100014728, symSize: 0x170 }
  - { offset: 0x15A0B, size: 0x8, addend: 0x0, symName: __ZNSt3__120__tree_is_left_childB8ne180100IPNS_16__tree_node_baseIPvEEEEbT_, symObjAddr: 0x133C8, symBinAddr: 0x100014898, symSize: 0x158 }
  - { offset: 0x15A40, size: 0x8, addend: 0x0, symName: __ZNSt3__121__convert_to_integralB8ne180100El, symObjAddr: 0x13A38, symBinAddr: 0x100014F08, symSize: 0x20 }
  - { offset: 0x15A6C, size: 0x8, addend: 0x0, symName: __ZNSt3__19__advanceB8ne180100INS_21__tree_const_iteratorINS_12basic_stringIcNS_11char_traitsIcEENS_9allocatorIcEEEEPNS_11__tree_nodeIS7_PvEElEEEEvRT_NS_15iterator_traitsISD_E15difference_typeENS_26bidirectional_iterator_tagE, symObjAddr: 0x13A58, symBinAddr: 0x100014F28, symSize: 0x148 }
  - { offset: 0x15AD3, size: 0x8, addend: 0x0, symName: __ZNSt3__117__libcpp_allocateB8ne180100Emm, symObjAddr: 0x14268, symBinAddr: 0x100015738, symSize: 0x70 }
  - { offset: 0x15D19, size: 0x8, addend: 0x0, symName: __ZNSt3__121__libcpp_operator_newB8ne180100IJmSt11align_val_tEEEPvDpT_, symObjAddr: 0x14318, symBinAddr: 0x1000157E8, symSize: 0x70 }
  - { offset: 0x15D66, size: 0x8, addend: 0x0, symName: __ZNSt3__121__libcpp_operator_newB8ne180100IJmEEEPvDpT_, symObjAddr: 0x14388, symBinAddr: 0x100015858, symSize: 0x28 }
  - { offset: 0x15D9F, size: 0x8, addend: 0x0, symName: __ZNSt3__114__construct_atB8ne180100INS_12basic_stringIcNS_11char_traitsIcEENS_9allocatorIcEEEEJRKS6_EPS6_EEPT_SB_DpOT0_, symObjAddr: 0x149B8, symBinAddr: 0x100015E88, symSize: 0x70 }
  - { offset: 0x15E17, size: 0x8, addend: 0x0, symName: __ZNSt3__112construct_atB8ne180100INS_12basic_stringIcNS_11char_traitsIcEENS_9allocatorIcEEEEJRKS6_EPS6_EEPT_SB_DpOT0_, symObjAddr: 0x14A28, symBinAddr: 0x100015EF8, symSize: 0xD8 }
  - { offset: 0x15E87, size: 0x8, addend: 0x0, symName: __ZNSt3__127__tree_balance_after_insertB8ne180100IPNS_16__tree_node_baseIPvEEEEvT_S5_, symObjAddr: 0x14DC8, symBinAddr: 0x100016298, symSize: 0x13B8 }
  - { offset: 0x15EFB, size: 0x8, addend: 0x0, symName: __ZNSt3__118__tree_left_rotateB8ne180100IPNS_16__tree_node_baseIPvEEEEvT_, symObjAddr: 0x16248, symBinAddr: 0x100017718, symSize: 0x8D0 }
  - { offset: 0x15F3A, size: 0x8, addend: 0x0, symName: __ZNSt3__119__tree_right_rotateB8ne180100IPNS_16__tree_node_baseIPvEEEEvT_, symObjAddr: 0x16B18, symBinAddr: 0x100017FE8, symSize: 0x8B8 }
  - { offset: 0x15F7C, size: 0x8, addend: 0x0, symName: __ZNSt3__112__destroy_atB8ne180100INS_12basic_stringIcNS_11char_traitsIcEENS_9allocatorIcEEEETnNS_9enable_ifIXntsr8is_arrayIT_EE5valueEiE4typeELi0EEEvPS8_, symObjAddr: 0x17C68, symBinAddr: 0x100019138, symSize: 0x58 }
  - { offset: 0x15FB3, size: 0x8, addend: 0x0, symName: __ZNSt3__116__set_differenceB8ne180100INS_17_ClassicAlgPolicyENS_6__lessIvvEERNS_21__tree_const_iteratorINS_12basic_stringIcNS_11char_traitsIcEENS_9allocatorIcEEEEPNS_11__tree_nodeISA_PvEElEESG_SG_SG_RNS_15insert_iteratorINS_3setISA_NS_4lessISA_EENS8_ISA_EEEEEEEENS_4pairIu14__remove_cvrefIT1_Eu14__remove_cvrefIT5_EEEOSQ_OT2_OT3_OT4_OSS_OT0_, symObjAddr: 0x18168, symBinAddr: 0x100019638, symSize: 0x6C0 }
  - { offset: 0x16064, size: 0x8, addend: 0x0, symName: __ZNSt3__16__copyB8ne180100INS_17_ClassicAlgPolicyENS_21__tree_const_iteratorINS_12basic_stringIcNS_11char_traitsIcEENS_9allocatorIcEEEEPNS_11__tree_nodeIS8_PvEElEESD_NS_15insert_iteratorINS_3setIS8_NS_4lessIS8_EENS6_IS8_EEEEEEEENS_4pairIT0_T2_EESM_T1_SN_, symObjAddr: 0x18828, symBinAddr: 0x100019CF8, symSize: 0x90 }
  - { offset: 0x160D0, size: 0x8, addend: 0x0, symName: __ZNSt3__123__dispatch_copy_or_moveB8ne180100INS_17_ClassicAlgPolicyENS_11__copy_loopIS1_EENS_14__copy_trivialENS_21__tree_const_iteratorINS_12basic_stringIcNS_11char_traitsIcEENS_9allocatorIcEEEEPNS_11__tree_nodeISB_PvEElEESG_NS_15insert_iteratorINS_3setISB_NS_4lessISB_EENS9_ISB_EEEEEEEENS_4pairIT2_T4_EESP_T3_SQ_, symObjAddr: 0x188B8, symBinAddr: 0x100019D88, symSize: 0x90 }
  - { offset: 0x1614E, size: 0x8, addend: 0x0, symName: __ZNSt3__121__unwrap_and_dispatchB8ne180100INS_10__overloadINS_11__copy_loopINS_17_ClassicAlgPolicyEEENS_14__copy_trivialEEENS_21__tree_const_iteratorINS_12basic_stringIcNS_11char_traitsIcEENS_9allocatorIcEEEEPNS_11__tree_nodeISD_PvEElEESI_NS_15insert_iteratorINS_3setISD_NS_4lessISD_EENSB_ISD_EEEEEETnNS_9enable_ifIXsr12__can_rewrapIT0_T1_T2_EE5valueEiE4typeELi0EEENS_4pairISR_ST_EESR_SS_ST_, symObjAddr: 0x18948, symBinAddr: 0x100019E18, symSize: 0x3F0 }
  - { offset: 0x161E4, size: 0x8, addend: 0x0, symName: __ZNSt3__114__unwrap_rangeB8ne180100INS_21__tree_const_iteratorINS_12basic_stringIcNS_11char_traitsIcEENS_9allocatorIcEEEEPNS_11__tree_nodeIS7_PvEElEESC_EEDaT_T0_, symObjAddr: 0x18D38, symBinAddr: 0x10001A208, symSize: 0x68 }
  - { offset: 0x16356, size: 0x8, addend: 0x0, symName: __ZNSt3__113__unwrap_iterB8ne180100INS_15insert_iteratorINS_3setINS_12basic_stringIcNS_11char_traitsIcEENS_9allocatorIcEEEENS_4lessIS8_EENS6_IS8_EEEEEENS_18__unwrap_iter_implISD_Lb0EEETnNS_9enable_ifIXsr21is_copy_constructibleIT_EE5valueEiE4typeELi0EEEDTclsrT0_8__unwrapclsr3stdE7declvalISH_EEEESH_, symObjAddr: 0x19068, symBinAddr: 0x10001A538, symSize: 0x50 }
  - { offset: 0x1639A, size: 0x8, addend: 0x0, symName: __ZNSt3__19make_pairB8ne180100INS_21__tree_const_iteratorINS_12basic_stringIcNS_11char_traitsIcEENS_9allocatorIcEEEEPNS_11__tree_nodeIS7_PvEElEENS_15insert_iteratorINS_3setIS7_NS_4lessIS7_EENS5_IS7_EEEEEEEENS_4pairINS_18__unwrap_ref_decayIT_E4typeENSL_IT0_E4typeEEEOSM_OSP_, symObjAddr: 0x190B8, symBinAddr: 0x10001A588, symSize: 0xE0 }
  - { offset: 0x163E9, size: 0x8, addend: 0x0, symName: __ZNSt3__114__rewrap_rangeB8ne180100INS_21__tree_const_iteratorINS_12basic_stringIcNS_11char_traitsIcEENS_9allocatorIcEEEEPNS_11__tree_nodeIS7_PvEElEESC_SC_EET0_SD_T1_, symObjAddr: 0x19198, symBinAddr: 0x10001A668, symSize: 0x60 }
  - { offset: 0x1643E, size: 0x8, addend: 0x0, symName: __ZNSt3__113__rewrap_iterB8ne180100INS_15insert_iteratorINS_3setINS_12basic_stringIcNS_11char_traitsIcEENS_9allocatorIcEEEENS_4lessIS8_EENS6_IS8_EEEEEESD_NS_18__unwrap_iter_implISD_Lb0EEEEET_SG_T0_, symObjAddr: 0x191F8, symBinAddr: 0x10001A6C8, symSize: 0xA0 }
  - { offset: 0x164E3, size: 0x8, addend: 0x0, symName: __ZNSt3__113__unwrap_iterB8ne180100INS_21__tree_const_iteratorINS_12basic_stringIcNS_11char_traitsIcEENS_9allocatorIcEEEEPNS_11__tree_nodeIS7_PvEElEENS_18__unwrap_iter_implISC_Lb0EEETnNS_9enable_ifIXsr21is_copy_constructibleIT_EE5valueEiE4typeELi0EEEDTclsrT0_8__unwrapclsr3stdE7declvalISG_EEEESG_, symObjAddr: 0x194D8, symBinAddr: 0x10001A9A8, symSize: 0x38 }
  - { offset: 0x165B7, size: 0x8, addend: 0x0, symName: __ZNSt3__113__rewrap_iterB8ne180100INS_21__tree_const_iteratorINS_12basic_stringIcNS_11char_traitsIcEENS_9allocatorIcEEEEPNS_11__tree_nodeIS7_PvEElEESC_NS_18__unwrap_iter_implISC_Lb0EEEEET_SF_T0_, symObjAddr: 0x197A8, symBinAddr: 0x10001AC78, symSize: 0x80 }
  - { offset: 0x1660C, size: 0x8, addend: 0x0, symName: __ZNSt3__19set_unionB8ne180100INS_21__tree_const_iteratorINS_12basic_stringIcNS_11char_traitsIcEENS_9allocatorIcEEEEPNS_11__tree_nodeIS7_PvEElEESC_NS_15insert_iteratorINS_3setIS7_NS_4lessIS7_EENS5_IS7_EEEEEENS_6__lessIvvEEEET1_T_SN_T0_SO_SM_T2_, symObjAddr: 0x198A8, symBinAddr: 0x10001AD78, symSize: 0x2D0 }
  - { offset: 0x166AB, size: 0x8, addend: 0x0, symName: __ZNSt3__111__set_unionB8ne180100INS_17_ClassicAlgPolicyERNS_6__lessIvvEENS_21__tree_const_iteratorINS_12basic_stringIcNS_11char_traitsIcEENS_9allocatorIcEEEEPNS_11__tree_nodeISB_PvEElEESG_SG_SG_NS_15insert_iteratorINS_3setISB_NS_4lessISB_EENS9_ISB_EEEEEEEENS_18__set_union_resultIT1_T3_T5_EESP_T2_SQ_T4_SR_OT0_, symObjAddr: 0x19B78, symBinAddr: 0x10001B048, symSize: 0x8A8 }
  - { offset: 0x169F6, size: 0x8, addend: 0x0, symName: __ZNSt3__19use_facetB8ne180100INS_5ctypeIcEEEERKT_RKNS_6localeE, symObjAddr: 0x1CB88, symBinAddr: 0x10001E058, symSize: 0x158 }
  - { offset: 0x16DD4, size: 0x8, addend: 0x0, symName: __ZNSt3__116__pad_and_outputB8ne180100IcNS_11char_traitsIcEEEENS_19ostreambuf_iteratorIT_T0_EES6_PKS4_S8_S8_RNS_8ios_baseES4_, symObjAddr: 0x201F8, symBinAddr: 0x1000216C8, symSize: 0x9E8 }
  - { offset: 0x16EAE, size: 0x8, addend: 0x0, symName: __ZNSt3__112__to_addressB8ne180100IcEEPT_S2_, symObjAddr: 0x21558, symBinAddr: 0x100022A28, symSize: 0x18 }
  - { offset: 0x16EE3, size: 0x8, addend: 0x0, symName: __ZNSt3__17getlineB8ne180100IcNS_11char_traitsIcEENS_9allocatorIcEEEERNS_13basic_istreamIT_T0_EES9_RNS_12basic_stringIS6_S7_T1_EES6_, symObjAddr: 0x21D38, symBinAddr: 0x100023208, symSize: 0xFB0 }
  - { offset: 0x16FB4, size: 0x8, addend: 0x0, symName: __ZNSt3__116__tree_next_iterB8ne180100IPNS_15__tree_end_nodeIPNS_16__tree_node_baseIPvEEEES5_EET_T0_, symObjAddr: 0x22D18, symBinAddr: 0x1000241E8, symSize: 0x2B0 }
  - { offset: 0x16FF2, size: 0x8, addend: 0x0, symName: __ZNSt3__110__tree_minB8ne180100IPNS_16__tree_node_baseIPvEEEET_S5_, symObjAddr: 0x22FC8, symBinAddr: 0x100024498, symSize: 0x198 }
  - { offset: 0x1705E, size: 0x8, addend: 0x0, symName: __ZNSt3__116forward_as_tupleB8ne180100IJRKNS_12basic_stringIcNS_11char_traitsIcEENS_9allocatorIcEEEEEEENS_5tupleIJDpOT_EEESC_, symObjAddr: 0x23718, symBinAddr: 0x100024BE8, symSize: 0x190 }
  - { offset: 0x17098, size: 0x8, addend: 0x0, symName: __ZNSt3__116forward_as_tupleB8ne180100IJEEENS_5tupleIJDpOT_EEES4_, symObjAddr: 0x238A8, symBinAddr: 0x100024D78, symSize: 0x8 }
  - { offset: 0x170BC, size: 0x8, addend: 0x0, symName: __ZNSt3__17launderB8ne180100IKNS_4pairIKNS_12basic_stringIcNS_11char_traitsIcEENS_9allocatorIcEEEENS_3setIS7_NS_4lessIS7_EENS5_IS7_EEEEEEEEPT_SH_, symObjAddr: 0x25F38, symBinAddr: 0x100027408, symSize: 0x30 }
  - { offset: 0x170F3, size: 0x8, addend: 0x0, symName: __ZNSt3__19__launderB8ne180100IKNS_4pairIKNS_12basic_stringIcNS_11char_traitsIcEENS_9allocatorIcEEEENS_3setIS7_NS_4lessIS7_EENS5_IS7_EEEEEEEEPT_SH_, symObjAddr: 0x25F68, symBinAddr: 0x100027438, symSize: 0x18 }
  - { offset: 0x17148, size: 0x8, addend: 0x0, symName: __ZNSt3__114__construct_atB8ne180100INS_4pairIKNS_12basic_stringIcNS_11char_traitsIcEENS_9allocatorIcEEEENS_3setIS7_NS_4lessIS7_EENS5_IS7_EEEEEEJRKNS_21piecewise_construct_tENS_5tupleIJRS8_EEENSI_IJEEEEPSE_EEPT_SO_DpOT0_, symObjAddr: 0x26D28, symBinAddr: 0x1000281F8, symSize: 0xC0 }
  - { offset: 0x171E6, size: 0x8, addend: 0x0, symName: __ZNSt3__112construct_atB8ne180100INS_4pairIKNS_12basic_stringIcNS_11char_traitsIcEENS_9allocatorIcEEEENS_3setIS7_NS_4lessIS7_EENS5_IS7_EEEEEEJRKNS_21piecewise_construct_tENS_5tupleIJRS8_EEENSI_IJEEEEPSE_EEPT_SO_DpOT0_, symObjAddr: 0x26DE8, symBinAddr: 0x1000282B8, symSize: 0xB8 }
  - { offset: 0x17287, size: 0x8, addend: 0x0, symName: __ZNSt3__13getB8ne180100ILm0EJRKNS_12basic_stringIcNS_11char_traitsIcEENS_9allocatorIcEEEEEEERNS_13tuple_elementIXT_ENS_5tupleIJDpT0_EEEE4typeERSD_, symObjAddr: 0x271A8, symBinAddr: 0x100028678, symSize: 0xA8 }
  - { offset: 0x172CA, size: 0x8, addend: 0x0, symName: __ZNSt3__112__destroy_atB8ne180100INS_4pairIKNS_12basic_stringIcNS_11char_traitsIcEENS_9allocatorIcEEEENS_3setIS7_NS_4lessIS7_EENS5_IS7_EEEEEETnNS_9enable_ifIXntsr8is_arrayIT_EE5valueEiE4typeELi0EEEvPSG_, symObjAddr: 0x27E68, symBinAddr: 0x100029338, symSize: 0x58 }
  - { offset: 0x17358, size: 0x8, addend: 0x0, symName: __ZNSt3__17launderB8ne180100INS_4pairIKNS_12basic_stringIcNS_11char_traitsIcEENS_9allocatorIcEEEENS_3setIS7_NS_4lessIS7_EENS5_IS7_EEEEEEEEPT_SG_, symObjAddr: 0x28598, symBinAddr: 0x100029A68, symSize: 0x30 }
  - { offset: 0x1738F, size: 0x8, addend: 0x0, symName: __ZNSt3__19__launderB8ne180100INS_4pairIKNS_12basic_stringIcNS_11char_traitsIcEENS_9allocatorIcEEEENS_3setIS7_NS_4lessIS7_EENS5_IS7_EEEEEEEEPT_SG_, symObjAddr: 0x285C8, symBinAddr: 0x100029A98, symSize: 0x18 }
  - { offset: 0x173C6, size: 0x8, addend: 0x0, symName: __ZNSt3__1neB8ne180100ERKNS_21__tree_const_iteratorINS_12__value_typeINS_12basic_stringIcNS_11char_traitsIcEENS_9allocatorIcEEEENS_3setIS7_NS_4lessIS7_EENS5_IS7_EEEEEEPNS_11__tree_nodeISD_PvEElEESK_, symObjAddr: 0x28EC8, symBinAddr: 0x10002A398, symSize: 0x98 }
  - { offset: 0x17403, size: 0x8, addend: 0x0, symName: __ZNSt3__1eqB8ne180100ERKNS_21__tree_const_iteratorINS_12__value_typeINS_12basic_stringIcNS_11char_traitsIcEENS_9allocatorIcEEEENS_3setIS7_NS_4lessIS7_EENS5_IS7_EEEEEEPNS_11__tree_nodeISD_PvEElEESK_, symObjAddr: 0x29358, symBinAddr: 0x10002A828, symSize: 0xD8 }
  - { offset: 0x174A6, size: 0x8, addend: 0x0, symName: __ZNSt3__111__tree_leafB8ne180100IPNS_16__tree_node_baseIPvEEEET_S5_, symObjAddr: 0x2C638, symBinAddr: 0x10002DB08, symSize: 0x2E8 }
  - { offset: 0x18428, size: 0x8, addend: 0x0, symName: __ZSt28__throw_bad_array_new_lengthB8ne180100v, symObjAddr: 0x141E8, symBinAddr: 0x1000156B8, symSize: 0x80 }
  - { offset: 0x1986F, size: 0x8, addend: 0x0, symName: __Z10cleanTokenRKNSt3__112basic_stringIcNS_11char_traitsIcEENS_9allocatorIcEEEE, symObjAddr: 0x8, symBinAddr: 0x1000014D8, symSize: 0xDF8 }
  - { offset: 0x19911, size: 0x8, addend: 0x0, symName: __ZNSt3__112basic_stringIcNS_11char_traitsIcEENS_9allocatorIcEEEC1B8ne180100ILi0EEEPKc, symObjAddr: 0xE00, symBinAddr: 0x1000022D0, symSize: 0x60 }
  - { offset: 0x19950, size: 0x8, addend: 0x0, symName: __ZNKSt3__112basic_stringIcNS_11char_traitsIcEENS_9allocatorIcEEE4sizeB8ne180100Ev, symObjAddr: 0xE60, symBinAddr: 0x100002330, symSize: 0x88 }
  - { offset: 0x19975, size: 0x8, addend: 0x0, symName: __Z7ispuncti, symObjAddr: 0xEE8, symBinAddr: 0x1000023B8, symSize: 0x28 }
  - { offset: 0x199A4, size: 0x8, addend: 0x0, symName: __ZNKSt3__112basic_stringIcNS_11char_traitsIcEENS_9allocatorIcEEEixB8ne180100Em, symObjAddr: 0xF10, symBinAddr: 0x1000023E0, symSize: 0xD8 }
  - { offset: 0x199D8, size: 0x8, addend: 0x0, symName: __Z7toloweri, symObjAddr: 0xFE8, symBinAddr: 0x1000024B8, symSize: 0x28 }
  - { offset: 0x19A07, size: 0x8, addend: 0x0, symName: __ZNSt3__112basic_stringIcNS_11char_traitsIcEENS_9allocatorIcEEEpLB8ne180100Ec, symObjAddr: 0x1010, symBinAddr: 0x1000024E0, symSize: 0x98 }
  - { offset: 0x19A3B, size: 0x8, addend: 0x0, symName: __Z7isalphai, symObjAddr: 0x10A8, symBinAddr: 0x100002578, symSize: 0x28 }
  - { offset: 0x19A68, size: 0x8, addend: 0x0, symName: __ZNKSt3__112basic_stringIcNS_11char_traitsIcEENS_9allocatorIcEEE5emptyB8ne180100Ev, symObjAddr: 0x10D0, symBinAddr: 0x1000025A0, symSize: 0x60 }
  - { offset: 0x19A8E, size: 0x8, addend: 0x0, symName: __ZNSt3__112basic_stringIcNS_11char_traitsIcEENS_9allocatorIcEEEixB8ne180100Em, symObjAddr: 0x1130, symBinAddr: 0x100002600, symSize: 0xD0 }
  - { offset: 0x19AC3, size: 0x8, addend: 0x0, symName: __ZNKSt3__112basic_stringIcNS_11char_traitsIcEENS_9allocatorIcEEE6substrB8ne180100Emm, symObjAddr: 0x1200, symBinAddr: 0x1000026D0, symSize: 0x230 }
  - { offset: 0x19B0A, size: 0x8, addend: 0x0, symName: __ZNSt3__112basic_stringIcNS_11char_traitsIcEENS_9allocatorIcEEEaSB8ne180100EOS5_, symObjAddr: 0x1430, symBinAddr: 0x100002900, symSize: 0xC0 }
  - { offset: 0x19B3F, size: 0x8, addend: 0x0, symName: __ZNSt3__112basic_stringIcNS_11char_traitsIcEENS_9allocatorIcEEEaSB8ne180100EPKc, symObjAddr: 0x14F0, symBinAddr: 0x1000029C0, symSize: 0x98 }
  - { offset: 0x19B73, size: 0x8, addend: 0x0, symName: __Z12gatherTokensRKNSt3__112basic_stringIcNS_11char_traitsIcEENS_9allocatorIcEEEE, symObjAddr: 0x1588, symBinAddr: 0x100002A58, symSize: 0x7E8 }
  - { offset: 0x19BEF, size: 0x8, addend: 0x0, symName: __ZNSt3__13setINS_12basic_stringIcNS_11char_traitsIcEENS_9allocatorIcEEEENS_4lessIS6_EENS4_IS6_EEEC1B8ne180100Ev, symObjAddr: 0x1D70, symBinAddr: 0x100003240, symSize: 0x50 }
  - { offset: 0x19D27, size: 0x8, addend: 0x0, symName: __ZNSt3__119basic_istringstreamIcNS_11char_traitsIcEENS_9allocatorIcEEEC1B8ne180100ERKNS_12basic_stringIcS2_S4_EEj, symObjAddr: 0x1DC0, symBinAddr: 0x100003290, symSize: 0x340 }
  - { offset: 0x19D6F, size: 0x8, addend: 0x0, symName: __ZNSt3__112basic_stringIcNS_11char_traitsIcEENS_9allocatorIcEEEC1B8ne180100Ev, symObjAddr: 0x2100, symBinAddr: 0x1000035D0, symSize: 0x58 }
  - { offset: 0x19D99, size: 0x8, addend: 0x0, symName: __ZNKSt3__19basic_iosIcNS_11char_traitsIcEEEcvbB8ne180100Ev, symObjAddr: 0x3CB0, symBinAddr: 0x100005180, symSize: 0xE0 }
  - { offset: 0x19DBF, size: 0x8, addend: 0x0, symName: __ZNSt3__13setINS_12basic_stringIcNS_11char_traitsIcEENS_9allocatorIcEEEENS_4lessIS6_EENS4_IS6_EEE6insertB8ne180100ERKS6_, symObjAddr: 0x3D90, symBinAddr: 0x100005260, symSize: 0x250 }
  - { offset: 0x19DFC, size: 0x8, addend: 0x0, symName: __ZNSt3__119basic_istringstreamIcNS_11char_traitsIcEENS_9allocatorIcEEED1Ev, symObjAddr: 0x3FE0, symBinAddr: 0x1000054B0, symSize: 0x70 }
  - { offset: 0x19E29, size: 0x8, addend: 0x0, symName: __ZNSt3__13setINS_12basic_stringIcNS_11char_traitsIcEENS_9allocatorIcEEEENS_4lessIS6_EENS4_IS6_EEED1B8ne180100Ev, symObjAddr: 0x4050, symBinAddr: 0x100005520, symSize: 0x58 }
  - { offset: 0x19E52, size: 0x8, addend: 0x0, symName: __Z10buildIndexRKNSt3__112basic_stringIcNS_11char_traitsIcEENS_9allocatorIcEEEERNS_3mapIS5_NS_3setIS5_NS_4lessIS5_EENS3_IS5_EEEESB_NS3_INS_4pairIS6_SD_EEEEEE, symObjAddr: 0x40A8, symBinAddr: 0x100005578, symSize: 0x1008 }
  - { offset: 0x1A214, size: 0x8, addend: 0x0, symName: __ZNSt3__114basic_ifstreamIcNS_11char_traitsIcEEEC1ERKNS_12basic_stringIcS2_NS_9allocatorIcEEEEj, symObjAddr: 0x50B0, symBinAddr: 0x100006580, symSize: 0x6D0 }
  - { offset: 0x1A25E, size: 0x8, addend: 0x0, symName: __ZNKSt3__19basic_iosIcNS_11char_traitsIcEEEntB8ne180100Ev, symObjAddr: 0x5780, symBinAddr: 0x100006C50, symSize: 0xE8 }
  - { offset: 0x1A284, size: 0x8, addend: 0x0, symName: __ZNSt3__113basic_ostreamIcNS_11char_traitsIcEEElsB8ne180100EPFRS3_S4_E, symObjAddr: 0x5A10, symBinAddr: 0x100006EE0, symSize: 0x108 }
  - { offset: 0x1A2B8, size: 0x8, addend: 0x0, symName: __ZNSt3__13setINS_12basic_stringIcNS_11char_traitsIcEENS_9allocatorIcEEEENS_4lessIS6_EENS4_IS6_EEE5beginB8ne180100Ev, symObjAddr: 0x61A0, symBinAddr: 0x100007670, symSize: 0x1C0 }
  - { offset: 0x1A2DF, size: 0x8, addend: 0x0, symName: __ZNSt3__13setINS_12basic_stringIcNS_11char_traitsIcEENS_9allocatorIcEEEENS_4lessIS6_EENS4_IS6_EEE3endB8ne180100Ev, symObjAddr: 0x6360, symBinAddr: 0x100007830, symSize: 0x1C8 }
  - { offset: 0x1A306, size: 0x8, addend: 0x0, symName: __ZNKSt3__121__tree_const_iteratorINS_12basic_stringIcNS_11char_traitsIcEENS_9allocatorIcEEEEPNS_11__tree_nodeIS6_PvEElEdeB8ne180100Ev, symObjAddr: 0x65C0, symBinAddr: 0x100007A90, symSize: 0xC0 }
  - { offset: 0x1A32C, size: 0x8, addend: 0x0, symName: __ZNSt3__13mapINS_12basic_stringIcNS_11char_traitsIcEENS_9allocatorIcEEEENS_3setIS6_NS_4lessIS6_EENS4_IS6_EEEES9_NS4_INS_4pairIKS6_SB_EEEEEixERSD_, symObjAddr: 0x6680, symBinAddr: 0x100007B50, symSize: 0x370 }
  - { offset: 0x1A365, size: 0x8, addend: 0x0, symName: __ZNSt3__121__tree_const_iteratorINS_12basic_stringIcNS_11char_traitsIcEENS_9allocatorIcEEEEPNS_11__tree_nodeIS6_PvEElEppB8ne180100Ev, symObjAddr: 0x69F0, symBinAddr: 0x100007EC0, symSize: 0x120 }
  - { offset: 0x1A391, size: 0x8, addend: 0x0, symName: __ZNSt3__114basic_ifstreamIcNS_11char_traitsIcEEED1Ev, symObjAddr: 0x6B10, symBinAddr: 0x100007FE0, symSize: 0x78 }
  - { offset: 0x1A3BD, size: 0x8, addend: 0x0, symName: __Z16findQueryMatchesRKNSt3__13mapINS_12basic_stringIcNS_11char_traitsIcEENS_9allocatorIcEEEENS_3setIS6_NS_4lessIS6_EENS4_IS6_EEEES9_NS4_INS_4pairIKS6_SB_EEEEEERSD_, symObjAddr: 0x6B88, symBinAddr: 0x100008058, symSize: 0x1468 }
  - { offset: 0x1A4D7, size: 0x8, addend: 0x0, symName: __ZNKSt3__13mapINS_12basic_stringIcNS_11char_traitsIcEENS_9allocatorIcEEEENS_3setIS6_NS_4lessIS6_EENS4_IS6_EEEES9_NS4_INS_4pairIKS6_SB_EEEEE4findB8ne180100ERSD_, symObjAddr: 0x7FF0, symBinAddr: 0x1000094C0, symSize: 0x208 }
  - { offset: 0x1A50E, size: 0x8, addend: 0x0, symName: __ZNKSt3__13mapINS_12basic_stringIcNS_11char_traitsIcEENS_9allocatorIcEEEENS_3setIS6_NS_4lessIS6_EENS4_IS6_EEEES9_NS4_INS_4pairIKS6_SB_EEEEE3endB8ne180100Ev, symObjAddr: 0x8290, symBinAddr: 0x100009760, symSize: 0x1C0 }
  - { offset: 0x1A535, size: 0x8, addend: 0x0, symName: __ZNKSt3__120__map_const_iteratorINS_21__tree_const_iteratorINS_12__value_typeINS_12basic_stringIcNS_11char_traitsIcEENS_9allocatorIcEEEENS_3setIS8_NS_4lessIS8_EENS6_IS8_EEEEEEPNS_11__tree_nodeISE_PvEElEEEptB8ne180100Ev, symObjAddr: 0x8450, symBinAddr: 0x100009920, symSize: 0x100 }
  - { offset: 0x1A55B, size: 0x8, addend: 0x0, symName: __ZNSt3__13setINS_12basic_stringIcNS_11char_traitsIcEENS_9allocatorIcEEEENS_4lessIS6_EENS4_IS6_EEEaSB8ne180100ERKSA_, symObjAddr: 0x8550, symBinAddr: 0x100009A20, symSize: 0xF8 }
  - { offset: 0x1A58F, size: 0x8, addend: 0x0, symName: __Z12searchEngineRKNSt3__112basic_stringIcNS_11char_traitsIcEENS_9allocatorIcEEEE, symObjAddr: 0x8E48, symBinAddr: 0x10000A318, symSize: 0xE18 }
  - { offset: 0x1A683, size: 0x8, addend: 0x0, symName: __ZNSt3__13mapINS_12basic_stringIcNS_11char_traitsIcEENS_9allocatorIcEEEENS_3setIS6_NS_4lessIS6_EENS4_IS6_EEEES9_NS4_INS_4pairIKS6_SB_EEEEEC1B8ne180100Ev, symObjAddr: 0x9C60, symBinAddr: 0x10000B130, symSize: 0x50 }
  - { offset: 0x1A6AD, size: 0x8, addend: 0x0, symName: __ZNKSt3__13mapINS_12basic_stringIcNS_11char_traitsIcEENS_9allocatorIcEEEENS_3setIS6_NS_4lessIS6_EENS4_IS6_EEEES9_NS4_INS_4pairIKS6_SB_EEEEE4sizeB8ne180100Ev, symObjAddr: 0x9CB0, symBinAddr: 0x10000B180, symSize: 0xF0 }
  - { offset: 0x1A6D3, size: 0x8, addend: 0x0, symName: __ZNKSt3__114basic_ifstreamIcNS_11char_traitsIcEEE7is_openEv, symObjAddr: 0x9DA0, symBinAddr: 0x10000B270, symSize: 0x1C0 }
  - { offset: 0x1A6FB, size: 0x8, addend: 0x0, symName: __ZNKSt3__13setINS_12basic_stringIcNS_11char_traitsIcEENS_9allocatorIcEEEENS_4lessIS6_EENS4_IS6_EEE4sizeB8ne180100Ev, symObjAddr: 0x9F60, symBinAddr: 0x10000B430, symSize: 0xF0 }
  - { offset: 0x1A721, size: 0x8, addend: 0x0, symName: __ZNSt3__13mapINS_12basic_stringIcNS_11char_traitsIcEENS_9allocatorIcEEEENS_3setIS6_NS_4lessIS6_EENS4_IS6_EEEES9_NS4_INS_4pairIKS6_SB_EEEEED1B8ne180100Ev, symObjAddr: 0xA050, symBinAddr: 0x10000B520, symSize: 0x50 }
  - { offset: 0x1A74B, size: 0x8, addend: 0x0, symName: __ZNSt3__112basic_stringIcNS_11char_traitsIcEENS_9allocatorIcEEEC2B8ne180100ILi0EEEPKc, symObjAddr: 0xA0A0, symBinAddr: 0x10000B570, symSize: 0x1C0 }
  - { offset: 0x1A792, size: 0x8, addend: 0x0, symName: __ZNSt3__117__compressed_pairINS_12basic_stringIcNS_11char_traitsIcEENS_9allocatorIcEEE5__repES5_EC1B8ne180100INS_18__default_init_tagESA_EEOT_OT0_, symObjAddr: 0xA260, symBinAddr: 0x10000B730, symSize: 0x68 }
  - { offset: 0x1A7EA, size: 0x8, addend: 0x0, symName: __ZNSt3__111char_traitsIcE6lengthB8ne180100EPKc, symObjAddr: 0xA2C8, symBinAddr: 0x10000B798, symSize: 0x48 }
  - { offset: 0x1A80D, size: 0x8, addend: 0x0, symName: __ZNSt3__117__compressed_pairINS_12basic_stringIcNS_11char_traitsIcEENS_9allocatorIcEEE5__repES5_EC2B8ne180100INS_18__default_init_tagESA_EEOT_OT0_, symObjAddr: 0xA310, symBinAddr: 0x10000B7E0, symSize: 0xB0 }
  - { offset: 0x1A865, size: 0x8, addend: 0x0, symName: __ZNSt3__122__compressed_pair_elemINS_12basic_stringIcNS_11char_traitsIcEENS_9allocatorIcEEE5__repELi0ELb0EEC2B8ne180100ENS_18__default_init_tagE, symObjAddr: 0xA3C0, symBinAddr: 0x10000B890, symSize: 0x50 }
  - { offset: 0x1A899, size: 0x8, addend: 0x0, symName: __ZNSt3__122__compressed_pair_elemINS_9allocatorIcEELi1ELb1EEC2B8ne180100ENS_18__default_init_tagE, symObjAddr: 0xA410, symBinAddr: 0x10000B8E0, symSize: 0x60 }
  - { offset: 0x1A8CD, size: 0x8, addend: 0x0, symName: __ZNSt3__19allocatorIcEC2B8ne180100Ev, symObjAddr: 0xA470, symBinAddr: 0x10000B940, symSize: 0x60 }
  - { offset: 0x1A8F7, size: 0x8, addend: 0x0, symName: __ZNSt3__116__non_trivial_ifILb1ENS_9allocatorIcEEEC2B8ne180100Ev, symObjAddr: 0xA4D0, symBinAddr: 0x10000B9A0, symSize: 0x48 }
  - { offset: 0x1A921, size: 0x8, addend: 0x0, symName: __ZNKSt3__112basic_stringIcNS_11char_traitsIcEENS_9allocatorIcEEE9__is_longB8ne180100Ev, symObjAddr: 0xA550, symBinAddr: 0x10000BA20, symSize: 0x1A0 }
  - { offset: 0x1A947, size: 0x8, addend: 0x0, symName: __ZNKSt3__112basic_stringIcNS_11char_traitsIcEENS_9allocatorIcEEE15__get_long_sizeB8ne180100Ev, symObjAddr: 0xA6F0, symBinAddr: 0x10000BBC0, symSize: 0x180 }
  - { offset: 0x1A96D, size: 0x8, addend: 0x0, symName: __ZNKSt3__112basic_stringIcNS_11char_traitsIcEENS_9allocatorIcEEE16__get_short_sizeB8ne180100Ev, symObjAddr: 0xA870, symBinAddr: 0x10000BD40, symSize: 0x190 }
  - { offset: 0x1A993, size: 0x8, addend: 0x0, symName: __ZNKSt3__117__compressed_pairINS_12basic_stringIcNS_11char_traitsIcEENS_9allocatorIcEEE5__repES5_E5firstB8ne180100Ev, symObjAddr: 0xAA00, symBinAddr: 0x10000BED0, symSize: 0xE0 }
  - { offset: 0x1A9B9, size: 0x8, addend: 0x0, symName: __ZNKSt3__122__compressed_pair_elemINS_12basic_stringIcNS_11char_traitsIcEENS_9allocatorIcEEE5__repELi0ELb0EE5__getB8ne180100Ev, symObjAddr: 0xAAE0, symBinAddr: 0x10000BFB0, symSize: 0x88 }
  - { offset: 0x1A9DE, size: 0x8, addend: 0x0, symName: __Z8__istypeim, symObjAddr: 0xAB68, symBinAddr: 0x10000C038, symSize: 0x180 }
  - { offset: 0x1AA18, size: 0x8, addend: 0x0, symName: __Z7isasciii, symObjAddr: 0xACE8, symBinAddr: 0x10000C1B8, symSize: 0x30 }
  - { offset: 0x1AA45, size: 0x8, addend: 0x0, symName: __ZNSt3__112basic_stringIcNS_11char_traitsIcEENS_9allocatorIcEEE13__fits_in_ssoB8ne180100Em, symObjAddr: 0xAD18, symBinAddr: 0x10000C1E8, symSize: 0x18 }
  - { offset: 0x1AA69, size: 0x8, addend: 0x0, symName: __ZNKSt3__112basic_stringIcNS_11char_traitsIcEENS_9allocatorIcEEE18__get_long_pointerB8ne180100Ev, symObjAddr: 0xAD30, symBinAddr: 0x10000C200, symSize: 0x180 }
  - { offset: 0x1AA8F, size: 0x8, addend: 0x0, symName: __ZNKSt3__112basic_stringIcNS_11char_traitsIcEENS_9allocatorIcEEE4dataB8ne180100Ev, symObjAddr: 0xAEB0, symBinAddr: 0x10000C380, symSize: 0x68 }
  - { offset: 0x1AAB5, size: 0x8, addend: 0x0, symName: __ZNKSt3__112basic_stringIcNS_11char_traitsIcEENS_9allocatorIcEEE13__get_pointerB8ne180100Ev, symObjAddr: 0xAF30, symBinAddr: 0x10000C400, symSize: 0x80 }
  - { offset: 0x1AADB, size: 0x8, addend: 0x0, symName: __ZNKSt3__112basic_stringIcNS_11char_traitsIcEENS_9allocatorIcEEE19__get_short_pointerB8ne180100Ev, symObjAddr: 0xAFB0, symBinAddr: 0x10000C480, symSize: 0x158 }
  - { offset: 0x1AB01, size: 0x8, addend: 0x0, symName: __ZNSt3__114pointer_traitsIPKcE10pointer_toB8ne180100ERS1_, symObjAddr: 0xB108, symBinAddr: 0x10000C5D8, symSize: 0x18 }
  - { offset: 0x1AB24, size: 0x8, addend: 0x0, symName: __ZNSt3__112basic_stringIcNS_11char_traitsIcEENS_9allocatorIcEEE18__get_long_pointerB8ne180100Ev, symObjAddr: 0xB120, symBinAddr: 0x10000C5F0, symSize: 0x180 }
  - { offset: 0x1AB4A, size: 0x8, addend: 0x0, symName: __ZNSt3__112basic_stringIcNS_11char_traitsIcEENS_9allocatorIcEEE13__get_pointerB8ne180100Ev, symObjAddr: 0xB2A0, symBinAddr: 0x10000C770, symSize: 0x80 }
  - { offset: 0x1AB70, size: 0x8, addend: 0x0, symName: __ZNSt3__117__compressed_pairINS_12basic_stringIcNS_11char_traitsIcEENS_9allocatorIcEEE5__repES5_E5firstB8ne180100Ev, symObjAddr: 0xB320, symBinAddr: 0x10000C7F0, symSize: 0xE0 }
  - { offset: 0x1AB96, size: 0x8, addend: 0x0, symName: __ZNSt3__122__compressed_pair_elemINS_12basic_stringIcNS_11char_traitsIcEENS_9allocatorIcEEE5__repELi0ELb0EE5__getB8ne180100Ev, symObjAddr: 0xB400, symBinAddr: 0x10000C8D0, symSize: 0x80 }
  - { offset: 0x1ABBC, size: 0x8, addend: 0x0, symName: __ZNSt3__112basic_stringIcNS_11char_traitsIcEENS_9allocatorIcEEE19__get_short_pointerB8ne180100Ev, symObjAddr: 0xB480, symBinAddr: 0x10000C950, symSize: 0x158 }
  - { offset: 0x1ABE2, size: 0x8, addend: 0x0, symName: __ZNSt3__114pointer_traitsIPcE10pointer_toB8ne180100ERc, symObjAddr: 0xB5D8, symBinAddr: 0x10000CAA8, symSize: 0x18 }
  - { offset: 0x1AC05, size: 0x8, addend: 0x0, symName: __ZNSt3__19allocatorIcEC1B8ne180100Ev, symObjAddr: 0xB5F0, symBinAddr: 0x10000CAC0, symSize: 0x40 }
  - { offset: 0x1AC2F, size: 0x8, addend: 0x0, symName: __ZNSt3__112basic_stringIcNS_11char_traitsIcEENS_9allocatorIcEEE13__move_assignB8ne180100ERS5_NS_17integral_constantIbLb1EEE, symObjAddr: 0xB630, symBinAddr: 0x10000CB00, symSize: 0x560 }
  - { offset: 0x1AC93, size: 0x8, addend: 0x0, symName: __ZNKSt3__112basic_stringIcNS_11char_traitsIcEENS_9allocatorIcEEE17__annotate_deleteB8ne180100Ev, symObjAddr: 0xBB90, symBinAddr: 0x10000D060, symSize: 0x58 }
  - { offset: 0x1ACB9, size: 0x8, addend: 0x0, symName: __ZNSt3__116allocator_traitsINS_9allocatorIcEEE10deallocateB8ne180100ERS2_Pcm, symObjAddr: 0xBBE8, symBinAddr: 0x10000D0B8, symSize: 0x38 }
  - { offset: 0x1ACFB, size: 0x8, addend: 0x0, symName: __ZNSt3__112basic_stringIcNS_11char_traitsIcEENS_9allocatorIcEEE7__allocB8ne180100Ev, symObjAddr: 0xBC20, symBinAddr: 0x10000D0F0, symSize: 0xB0 }
  - { offset: 0x1AD21, size: 0x8, addend: 0x0, symName: __ZNKSt3__112basic_stringIcNS_11char_traitsIcEENS_9allocatorIcEEE14__get_long_capB8ne180100Ev, symObjAddr: 0xBCD0, symBinAddr: 0x10000D1A0, symSize: 0x180 }
  - { offset: 0x1AD47, size: 0x8, addend: 0x0, symName: __ZNSt3__112basic_stringIcNS_11char_traitsIcEENS_9allocatorIcEEE19__move_assign_allocB8ne180100ERS5_, symObjAddr: 0xBE50, symBinAddr: 0x10000D320, symSize: 0x90 }
  - { offset: 0x1AD7C, size: 0x8, addend: 0x0, symName: __ZNSt3__112basic_stringIcNS_11char_traitsIcEENS_9allocatorIcEEE16__set_short_sizeB8ne180100Em, symObjAddr: 0xBEE0, symBinAddr: 0x10000D3B0, symSize: 0x2F8 }
  - { offset: 0x1ADB1, size: 0x8, addend: 0x0, symName: __ZNSt3__111char_traitsIcE6assignB8ne180100ERcRKc, symObjAddr: 0xC1D8, symBinAddr: 0x10000D6A8, symSize: 0xB8 }
  - { offset: 0x1ADE2, size: 0x8, addend: 0x0, symName: __ZNKSt3__112basic_stringIcNS_11char_traitsIcEENS_9allocatorIcEEE17__annotate_shrinkB8ne180100Em, symObjAddr: 0xC290, symBinAddr: 0x10000D760, symSize: 0x50 }
  - { offset: 0x1AE17, size: 0x8, addend: 0x0, symName: __ZNKSt3__112basic_stringIcNS_11char_traitsIcEENS_9allocatorIcEEE14__annotate_newB8ne180100Em, symObjAddr: 0xC2E0, symBinAddr: 0x10000D7B0, symSize: 0x50 }
  - { offset: 0x1AE4C, size: 0x8, addend: 0x0, symName: __ZNSt3__19allocatorIcE10deallocateB8ne180100EPcm, symObjAddr: 0xC330, symBinAddr: 0x10000D800, symSize: 0x78 }
  - { offset: 0x1AE8E, size: 0x8, addend: 0x0, symName: __ZNSt3__117__compressed_pairINS_12basic_stringIcNS_11char_traitsIcEENS_9allocatorIcEEE5__repES5_E6secondB8ne180100Ev, symObjAddr: 0xC4F0, symBinAddr: 0x10000D9C0, symSize: 0xC0 }
  - { offset: 0x1AEB4, size: 0x8, addend: 0x0, symName: __ZNSt3__122__compressed_pair_elemINS_9allocatorIcEELi1ELb1EE5__getB8ne180100Ev, symObjAddr: 0xC5B0, symBinAddr: 0x10000DA80, symSize: 0x60 }
  - { offset: 0x1AEDA, size: 0x8, addend: 0x0, symName: __ZNSt3__112basic_stringIcNS_11char_traitsIcEENS_9allocatorIcEEE19__move_assign_allocB8ne180100ERS5_NS_17integral_constantIbLb1EEE, symObjAddr: 0xC610, symBinAddr: 0x10000DAE0, symSize: 0x90 }
  - { offset: 0x1AF1B, size: 0x8, addend: 0x0, symName: __ZNSt3__112basic_stringIcNS_11char_traitsIcEENS_9allocatorIcEEEC2B8ne180100Ev, symObjAddr: 0xC6A0, symBinAddr: 0x10000DB70, symSize: 0x1C0 }
  - { offset: 0x1AF4C, size: 0x8, addend: 0x0, symName: __ZNSt3__117__compressed_pairINS_12basic_stringIcNS_11char_traitsIcEENS_9allocatorIcEEE5__repES5_EC1B8ne180100INS_16__value_init_tagENS_18__default_init_tagEEEOT_OT0_, symObjAddr: 0xC860, symBinAddr: 0x10000DD30, symSize: 0x60 }
  - { offset: 0x1AFA4, size: 0x8, addend: 0x0, symName: __ZNSt3__117__compressed_pairINS_12basic_stringIcNS_11char_traitsIcEENS_9allocatorIcEEE5__repES5_EC2B8ne180100INS_16__value_init_tagENS_18__default_init_tagEEEOT_OT0_, symObjAddr: 0xC8C0, symBinAddr: 0x10000DD90, symSize: 0xB0 }
  - { offset: 0x1AFFC, size: 0x8, addend: 0x0, symName: __ZNSt3__122__compressed_pair_elemINS_12basic_stringIcNS_11char_traitsIcEENS_9allocatorIcEEE5__repELi0ELb0EEC2B8ne180100ENS_16__value_init_tagE, symObjAddr: 0xC970, symBinAddr: 0x10000DE40, symSize: 0x60 }
  - { offset: 0x1B030, size: 0x8, addend: 0x0, symName: __ZNSt3__119basic_istringstreamIcNS_11char_traitsIcEENS_9allocatorIcEEED2Ev, symObjAddr: 0xC9D0, symBinAddr: 0x10000DEA0, symSize: 0x190 }
  - { offset: 0x1B06A, size: 0x8, addend: 0x0, symName: __ZTv0_n24_NSt3__119basic_istringstreamIcNS_11char_traitsIcEENS_9allocatorIcEEED1Ev, symObjAddr: 0xCB60, symBinAddr: 0x10000E030, symSize: 0x90 }
  - { offset: 0x1B087, size: 0x8, addend: 0x0, symName: __ZNSt3__115basic_stringbufIcNS_11char_traitsIcEENS_9allocatorIcEEED1Ev, symObjAddr: 0xCBF0, symBinAddr: 0x10000E0C0, symSize: 0x50 }
  - { offset: 0x1B0B4, size: 0x8, addend: 0x0, symName: __ZNSt3__115basic_stringbufIcNS_11char_traitsIcEENS_9allocatorIcEEED2Ev, symObjAddr: 0xCC40, symBinAddr: 0x10000E110, symSize: 0xA0 }
  - { offset: 0x1B0E1, size: 0x8, addend: 0x0, symName: __ZNSt3__114basic_ifstreamIcNS_11char_traitsIcEEED2Ev, symObjAddr: 0xCCE0, symBinAddr: 0x10000E1B0, symSize: 0x190 }
  - { offset: 0x1B11B, size: 0x8, addend: 0x0, symName: __ZTv0_n24_NSt3__114basic_ifstreamIcNS_11char_traitsIcEEED1Ev, symObjAddr: 0xCE70, symBinAddr: 0x10000E340, symSize: 0x98 }
  - { offset: 0x1B13D, size: 0x8, addend: 0x0, symName: __ZNKSt3__16__lessIvvEclB8ne180100INS_12basic_stringIcNS_11char_traitsIcEENS_9allocatorIcEEEES8_EEbRKT_RKT0_, symObjAddr: 0xD5E0, symBinAddr: 0x10000EAB0, symSize: 0x200 }
  - { offset: 0x1B1A6, size: 0x8, addend: 0x0, symName: __ZNSt3__115insert_iteratorINS_3setINS_12basic_stringIcNS_11char_traitsIcEENS_9allocatorIcEEEENS_4lessIS7_EENS5_IS7_EEEEEdeB8ne180100Ev, symObjAddr: 0xD7E0, symBinAddr: 0x10000ECB0, symSize: 0x80 }
  - { offset: 0x1B1CC, size: 0x8, addend: 0x0, symName: __ZNSt3__115insert_iteratorINS_3setINS_12basic_stringIcNS_11char_traitsIcEENS_9allocatorIcEEEENS_4lessIS7_EENS5_IS7_EEEEEaSB8ne180100ERKS7_, symObjAddr: 0xD860, symBinAddr: 0x10000ED30, symSize: 0x1A0 }
  - { offset: 0x1B200, size: 0x8, addend: 0x0, symName: __ZNSt3__115insert_iteratorINS_3setINS_12basic_stringIcNS_11char_traitsIcEENS_9allocatorIcEEEENS_4lessIS7_EENS5_IS7_EEEEEppB8ne180100Ev, symObjAddr: 0xDA00, symBinAddr: 0x10000EED0, symSize: 0x88 }
  - { offset: 0x1B226, size: 0x8, addend: 0x0, symName: __ZNSt3__18_IterOpsINS_17_ClassicAlgPolicyEE4nextB8ne180100INS_21__tree_const_iteratorINS_12basic_stringIcNS_11char_traitsIcEENS_9allocatorIcEEEEPNS_11__tree_nodeISA_PvEElEEEET_SG_SG_, symObjAddr: 0xDA88, symBinAddr: 0x10000EF58, symSize: 0x38 }
  - { offset: 0x1B26E, size: 0x8, addend: 0x0, symName: __ZNSt3__125__set_intersection_resultINS_21__tree_const_iteratorINS_12basic_stringIcNS_11char_traitsIcEENS_9allocatorIcEEEEPNS_11__tree_nodeIS7_PvEElEESC_NS_15insert_iteratorINS_3setIS7_NS_4lessIS7_EENS5_IS7_EEEEEEEC1B8ne180100EOSC_SL_OSJ_, symObjAddr: 0xDAC0, symBinAddr: 0x10000EF90, symSize: 0x78 }
  - { offset: 0x1B2D2, size: 0x8, addend: 0x0, symName: __ZNSt3__120_CmpUnspecifiedParamC1B8ne180100EMS0_i, symObjAddr: 0xDC10, symBinAddr: 0x10000F0E0, symSize: 0x58 }
  - { offset: 0x1B306, size: 0x8, addend: 0x0, symName: __ZNKSt3__112basic_stringIcNS_11char_traitsIcEENS_9allocatorIcEEEcvNS_17basic_string_viewIcS2_EEB8ne180100Ev, symObjAddr: 0xDE50, symBinAddr: 0x10000F320, symSize: 0x1B0 }
  - { offset: 0x1B32D, size: 0x8, addend: 0x0, symName: __ZNKSt3__117basic_string_viewIcNS_11char_traitsIcEEE7compareES3_, symObjAddr: 0xE000, symBinAddr: 0x10000F4D0, symSize: 0x378 }
  - { offset: 0x1B387, size: 0x8, addend: 0x0, symName: __ZNKSt3__117basic_string_viewIcNS_11char_traitsIcEEE4sizeB8ne180100Ev, symObjAddr: 0xE440, symBinAddr: 0x10000F910, symSize: 0x88 }
  - { offset: 0x1B3AD, size: 0x8, addend: 0x0, symName: __ZNSt3__111char_traitsIcE7compareB8ne180100EPKcS3_m, symObjAddr: 0xE4C8, symBinAddr: 0x10000F998, symSize: 0x38 }
  - { offset: 0x1B3EC, size: 0x8, addend: 0x0, symName: __ZNKSt3__117basic_string_viewIcNS_11char_traitsIcEEE4dataB8ne180100Ev, symObjAddr: 0xE500, symBinAddr: 0x10000F9D0, symSize: 0x88 }
  - { offset: 0x1B412, size: 0x8, addend: 0x0, symName: __ZNKSt3__16__lessIvvEclB8ne180100ImmEEbRKT_RKT0_, symObjAddr: 0xE7A0, symBinAddr: 0x10000FC70, symSize: 0xC0 }
  - { offset: 0x1B466, size: 0x8, addend: 0x0, symName: __ZNSt3__117basic_string_viewIcNS_11char_traitsIcEEEC1B8ne180100EPKcm, symObjAddr: 0xE860, symBinAddr: 0x10000FD30, symSize: 0x60 }
  - { offset: 0x1B4AE, size: 0x8, addend: 0x0, symName: __ZNSt3__117basic_string_viewIcNS_11char_traitsIcEEEC2B8ne180100EPKcm, symObjAddr: 0xE8C0, symBinAddr: 0x10000FD90, symSize: 0xD0 }
  - { offset: 0x1B4F6, size: 0x8, addend: 0x0, symName: __ZNSt3__120_CmpUnspecifiedParamC2B8ne180100EMS0_i, symObjAddr: 0xE990, symBinAddr: 0x10000FE60, symSize: 0x40 }
  - { offset: 0x1B52A, size: 0x8, addend: 0x0, symName: __ZNSt3__13setINS_12basic_stringIcNS_11char_traitsIcEENS_9allocatorIcEEEENS_4lessIS6_EENS4_IS6_EEE6insertB8ne180100ENS_21__tree_const_iteratorIS6_PNS_11__tree_nodeIS6_PvEElEERKS6_, symObjAddr: 0xE9D0, symBinAddr: 0x10000FEA0, symSize: 0x250 }
  - { offset: 0x1B571, size: 0x8, addend: 0x0, symName: __ZNSt3__16__treeINS_12basic_stringIcNS_11char_traitsIcEENS_9allocatorIcEEEENS_4lessIS6_EENS4_IS6_EEE15__insert_uniqueB8ne180100ENS_21__tree_const_iteratorIS6_PNS_11__tree_nodeIS6_PvEElEERKS6_, symObjAddr: 0xEC20, symBinAddr: 0x1000100F0, symSize: 0x140 }
  - { offset: 0x1B5B5, size: 0x8, addend: 0x0, symName: __ZNSt3__121__tree_const_iteratorINS_12basic_stringIcNS_11char_traitsIcEENS_9allocatorIcEEEEPNS_11__tree_nodeIS6_PvEElEC1B8ne180100ENS_15__tree_iteratorIS6_SA_lEE, symObjAddr: 0xED60, symBinAddr: 0x100010230, symSize: 0x60 }
  - { offset: 0x1B5EE, size: 0x8, addend: 0x0, symName: __ZNSt3__16__treeINS_12basic_stringIcNS_11char_traitsIcEENS_9allocatorIcEEEENS_4lessIS6_EENS4_IS6_EEE30__emplace_hint_unique_key_argsIS6_JRKS6_EEENS_4pairINS_15__tree_iteratorIS6_PNS_11__tree_nodeIS6_PvEElEEbEENS_21__tree_const_iteratorIS6_SJ_lEERKT_DpOT0_, symObjAddr: 0xEDC0, symBinAddr: 0x100010290, symSize: 0x5D8 }
  - { offset: 0x1B6D5, size: 0x8, addend: 0x0, symName: __ZNSt3__122__tree_key_value_typesINS_12basic_stringIcNS_11char_traitsIcEENS_9allocatorIcEEEEE9__get_keyB8ne180100ERKS6_, symObjAddr: 0xF398, symBinAddr: 0x100010868, symSize: 0x58 }
  - { offset: 0x1B6F9, size: 0x8, addend: 0x0, symName: __ZNSt3__16__treeINS_12basic_stringIcNS_11char_traitsIcEENS_9allocatorIcEEEENS_4lessIS6_EENS4_IS6_EEE12__find_equalIS6_EERPNS_16__tree_node_baseIPvEENS_21__tree_const_iteratorIS6_PNS_11__tree_nodeIS6_SD_EElEERPNS_15__tree_end_nodeISF_EESG_RKT_, symObjAddr: 0xF3F0, symBinAddr: 0x1000108C0, symSize: 0x1110 }
  - { offset: 0x1B7AF, size: 0x8, addend: 0x0, symName: __ZNSt3__16__treeINS_12basic_stringIcNS_11char_traitsIcEENS_9allocatorIcEEEENS_4lessIS6_EENS4_IS6_EEE16__construct_nodeIJRKS6_EEENS_10unique_ptrINS_11__tree_nodeIS6_PvEENS_22__tree_node_destructorINS4_ISH_EEEEEEDpOT_, symObjAddr: 0x10500, symBinAddr: 0x1000119D0, symSize: 0x5C0 }
  - { offset: 0x1B812, size: 0x8, addend: 0x0, symName: __ZNSt3__16__treeINS_12basic_stringIcNS_11char_traitsIcEENS_9allocatorIcEEEENS_4lessIS6_EENS4_IS6_EEE16__insert_node_atEPNS_15__tree_end_nodeIPNS_16__tree_node_baseIPvEEEERSF_SF_, symObjAddr: 0x10AC0, symBinAddr: 0x100011F90, symSize: 0x6C0 }
  - { offset: 0x1B867, size: 0x8, addend: 0x0, symName: __ZNKSt3__110unique_ptrINS_11__tree_nodeINS_12basic_stringIcNS_11char_traitsIcEENS_9allocatorIcEEEEPvEENS_22__tree_node_destructorINS5_IS9_EEEEE3getB8ne180100Ev, symObjAddr: 0x11180, symBinAddr: 0x100012650, symSize: 0xF0 }
  - { offset: 0x1B88D, size: 0x8, addend: 0x0, symName: __ZNSt3__110unique_ptrINS_11__tree_nodeINS_12basic_stringIcNS_11char_traitsIcEENS_9allocatorIcEEEEPvEENS_22__tree_node_destructorINS5_IS9_EEEEE7releaseB8ne180100Ev, symObjAddr: 0x11270, symBinAddr: 0x100012740, symSize: 0x190 }
  - { offset: 0x1B8C2, size: 0x8, addend: 0x0, symName: __ZNSt3__110unique_ptrINS_11__tree_nodeINS_12basic_stringIcNS_11char_traitsIcEENS_9allocatorIcEEEEPvEENS_22__tree_node_destructorINS5_IS9_EEEEED1B8ne180100Ev, symObjAddr: 0x11400, symBinAddr: 0x1000128D0, symSize: 0x50 }
  - { offset: 0x1B8EC, size: 0x8, addend: 0x0, symName: __ZNSt3__115__tree_iteratorINS_12basic_stringIcNS_11char_traitsIcEENS_9allocatorIcEEEEPNS_11__tree_nodeIS6_PvEElEC1B8ne180100ESA_, symObjAddr: 0x11450, symBinAddr: 0x100012920, symSize: 0x60 }
  - { offset: 0x1B92B, size: 0x8, addend: 0x0, symName: __ZNSt3__14pairINS_15__tree_iteratorINS_12basic_stringIcNS_11char_traitsIcEENS_9allocatorIcEEEEPNS_11__tree_nodeIS7_PvEElEEbEC1B8ne180100ISC_RbTnNS_9enable_ifIXclsr10_CheckArgsE17__enable_implicitIT_T0_EEEiE4typeELi0EEEOSH_OSI_, symObjAddr: 0x114B0, symBinAddr: 0x100012980, symSize: 0x68 }
  - { offset: 0x1B989, size: 0x8, addend: 0x0, symName: __ZNSt3__16__treeINS_12basic_stringIcNS_11char_traitsIcEENS_9allocatorIcEEEENS_4lessIS6_EENS4_IS6_EEE3endB8ne180100Ev, symObjAddr: 0x115F0, symBinAddr: 0x100012AC0, symSize: 0x190 }
  - { offset: 0x1B9B0, size: 0x8, addend: 0x0, symName: __ZNSt3__16__treeINS_12basic_stringIcNS_11char_traitsIcEENS_9allocatorIcEEEENS_4lessIS6_EENS4_IS6_EEE10value_compB8ne180100Ev, symObjAddr: 0x11780, symBinAddr: 0x100012C50, symSize: 0xB0 }
  - { offset: 0x1B9D6, size: 0x8, addend: 0x0, symName: __ZNKSt3__14lessINS_12basic_stringIcNS_11char_traitsIcEENS_9allocatorIcEEEEEclB8ne180100ERKS6_S9_, symObjAddr: 0x11830, symBinAddr: 0x100012D00, symSize: 0x200 }
  - { offset: 0x1BA1D, size: 0x8, addend: 0x0, symName: __ZNSt3__16__treeINS_12basic_stringIcNS_11char_traitsIcEENS_9allocatorIcEEEENS_4lessIS6_EENS4_IS6_EEE5beginB8ne180100Ev, symObjAddr: 0x11A30, symBinAddr: 0x100012F00, symSize: 0x1F0 }
  - { offset: 0x1BA44, size: 0x8, addend: 0x0, symName: __ZNSt3__121__tree_const_iteratorINS_12basic_stringIcNS_11char_traitsIcEENS_9allocatorIcEEEEPNS_11__tree_nodeIS6_PvEElEmmB8ne180100Ev, symObjAddr: 0x11C20, symBinAddr: 0x1000130F0, symSize: 0x120 }
  - { offset: 0x1BA6A, size: 0x8, addend: 0x0, symName: __ZNSt3__16__treeINS_12basic_stringIcNS_11char_traitsIcEENS_9allocatorIcEEEENS_4lessIS6_EENS4_IS6_EEE12__find_equalIS6_EERPNS_16__tree_node_baseIPvEERPNS_15__tree_end_nodeISF_EERKT_, symObjAddr: 0x11D40, symBinAddr: 0x100013210, symSize: 0xB98 }
  - { offset: 0x1BAD5, size: 0x8, addend: 0x0, symName: __ZNKSt3__121__tree_const_iteratorINS_12basic_stringIcNS_11char_traitsIcEENS_9allocatorIcEEEEPNS_11__tree_nodeIS6_PvEElE8__get_npB8ne180100Ev, symObjAddr: 0x12A50, symBinAddr: 0x100013F20, symSize: 0xB0 }
  - { offset: 0x1BAFB, size: 0x8, addend: 0x0, symName: __ZNSt3__16__treeINS_12basic_stringIcNS_11char_traitsIcEENS_9allocatorIcEEEENS_4lessIS6_EENS4_IS6_EEE10__end_nodeB8ne180100Ev, symObjAddr: 0x12B00, symBinAddr: 0x100013FD0, symSize: 0xD0 }
  - { offset: 0x1BB21, size: 0x8, addend: 0x0, symName: __ZNSt3__115__tree_iteratorINS_12basic_stringIcNS_11char_traitsIcEENS_9allocatorIcEEEEPNS_11__tree_nodeIS6_PvEElEC1B8ne180100EPNS_15__tree_end_nodeIPNS_16__tree_node_baseIS8_EEEE, symObjAddr: 0x12BD0, symBinAddr: 0x1000140A0, symSize: 0x68 }
  - { offset: 0x1BB5A, size: 0x8, addend: 0x0, symName: __ZNSt3__114pointer_traitsIPNS_15__tree_end_nodeIPNS_16__tree_node_baseIPvEEEEE10pointer_toB8ne180100ERS6_, symObjAddr: 0x12C38, symBinAddr: 0x100014108, symSize: 0x18 }
  - { offset: 0x1BB7D, size: 0x8, addend: 0x0, symName: __ZNSt3__117__compressed_pairINS_15__tree_end_nodeIPNS_16__tree_node_baseIPvEEEENS_9allocatorINS_11__tree_nodeINS_12basic_stringIcNS_11char_traitsIcEENS7_IcEEEES3_EEEEE5firstB8ne180100Ev, symObjAddr: 0x12C50, symBinAddr: 0x100014120, symSize: 0xE0 }
  - { offset: 0x1BBA3, size: 0x8, addend: 0x0, symName: __ZNSt3__122__compressed_pair_elemINS_15__tree_end_nodeIPNS_16__tree_node_baseIPvEEEELi0ELb0EE5__getB8ne180100Ev, symObjAddr: 0x12D30, symBinAddr: 0x100014200, symSize: 0x80 }
  - { offset: 0x1BBC9, size: 0x8, addend: 0x0, symName: __ZNSt3__115__tree_iteratorINS_12basic_stringIcNS_11char_traitsIcEENS_9allocatorIcEEEEPNS_11__tree_nodeIS6_PvEElEC2B8ne180100EPNS_15__tree_end_nodeIPNS_16__tree_node_baseIS8_EEEE, symObjAddr: 0x12DB0, symBinAddr: 0x100014280, symSize: 0x90 }
  - { offset: 0x1BC02, size: 0x8, addend: 0x0, symName: __ZNSt3__117__compressed_pairImNS_4lessINS_12basic_stringIcNS_11char_traitsIcEENS_9allocatorIcEEEEEEE6secondB8ne180100Ev, symObjAddr: 0x12E40, symBinAddr: 0x100014310, symSize: 0xC0 }
  - { offset: 0x1BC28, size: 0x8, addend: 0x0, symName: __ZNSt3__122__compressed_pair_elemINS_4lessINS_12basic_stringIcNS_11char_traitsIcEENS_9allocatorIcEEEEEELi1ELb1EE5__getB8ne180100Ev, symObjAddr: 0x12F00, symBinAddr: 0x1000143D0, symSize: 0x60 }
  - { offset: 0x1BC4E, size: 0x8, addend: 0x0, symName: __ZNSt3__16__treeINS_12basic_stringIcNS_11char_traitsIcEENS_9allocatorIcEEEENS_4lessIS6_EENS4_IS6_EEE12__begin_nodeB8ne180100Ev, symObjAddr: 0x12F60, symBinAddr: 0x100014430, symSize: 0x88 }
  - { offset: 0x1BC74, size: 0x8, addend: 0x0, symName: __ZNKSt3__116__tree_node_baseIPvE15__parent_unsafeB8ne180100Ev, symObjAddr: 0x13520, symBinAddr: 0x1000149F0, symSize: 0xC0 }
  - { offset: 0x1BC9A, size: 0x8, addend: 0x0, symName: __ZNKSt3__16__treeINS_12basic_stringIcNS_11char_traitsIcEENS_9allocatorIcEEEENS_4lessIS6_EENS4_IS6_EEE6__rootB8ne180100Ev, symObjAddr: 0x135E0, symBinAddr: 0x100014AB0, symSize: 0x120 }
  - { offset: 0x1BCC0, size: 0x8, addend: 0x0, symName: __ZNKSt3__16__treeINS_12basic_stringIcNS_11char_traitsIcEENS_9allocatorIcEEEENS_4lessIS6_EENS4_IS6_EEE10__root_ptrB8ne180100Ev, symObjAddr: 0x13700, symBinAddr: 0x100014BD0, symSize: 0x90 }
  - { offset: 0x1BCE6, size: 0x8, addend: 0x0, symName: __ZNKSt3__16__treeINS_12basic_stringIcNS_11char_traitsIcEENS_9allocatorIcEEEENS_4lessIS6_EENS4_IS6_EEE10__end_nodeB8ne180100Ev, symObjAddr: 0x13790, symBinAddr: 0x100014C60, symSize: 0xD0 }
  - { offset: 0x1BD0C, size: 0x8, addend: 0x0, symName: __ZNKSt3__117__compressed_pairINS_15__tree_end_nodeIPNS_16__tree_node_baseIPvEEEENS_9allocatorINS_11__tree_nodeINS_12basic_stringIcNS_11char_traitsIcEENS7_IcEEEES3_EEEEE5firstB8ne180100Ev, symObjAddr: 0x13860, symBinAddr: 0x100014D30, symSize: 0xE0 }
  - { offset: 0x1BD32, size: 0x8, addend: 0x0, symName: __ZNKSt3__122__compressed_pair_elemINS_15__tree_end_nodeIPNS_16__tree_node_baseIPvEEEELi0ELb0EE5__getB8ne180100Ev, symObjAddr: 0x13940, symBinAddr: 0x100014E10, symSize: 0x88 }
  - { offset: 0x1BD58, size: 0x8, addend: 0x0, symName: __ZNSt3__16__treeINS_12basic_stringIcNS_11char_traitsIcEENS_9allocatorIcEEEENS_4lessIS6_EENS4_IS6_EEE12__node_allocB8ne180100Ev, symObjAddr: 0x13BA0, symBinAddr: 0x100015070, symSize: 0xB8 }
  - { offset: 0x1BD7E, size: 0x8, addend: 0x0, symName: __ZNSt3__116allocator_traitsINS_9allocatorINS_11__tree_nodeINS_12basic_stringIcNS_11char_traitsIcEENS1_IcEEEEPvEEEEE8allocateB8ne180100ERSA_m, symObjAddr: 0x13C58, symBinAddr: 0x100015128, symSize: 0x28 }
  - { offset: 0x1BDB1, size: 0x8, addend: 0x0, symName: __ZNSt3__122__tree_node_destructorINS_9allocatorINS_11__tree_nodeINS_12basic_stringIcNS_11char_traitsIcEENS1_IcEEEEPvEEEEEC1B8ne180100ERSA_b, symObjAddr: 0x13C80, symBinAddr: 0x100015150, symSize: 0xA0 }
  - { offset: 0x1BDFF, size: 0x8, addend: 0x0, symName: __ZNSt3__110unique_ptrINS_11__tree_nodeINS_12basic_stringIcNS_11char_traitsIcEENS_9allocatorIcEEEEPvEENS_22__tree_node_destructorINS5_IS9_EEEEEC1B8ne180100ILb1EvEEPS9_NS_16__dependent_typeINS_27__unique_ptr_deleter_sfinaeISC_EEXT_EE20__good_rval_ref_typeE, symObjAddr: 0x13D20, symBinAddr: 0x1000151F0, symSize: 0x68 }
  - { offset: 0x1BE50, size: 0x8, addend: 0x0, symName: __ZNSt3__116allocator_traitsINS_9allocatorINS_11__tree_nodeINS_12basic_stringIcNS_11char_traitsIcEENS1_IcEEEEPvEEEEE9constructB8ne180100IS7_JRKS7_EvvEEvRSA_PT_DpOT0_, symObjAddr: 0x13D88, symBinAddr: 0x100015258, symSize: 0x70 }
  - { offset: 0x1BEA5, size: 0x8, addend: 0x0, symName: __ZNSt3__122__tree_key_value_typesINS_12basic_stringIcNS_11char_traitsIcEENS_9allocatorIcEEEEE9__get_ptrB8ne180100ERS6_, symObjAddr: 0x13DF8, symBinAddr: 0x1000152C8, symSize: 0x18 }
  - { offset: 0x1BEC9, size: 0x8, addend: 0x0, symName: __ZNKSt3__110unique_ptrINS_11__tree_nodeINS_12basic_stringIcNS_11char_traitsIcEENS_9allocatorIcEEEEPvEENS_22__tree_node_destructorINS5_IS9_EEEEEptB8ne180100Ev, symObjAddr: 0x13E10, symBinAddr: 0x1000152E0, symSize: 0xF0 }
  - { offset: 0x1BEEF, size: 0x8, addend: 0x0, symName: __ZNSt3__110unique_ptrINS_11__tree_nodeINS_12basic_stringIcNS_11char_traitsIcEENS_9allocatorIcEEEEPvEENS_22__tree_node_destructorINS5_IS9_EEEEE11get_deleterB8ne180100Ev, symObjAddr: 0x13F00, symBinAddr: 0x1000153D0, symSize: 0xC0 }
  - { offset: 0x1BF15, size: 0x8, addend: 0x0, symName: __ZNSt3__117__compressed_pairINS_15__tree_end_nodeIPNS_16__tree_node_baseIPvEEEENS_9allocatorINS_11__tree_nodeINS_12basic_stringIcNS_11char_traitsIcEENS7_IcEEEES3_EEEEE6secondB8ne180100Ev, symObjAddr: 0x13FC0, symBinAddr: 0x100015490, symSize: 0xC0 }
  - { offset: 0x1BF3B, size: 0x8, addend: 0x0, symName: __ZNSt3__122__compressed_pair_elemINS_9allocatorINS_11__tree_nodeINS_12basic_stringIcNS_11char_traitsIcEENS1_IcEEEEPvEEEELi1ELb1EE5__getB8ne180100Ev, symObjAddr: 0x14080, symBinAddr: 0x100015550, symSize: 0x60 }
  - { offset: 0x1BF61, size: 0x8, addend: 0x0, symName: __ZNSt3__19allocatorINS_11__tree_nodeINS_12basic_stringIcNS_11char_traitsIcEENS0_IcEEEEPvEEE8allocateB8ne180100Em, symObjAddr: 0x140E0, symBinAddr: 0x1000155B0, symSize: 0xB8 }
  - { offset: 0x1BFA0, size: 0x8, addend: 0x0, symName: __ZNSt3__116allocator_traitsINS_9allocatorINS_11__tree_nodeINS_12basic_stringIcNS_11char_traitsIcEENS1_IcEEEEPvEEEEE8max_sizeB8ne180100ISA_vvEEmRKSA_, symObjAddr: 0x14198, symBinAddr: 0x100015668, symSize: 0x50 }
  - { offset: 0x1BFCC, size: 0x8, addend: 0x0, symName: __ZNSt3__114numeric_limitsImE3maxB8ne180100Ev, symObjAddr: 0x142D8, symBinAddr: 0x1000157A8, symSize: 0x20 }
  - { offset: 0x1BFE0, size: 0x8, addend: 0x0, symName: __ZNSt3__123__libcpp_numeric_limitsImLb1EE3maxB8ne180100Ev, symObjAddr: 0x142F8, symBinAddr: 0x1000157C8, symSize: 0x20 }
  - { offset: 0x1BFF4, size: 0x8, addend: 0x0, symName: __ZNSt3__122__tree_node_destructorINS_9allocatorINS_11__tree_nodeINS_12basic_stringIcNS_11char_traitsIcEENS1_IcEEEEPvEEEEEC2B8ne180100ERSA_b, symObjAddr: 0x143B0, symBinAddr: 0x100015880, symSize: 0x130 }
  - { offset: 0x1C03C, size: 0x8, addend: 0x0, symName: __ZNSt3__110unique_ptrINS_11__tree_nodeINS_12basic_stringIcNS_11char_traitsIcEENS_9allocatorIcEEEEPvEENS_22__tree_node_destructorINS5_IS9_EEEEEC2B8ne180100ILb1EvEEPS9_NS_16__dependent_typeINS_27__unique_ptr_deleter_sfinaeISC_EEXT_EE20__good_rval_ref_typeE, symObjAddr: 0x144E0, symBinAddr: 0x1000159B0, symSize: 0x1E0 }
  - { offset: 0x1C093, size: 0x8, addend: 0x0, symName: __ZNSt3__117__compressed_pairIPNS_11__tree_nodeINS_12basic_stringIcNS_11char_traitsIcEENS_9allocatorIcEEEEPvEENS_22__tree_node_destructorINS5_IS9_EEEEEC1B8ne180100IRSA_SD_EEOT_OT0_, symObjAddr: 0x146C0, symBinAddr: 0x100015B90, symSize: 0x60 }
  - { offset: 0x1C0EB, size: 0x8, addend: 0x0, symName: __ZNSt3__117__compressed_pairIPNS_11__tree_nodeINS_12basic_stringIcNS_11char_traitsIcEENS_9allocatorIcEEEEPvEENS_22__tree_node_destructorINS5_IS9_EEEEEC2B8ne180100IRSA_SD_EEOT_OT0_, symObjAddr: 0x14720, symBinAddr: 0x100015BF0, symSize: 0x140 }
  - { offset: 0x1C143, size: 0x8, addend: 0x0, symName: __ZNSt3__122__compressed_pair_elemIPNS_11__tree_nodeINS_12basic_stringIcNS_11char_traitsIcEENS_9allocatorIcEEEEPvEELi0ELb0EEC2B8ne180100IRSA_vEEOT_, symObjAddr: 0x14860, symBinAddr: 0x100015D30, symSize: 0xF0 }
  - { offset: 0x1C185, size: 0x8, addend: 0x0, symName: __ZNSt3__122__compressed_pair_elemINS_22__tree_node_destructorINS_9allocatorINS_11__tree_nodeINS_12basic_stringIcNS_11char_traitsIcEENS2_IcEEEEPvEEEEEELi1ELb0EEC2B8ne180100ISC_vEEOT_, symObjAddr: 0x14950, symBinAddr: 0x100015E20, symSize: 0x68 }
  - { offset: 0x1C1C7, size: 0x8, addend: 0x0, symName: __ZNKSt3__117__compressed_pairIPNS_11__tree_nodeINS_12basic_stringIcNS_11char_traitsIcEENS_9allocatorIcEEEEPvEENS_22__tree_node_destructorINS5_IS9_EEEEE5firstB8ne180100Ev, symObjAddr: 0x14B00, symBinAddr: 0x100015FD0, symSize: 0xE0 }
  - { offset: 0x1C1ED, size: 0x8, addend: 0x0, symName: __ZNKSt3__122__compressed_pair_elemIPNS_11__tree_nodeINS_12basic_stringIcNS_11char_traitsIcEENS_9allocatorIcEEEEPvEELi0ELb0EE5__getB8ne180100Ev, symObjAddr: 0x14BE0, symBinAddr: 0x1000160B0, symSize: 0x80 }
  - { offset: 0x1C213, size: 0x8, addend: 0x0, symName: __ZNSt3__117__compressed_pairIPNS_11__tree_nodeINS_12basic_stringIcNS_11char_traitsIcEENS_9allocatorIcEEEEPvEENS_22__tree_node_destructorINS5_IS9_EEEEE6secondB8ne180100Ev, symObjAddr: 0x14C60, symBinAddr: 0x100016130, symSize: 0xE0 }
  - { offset: 0x1C239, size: 0x8, addend: 0x0, symName: __ZNSt3__122__compressed_pair_elemINS_22__tree_node_destructorINS_9allocatorINS_11__tree_nodeINS_12basic_stringIcNS_11char_traitsIcEENS2_IcEEEEPvEEEEEELi1ELb0EE5__getB8ne180100Ev, symObjAddr: 0x14D40, symBinAddr: 0x100016210, symSize: 0x88 }
  - { offset: 0x1C25F, size: 0x8, addend: 0x0, symName: __ZNSt3__16__treeINS_12basic_stringIcNS_11char_traitsIcEENS_9allocatorIcEEEENS_4lessIS6_EENS4_IS6_EEE4sizeB8ne180100Ev, symObjAddr: 0x16180, symBinAddr: 0x100017650, symSize: 0xC8 }
  - { offset: 0x1C285, size: 0x8, addend: 0x0, symName: __ZNSt3__116__tree_node_baseIPvE12__set_parentB8ne180100EPS2_, symObjAddr: 0x173D0, symBinAddr: 0x1000188A0, symSize: 0xC0 }
  - { offset: 0x1C2BA, size: 0x8, addend: 0x0, symName: __ZNSt3__117__compressed_pairImNS_4lessINS_12basic_stringIcNS_11char_traitsIcEENS_9allocatorIcEEEEEEE5firstB8ne180100Ev, symObjAddr: 0x17490, symBinAddr: 0x100018960, symSize: 0xE0 }
  - { offset: 0x1C2E0, size: 0x8, addend: 0x0, symName: __ZNSt3__122__compressed_pair_elemImLi0ELb0EE5__getB8ne180100Ev, symObjAddr: 0x17570, symBinAddr: 0x100018A40, symSize: 0x80 }
  - { offset: 0x1C306, size: 0x8, addend: 0x0, symName: __ZNSt3__117__compressed_pairIPNS_11__tree_nodeINS_12basic_stringIcNS_11char_traitsIcEENS_9allocatorIcEEEEPvEENS_22__tree_node_destructorINS5_IS9_EEEEE5firstB8ne180100Ev, symObjAddr: 0x175F0, symBinAddr: 0x100018AC0, symSize: 0xE0 }
  - { offset: 0x1C32C, size: 0x8, addend: 0x0, symName: __ZNSt3__122__compressed_pair_elemIPNS_11__tree_nodeINS_12basic_stringIcNS_11char_traitsIcEENS_9allocatorIcEEEEPvEELi0ELb0EE5__getB8ne180100Ev, symObjAddr: 0x176D0, symBinAddr: 0x100018BA0, symSize: 0x80 }
  - { offset: 0x1C352, size: 0x8, addend: 0x0, symName: __ZNSt3__110unique_ptrINS_11__tree_nodeINS_12basic_stringIcNS_11char_traitsIcEENS_9allocatorIcEEEEPvEENS_22__tree_node_destructorINS5_IS9_EEEEED2B8ne180100Ev, symObjAddr: 0x17750, symBinAddr: 0x100018C20, symSize: 0x60 }
  - { offset: 0x1C37C, size: 0x8, addend: 0x0, symName: __ZNSt3__110unique_ptrINS_11__tree_nodeINS_12basic_stringIcNS_11char_traitsIcEENS_9allocatorIcEEEEPvEENS_22__tree_node_destructorINS5_IS9_EEEEE5resetB8ne180100EPS9_, symObjAddr: 0x177B0, symBinAddr: 0x100018C80, symSize: 0x220 }
  - { offset: 0x1C3C0, size: 0x8, addend: 0x0, symName: __ZNSt3__122__tree_node_destructorINS_9allocatorINS_11__tree_nodeINS_12basic_stringIcNS_11char_traitsIcEENS1_IcEEEEPvEEEEEclB8ne180100EPS9_, symObjAddr: 0x179D0, symBinAddr: 0x100018EA0, symSize: 0x228 }
  - { offset: 0x1C3F5, size: 0x8, addend: 0x0, symName: __ZNSt3__116allocator_traitsINS_9allocatorINS_11__tree_nodeINS_12basic_stringIcNS_11char_traitsIcEENS1_IcEEEEPvEEEEE7destroyB8ne180100IS7_vvEEvRSA_PT_, symObjAddr: 0x17BF8, symBinAddr: 0x1000190C8, symSize: 0x30 }
  - { offset: 0x1C430, size: 0x8, addend: 0x0, symName: __ZNSt3__116allocator_traitsINS_9allocatorINS_11__tree_nodeINS_12basic_stringIcNS_11char_traitsIcEENS1_IcEEEEPvEEEEE10deallocateB8ne180100ERSA_PS9_m, symObjAddr: 0x17C28, symBinAddr: 0x1000190F8, symSize: 0x40 }
  - { offset: 0x1C472, size: 0x8, addend: 0x0, symName: __ZNSt3__19allocatorINS_11__tree_nodeINS_12basic_stringIcNS_11char_traitsIcEENS0_IcEEEEPvEEE10deallocateB8ne180100EPS8_m, symObjAddr: 0x17CC0, symBinAddr: 0x100019190, symSize: 0x70 }
  - { offset: 0x1C4B4, size: 0x8, addend: 0x0, symName: __ZNSt3__115__tree_iteratorINS_12basic_stringIcNS_11char_traitsIcEENS_9allocatorIcEEEEPNS_11__tree_nodeIS6_PvEElEC2B8ne180100ESA_, symObjAddr: 0x17D30, symBinAddr: 0x100019200, symSize: 0xC0 }
  - { offset: 0x1C4ED, size: 0x8, addend: 0x0, symName: __ZNSt3__14pairINS_15__tree_iteratorINS_12basic_stringIcNS_11char_traitsIcEENS_9allocatorIcEEEEPNS_11__tree_nodeIS7_PvEElEEbEC2B8ne180100ISC_RbTnNS_9enable_ifIXclsr10_CheckArgsE17__enable_implicitIT_T0_EEEiE4typeELi0EEEOSH_OSI_, symObjAddr: 0x17DF0, symBinAddr: 0x1000192C0, symSize: 0x150 }
  - { offset: 0x1C54B, size: 0x8, addend: 0x0, symName: __ZNSt3__121__tree_const_iteratorINS_12basic_stringIcNS_11char_traitsIcEENS_9allocatorIcEEEEPNS_11__tree_nodeIS6_PvEElEC2B8ne180100ENS_15__tree_iteratorIS6_SA_lEE, symObjAddr: 0x17F40, symBinAddr: 0x100019410, symSize: 0x90 }
  - { offset: 0x1C584, size: 0x8, addend: 0x0, symName: __ZNSt3__125__set_intersection_resultINS_21__tree_const_iteratorINS_12basic_stringIcNS_11char_traitsIcEENS_9allocatorIcEEEEPNS_11__tree_nodeIS7_PvEElEESC_NS_15insert_iteratorINS_3setIS7_NS_4lessIS7_EENS5_IS7_EEEEEEEC2B8ne180100EOSC_SL_OSJ_, symObjAddr: 0x17FD0, symBinAddr: 0x1000194A0, symSize: 0x90 }
  - { offset: 0x1C5D8, size: 0x8, addend: 0x0, symName: __ZNSt3__115insert_iteratorINS_3setINS_12basic_stringIcNS_11char_traitsIcEENS_9allocatorIcEEEENS_4lessIS7_EENS5_IS7_EEEEEC1B8ne180100ERSB_NS_21__tree_const_iteratorIS7_PNS_11__tree_nodeIS7_PvEElEE, symObjAddr: 0x18060, symBinAddr: 0x100019530, symSize: 0x60 }
  - { offset: 0x1C61E, size: 0x8, addend: 0x0, symName: __ZNSt3__115insert_iteratorINS_3setINS_12basic_stringIcNS_11char_traitsIcEENS_9allocatorIcEEEENS_4lessIS7_EENS5_IS7_EEEEEC2B8ne180100ERSB_NS_21__tree_const_iteratorIS7_PNS_11__tree_nodeIS7_PvEElEE, symObjAddr: 0x180C0, symBinAddr: 0x100019590, symSize: 0xA8 }
  - { offset: 0x1C68C, size: 0x8, addend: 0x0, symName: __ZNKSt3__111__copy_loopINS_17_ClassicAlgPolicyEEclB8ne180100INS_21__tree_const_iteratorINS_12basic_stringIcNS_11char_traitsIcEENS_9allocatorIcEEEEPNS_11__tree_nodeISA_PvEElEESF_NS_15insert_iteratorINS_3setISA_NS_4lessISA_EENS8_ISA_EEEEEEEENS_4pairIT_T1_EESO_T0_SP_, symObjAddr: 0x18DA0, symBinAddr: 0x10001A270, symSize: 0x2C8 }
  - { offset: 0x1C704, size: 0x8, addend: 0x0, symName: __ZNSt3__119__unwrap_range_implINS_21__tree_const_iteratorINS_12basic_stringIcNS_11char_traitsIcEENS_9allocatorIcEEEEPNS_11__tree_nodeIS7_PvEElEESC_E8__unwrapB8ne180100ESC_SC_, symObjAddr: 0x19298, symBinAddr: 0x10001A768, symSize: 0x240 }
  - { offset: 0x1C737, size: 0x8, addend: 0x0, symName: __ZNSt3__14pairINS_21__tree_const_iteratorINS_12basic_stringIcNS_11char_traitsIcEENS_9allocatorIcEEEEPNS_11__tree_nodeIS7_PvEElEESC_EC1B8ne180100ISC_SC_TnNS_9enable_ifIXclsr10_CheckArgsE17__enable_implicitIT_T0_EEEiE4typeELi0EEEOSG_OSH_, symObjAddr: 0x19510, symBinAddr: 0x10001A9E0, symSize: 0x68 }
  - { offset: 0x1C795, size: 0x8, addend: 0x0, symName: __ZNSt3__118__unwrap_iter_implINS_21__tree_const_iteratorINS_12basic_stringIcNS_11char_traitsIcEENS_9allocatorIcEEEEPNS_11__tree_nodeIS7_PvEElEELb0EE8__unwrapB8ne180100ESC_, symObjAddr: 0x19578, symBinAddr: 0x10001AA48, symSize: 0x28 }
  - { offset: 0x1C7B8, size: 0x8, addend: 0x0, symName: __ZNSt3__14pairINS_21__tree_const_iteratorINS_12basic_stringIcNS_11char_traitsIcEENS_9allocatorIcEEEEPNS_11__tree_nodeIS7_PvEElEESC_EC2B8ne180100ISC_SC_TnNS_9enable_ifIXclsr10_CheckArgsE17__enable_implicitIT_T0_EEEiE4typeELi0EEEOSG_OSH_, symObjAddr: 0x195A0, symBinAddr: 0x10001AA70, symSize: 0x88 }
  - { offset: 0x1C816, size: 0x8, addend: 0x0, symName: __ZNSt3__118__unwrap_iter_implINS_15insert_iteratorINS_3setINS_12basic_stringIcNS_11char_traitsIcEENS_9allocatorIcEEEENS_4lessIS8_EENS6_IS8_EEEEEELb0EE8__unwrapB8ne180100ESD_, symObjAddr: 0x19628, symBinAddr: 0x10001AAF8, symSize: 0x38 }
  - { offset: 0x1C839, size: 0x8, addend: 0x0, symName: __ZNSt3__14pairINS_21__tree_const_iteratorINS_12basic_stringIcNS_11char_traitsIcEENS_9allocatorIcEEEEPNS_11__tree_nodeIS7_PvEElEENS_15insert_iteratorINS_3setIS7_NS_4lessIS7_EENS5_IS7_EEEEEEEC1B8ne180100ISC_SJ_TnNS_9enable_ifIXclsr10_CheckArgsE17__enable_implicitIT_T0_EEEiE4typeELi0EEEOSN_OSO_, symObjAddr: 0x19660, symBinAddr: 0x10001AB30, symSize: 0x60 }
  - { offset: 0x1C897, size: 0x8, addend: 0x0, symName: __ZNSt3__14pairINS_21__tree_const_iteratorINS_12basic_stringIcNS_11char_traitsIcEENS_9allocatorIcEEEEPNS_11__tree_nodeIS7_PvEElEENS_15insert_iteratorINS_3setIS7_NS_4lessIS7_EENS5_IS7_EEEEEEEC2B8ne180100ISC_SJ_TnNS_9enable_ifIXclsr10_CheckArgsE17__enable_implicitIT_T0_EEEiE4typeELi0EEEOSN_OSO_, symObjAddr: 0x196C0, symBinAddr: 0x10001AB90, symSize: 0x88 }
  - { offset: 0x1C8F5, size: 0x8, addend: 0x0, symName: __ZNSt3__119__unwrap_range_implINS_21__tree_const_iteratorINS_12basic_stringIcNS_11char_traitsIcEENS_9allocatorIcEEEEPNS_11__tree_nodeIS7_PvEElEESC_E8__rewrapB8ne180100ESC_SC_, symObjAddr: 0x19748, symBinAddr: 0x10001AC18, symSize: 0x60 }
  - { offset: 0x1C926, size: 0x8, addend: 0x0, symName: __ZNSt3__118__unwrap_iter_implINS_21__tree_const_iteratorINS_12basic_stringIcNS_11char_traitsIcEENS_9allocatorIcEEEEPNS_11__tree_nodeIS7_PvEElEELb0EE8__rewrapB8ne180100ESC_SC_, symObjAddr: 0x19828, symBinAddr: 0x10001ACF8, symSize: 0x40 }
  - { offset: 0x1C953, size: 0x8, addend: 0x0, symName: __ZNSt3__118__unwrap_iter_implINS_15insert_iteratorINS_3setINS_12basic_stringIcNS_11char_traitsIcEENS_9allocatorIcEEEENS_4lessIS8_EENS6_IS8_EEEEEELb0EE8__rewrapB8ne180100ESD_SD_, symObjAddr: 0x19868, symBinAddr: 0x10001AD38, symSize: 0x40 }
  - { offset: 0x1C986, size: 0x8, addend: 0x0, symName: __ZNSt3__118__set_union_resultINS_21__tree_const_iteratorINS_12basic_stringIcNS_11char_traitsIcEENS_9allocatorIcEEEEPNS_11__tree_nodeIS7_PvEElEESC_NS_15insert_iteratorINS_3setIS7_NS_4lessIS7_EENS5_IS7_EEEEEEEC1B8ne180100EOSC_SL_OSJ_, symObjAddr: 0x1A420, symBinAddr: 0x10001B8F0, symSize: 0x70 }
  - { offset: 0x1C9DA, size: 0x8, addend: 0x0, symName: __ZNSt3__118__set_union_resultINS_21__tree_const_iteratorINS_12basic_stringIcNS_11char_traitsIcEENS_9allocatorIcEEEEPNS_11__tree_nodeIS7_PvEElEESC_NS_15insert_iteratorINS_3setIS7_NS_4lessIS7_EENS5_IS7_EEEEEEEC2B8ne180100EOSC_SL_OSJ_, symObjAddr: 0x1A490, symBinAddr: 0x10001B960, symSize: 0x90 }
  - { offset: 0x1CA2E, size: 0x8, addend: 0x0, symName: __ZNSt3__13setINS_12basic_stringIcNS_11char_traitsIcEENS_9allocatorIcEEEENS_4lessIS6_EENS4_IS6_EEEC2B8ne180100Ev, symObjAddr: 0x1A520, symBinAddr: 0x10001B9F0, symSize: 0x180 }
  - { offset: 0x1CA59, size: 0x8, addend: 0x0, symName: __ZNSt3__16__treeINS_12basic_stringIcNS_11char_traitsIcEENS_9allocatorIcEEEENS_4lessIS6_EENS4_IS6_EEEC1ERKS8_, symObjAddr: 0x1A6A0, symBinAddr: 0x10001BB70, symSize: 0x60 }
  - { offset: 0x1CA94, size: 0x8, addend: 0x0, symName: __ZNSt3__16__treeINS_12basic_stringIcNS_11char_traitsIcEENS_9allocatorIcEEEENS_4lessIS6_EENS4_IS6_EEEC2ERKS8_, symObjAddr: 0x1A700, symBinAddr: 0x10001BBD0, symSize: 0x270 }
  - { offset: 0x1CAD1, size: 0x8, addend: 0x0, symName: __ZNSt3__117__compressed_pairINS_15__tree_end_nodeIPNS_16__tree_node_baseIPvEEEENS_9allocatorINS_11__tree_nodeINS_12basic_stringIcNS_11char_traitsIcEENS7_IcEEEES3_EEEEEC1B8ne180100ILb1EvEEv, symObjAddr: 0x1A970, symBinAddr: 0x10001BE40, symSize: 0x50 }
  - { offset: 0x1CB0C, size: 0x8, addend: 0x0, symName: __ZNSt3__117__compressed_pairImNS_4lessINS_12basic_stringIcNS_11char_traitsIcEENS_9allocatorIcEEEEEEEC1B8ne180100IiRKS8_EEOT_OT0_, symObjAddr: 0x1A9C0, symBinAddr: 0x10001BE90, symSize: 0x60 }
  - { offset: 0x1CB64, size: 0x8, addend: 0x0, symName: __ZNSt3__117__compressed_pairINS_15__tree_end_nodeIPNS_16__tree_node_baseIPvEEEENS_9allocatorINS_11__tree_nodeINS_12basic_stringIcNS_11char_traitsIcEENS7_IcEEEES3_EEEEEC2B8ne180100ILb1EvEEv, symObjAddr: 0x1AA20, symBinAddr: 0x10001BEF0, symSize: 0xB0 }
  - { offset: 0x1CB99, size: 0x8, addend: 0x0, symName: __ZNSt3__122__compressed_pair_elemINS_15__tree_end_nodeIPNS_16__tree_node_baseIPvEEEELi0ELb0EEC2B8ne180100ENS_16__value_init_tagE, symObjAddr: 0x1AAD0, symBinAddr: 0x10001BFA0, symSize: 0x50 }
  - { offset: 0x1CBCD, size: 0x8, addend: 0x0, symName: __ZNSt3__122__compressed_pair_elemINS_9allocatorINS_11__tree_nodeINS_12basic_stringIcNS_11char_traitsIcEENS1_IcEEEEPvEEEELi1ELb1EEC2B8ne180100ENS_16__value_init_tagE, symObjAddr: 0x1AB20, symBinAddr: 0x10001BFF0, symSize: 0x60 }
  - { offset: 0x1CC01, size: 0x8, addend: 0x0, symName: __ZNSt3__115__tree_end_nodeIPNS_16__tree_node_baseIPvEEEC1B8ne180100Ev, symObjAddr: 0x1AB80, symBinAddr: 0x10001C050, symSize: 0x50 }
  - { offset: 0x1CC2B, size: 0x8, addend: 0x0, symName: __ZNSt3__115__tree_end_nodeIPNS_16__tree_node_baseIPvEEEC2B8ne180100Ev, symObjAddr: 0x1ABD0, symBinAddr: 0x10001C0A0, symSize: 0x80 }
  - { offset: 0x1CC55, size: 0x8, addend: 0x0, symName: __ZNSt3__19allocatorINS_11__tree_nodeINS_12basic_stringIcNS_11char_traitsIcEENS0_IcEEEEPvEEEC2B8ne180100Ev, symObjAddr: 0x1AC50, symBinAddr: 0x10001C120, symSize: 0x60 }
  - { offset: 0x1CC7F, size: 0x8, addend: 0x0, symName: __ZNSt3__116__non_trivial_ifILb1ENS_9allocatorINS_11__tree_nodeINS_12basic_stringIcNS_11char_traitsIcEENS1_IcEEEEPvEEEEEC2B8ne180100Ev, symObjAddr: 0x1ACB0, symBinAddr: 0x10001C180, symSize: 0x40 }
  - { offset: 0x1CCA9, size: 0x8, addend: 0x0, symName: __ZNSt3__117__compressed_pairImNS_4lessINS_12basic_stringIcNS_11char_traitsIcEENS_9allocatorIcEEEEEEEC2B8ne180100IiRKS8_EEOT_OT0_, symObjAddr: 0x1ACF0, symBinAddr: 0x10001C1C0, symSize: 0x110 }
  - { offset: 0x1CD01, size: 0x8, addend: 0x0, symName: __ZNSt3__122__compressed_pair_elemImLi0ELb0EEC2B8ne180100IivEEOT_, symObjAddr: 0x1AE00, symBinAddr: 0x10001C2D0, symSize: 0x110 }
  - { offset: 0x1CD43, size: 0x8, addend: 0x0, symName: __ZNSt3__122__compressed_pair_elemINS_4lessINS_12basic_stringIcNS_11char_traitsIcEENS_9allocatorIcEEEEEELi1ELb1EEC2B8ne180100IRKS8_vEEOT_, symObjAddr: 0x1AF10, symBinAddr: 0x10001C3E0, symSize: 0x40 }
  - { offset: 0x1CD85, size: 0x8, addend: 0x0, symName: __ZNSt3__13setINS_12basic_stringIcNS_11char_traitsIcEENS_9allocatorIcEEEENS_4lessIS6_EENS4_IS6_EEED2B8ne180100Ev, symObjAddr: 0x1AF50, symBinAddr: 0x10001C420, symSize: 0x50 }
  - { offset: 0x1CDAF, size: 0x8, addend: 0x0, symName: __ZNSt3__16__treeINS_12basic_stringIcNS_11char_traitsIcEENS_9allocatorIcEEEENS_4lessIS6_EENS4_IS6_EEED1Ev, symObjAddr: 0x1AFA0, symBinAddr: 0x10001C470, symSize: 0x50 }
  - { offset: 0x1CDDB, size: 0x8, addend: 0x0, symName: __ZNSt3__16__treeINS_12basic_stringIcNS_11char_traitsIcEENS_9allocatorIcEEEENS_4lessIS6_EENS4_IS6_EEED2Ev, symObjAddr: 0x1AFF0, symBinAddr: 0x10001C4C0, symSize: 0x60 }
  - { offset: 0x1CE07, size: 0x8, addend: 0x0, symName: __ZNSt3__16__treeINS_12basic_stringIcNS_11char_traitsIcEENS_9allocatorIcEEEENS_4lessIS6_EENS4_IS6_EEE7destroyEPNS_11__tree_nodeIS6_PvEE, symObjAddr: 0x1B050, symBinAddr: 0x10001C520, symSize: 0x370 }
  - { offset: 0x1CE53, size: 0x8, addend: 0x0, symName: __ZNSt3__19basic_iosIcNS_11char_traitsIcEEEC2B8ne180100Ev, symObjAddr: 0x1B3C0, symBinAddr: 0x10001C890, symSize: 0xC0 }
  - { offset: 0x1CE7D, size: 0x8, addend: 0x0, symName: __ZNSt3__113basic_istreamIcNS_11char_traitsIcEEEC2B8ne180100EPNS_15basic_streambufIcS2_EE, symObjAddr: 0x1B480, symBinAddr: 0x10001C950, symSize: 0x360 }
  - { offset: 0x1CEC2, size: 0x8, addend: 0x0, symName: __ZNSt3__115basic_stringbufIcNS_11char_traitsIcEENS_9allocatorIcEEEC1B8ne180100ERKNS_12basic_stringIcS2_S4_EEj, symObjAddr: 0x1B7E0, symBinAddr: 0x10001CCB0, symSize: 0x60 }
  - { offset: 0x1CF0A, size: 0x8, addend: 0x0, symName: __ZNSt3__18ios_baseC2B8ne180100Ev, symObjAddr: 0x1B840, symBinAddr: 0x10001CD10, symSize: 0x90 }
  - { offset: 0x1CF34, size: 0x8, addend: 0x0, symName: __ZNSt3__19basic_iosIcNS_11char_traitsIcEEE4initB8ne180100EPNS_15basic_streambufIcS2_EE, symObjAddr: 0x1B8D0, symBinAddr: 0x10001CDA0, symSize: 0x2B8 }
  - { offset: 0x1CF6B, size: 0x8, addend: 0x0, symName: __ZNSt3__111char_traitsIcE3eofB8ne180100Ev, symObjAddr: 0x1BB88, symBinAddr: 0x10001D058, symSize: 0x18 }
  - { offset: 0x1CF7F, size: 0x8, addend: 0x0, symName: __ZNSt3__115basic_stringbufIcNS_11char_traitsIcEENS_9allocatorIcEEEC2B8ne180100ERKNS_12basic_stringIcS2_S4_EEj, symObjAddr: 0x1BBA0, symBinAddr: 0x10001D070, symSize: 0x460 }
  - { offset: 0x1CFCA, size: 0x8, addend: 0x0, symName: __ZNKSt3__112basic_stringIcNS_11char_traitsIcEENS_9allocatorIcEEE13get_allocatorB8ne180100Ev, symObjAddr: 0x1C000, symBinAddr: 0x10001D4D0, symSize: 0x50 }
  - { offset: 0x1CFF0, size: 0x8, addend: 0x0, symName: __ZNSt3__112basic_stringIcNS_11char_traitsIcEENS_9allocatorIcEEEC1B8ne180100ERKS4_, symObjAddr: 0x1C050, symBinAddr: 0x10001D520, symSize: 0x60 }
  - { offset: 0x1D029, size: 0x8, addend: 0x0, symName: __ZNKSt3__112basic_stringIcNS_11char_traitsIcEENS_9allocatorIcEEE7__allocB8ne180100Ev, symObjAddr: 0x1C0B0, symBinAddr: 0x10001D580, symSize: 0xB0 }
  - { offset: 0x1D04F, size: 0x8, addend: 0x0, symName: __ZNKSt3__117__compressed_pairINS_12basic_stringIcNS_11char_traitsIcEENS_9allocatorIcEEE5__repES5_E6secondB8ne180100Ev, symObjAddr: 0x1C160, symBinAddr: 0x10001D630, symSize: 0xC0 }
  - { offset: 0x1D075, size: 0x8, addend: 0x0, symName: __ZNKSt3__122__compressed_pair_elemINS_9allocatorIcEELi1ELb1EE5__getB8ne180100Ev, symObjAddr: 0x1C220, symBinAddr: 0x10001D6F0, symSize: 0x60 }
  - { offset: 0x1D09B, size: 0x8, addend: 0x0, symName: __ZNSt3__112basic_stringIcNS_11char_traitsIcEENS_9allocatorIcEEEC2B8ne180100ERKS4_, symObjAddr: 0x1C280, symBinAddr: 0x10001D750, symSize: 0x1D0 }
  - { offset: 0x1D0D6, size: 0x8, addend: 0x0, symName: __ZNSt3__117__compressed_pairINS_12basic_stringIcNS_11char_traitsIcEENS_9allocatorIcEEE5__repES5_EC1B8ne180100INS_16__value_init_tagERKS5_EEOT_OT0_, symObjAddr: 0x1C450, symBinAddr: 0x10001D920, symSize: 0x60 }
  - { offset: 0x1D12E, size: 0x8, addend: 0x0, symName: __ZNSt3__117__compressed_pairINS_12basic_stringIcNS_11char_traitsIcEENS_9allocatorIcEEE5__repES5_EC2B8ne180100INS_16__value_init_tagERKS5_EEOT_OT0_, symObjAddr: 0x1C4B0, symBinAddr: 0x10001D980, symSize: 0xE0 }
  - { offset: 0x1D186, size: 0x8, addend: 0x0, symName: __ZNSt3__122__compressed_pair_elemINS_9allocatorIcEELi1ELb1EEC2B8ne180100IRKS2_vEEOT_, symObjAddr: 0x1C590, symBinAddr: 0x10001DA60, symSize: 0x40 }
  - { offset: 0x1D1EB, size: 0x8, addend: 0x0, symName: __ZNKSt3__113basic_istreamIcNS_11char_traitsIcEEE6sentrycvbB8ne180100Ev, symObjAddr: 0x1C5D0, symBinAddr: 0x10001DAA0, symSize: 0xB0 }
  - { offset: 0x1D211, size: 0x8, addend: 0x0, symName: __ZNSt3__112basic_stringIcNS_11char_traitsIcEENS_9allocatorIcEEE5clearB8ne180100Ev, symObjAddr: 0x1C680, symBinAddr: 0x10001DB50, symSize: 0x260 }
  - { offset: 0x1D248, size: 0x8, addend: 0x0, symName: __ZNKSt3__18ios_base5widthB8ne180100Ev, symObjAddr: 0x1C8E0, symBinAddr: 0x10001DDB0, symSize: 0x110 }
  - { offset: 0x1D270, size: 0x8, addend: 0x0, symName: __ZNKSt3__112basic_stringIcNS_11char_traitsIcEENS_9allocatorIcEEE8max_sizeB8ne180100Ev, symObjAddr: 0x1C9F0, symBinAddr: 0x10001DEC0, symSize: 0x178 }
  - { offset: 0x1D2C2, size: 0x8, addend: 0x0, symName: __ZNSt3__114numeric_limitsIlE3maxB8ne180100Ev, symObjAddr: 0x1CB68, symBinAddr: 0x10001E038, symSize: 0x20 }
  - { offset: 0x1D2D6, size: 0x8, addend: 0x0, symName: __ZNKSt3__19basic_iosIcNS_11char_traitsIcEEE5rdbufB8ne180100Ev, symObjAddr: 0x1CCE0, symBinAddr: 0x10001E1B0, symSize: 0x100 }
  - { offset: 0x1D2FE, size: 0x8, addend: 0x0, symName: __ZNSt3__115basic_streambufIcNS_11char_traitsIcEEE5sgetcB8ne180100Ev, symObjAddr: 0x1CDE0, symBinAddr: 0x10001E2B0, symSize: 0x408 }
  - { offset: 0x1D324, size: 0x8, addend: 0x0, symName: __ZNSt3__111char_traitsIcE11eq_int_typeB8ne180100Eii, symObjAddr: 0x1D1E8, symBinAddr: 0x10001E6B8, symSize: 0x30 }
  - { offset: 0x1D357, size: 0x8, addend: 0x0, symName: __ZNSt3__111char_traitsIcE12to_char_typeB8ne180100Ei, symObjAddr: 0x1D218, symBinAddr: 0x10001E6E8, symSize: 0x18 }
  - { offset: 0x1D3AE, size: 0x8, addend: 0x0, symName: __ZNKSt3__15ctypeIcE2isB8ne180100Ejc, symObjAddr: 0x1D230, symBinAddr: 0x10001E700, symSize: 0x230 }
  - { offset: 0x1D3F2, size: 0x8, addend: 0x0, symName: __ZNSt3__115basic_streambufIcNS_11char_traitsIcEEE6sbumpcB8ne180100Ev, symObjAddr: 0x1D460, symBinAddr: 0x10001E930, symSize: 0x490 }
  - { offset: 0x1D418, size: 0x8, addend: 0x0, symName: __ZNSt3__18ios_base5widthB8ne180100El, symObjAddr: 0x1D8F0, symBinAddr: 0x10001EDC0, symSize: 0x1E0 }
  - { offset: 0x1D45E, size: 0x8, addend: 0x0, symName: __ZNSt3__18ios_base18__setstate_nothrowB8ne180100Ej, symObjAddr: 0x1DAD0, symBinAddr: 0x10001EFA0, symSize: 0x2F0 }
  - { offset: 0x1D493, size: 0x8, addend: 0x0, symName: __ZNKSt3__19basic_iosIcNS_11char_traitsIcEEE10exceptionsB8ne180100Ev, symObjAddr: 0x1DDC0, symBinAddr: 0x10001F290, symSize: 0x100 }
  - { offset: 0x1D4B9, size: 0x8, addend: 0x0, symName: __ZNSt3__19basic_iosIcNS_11char_traitsIcEEE8setstateB8ne180100Ej, symObjAddr: 0x1DEC0, symBinAddr: 0x10001F390, symSize: 0x100 }
  - { offset: 0x1D4EE, size: 0x8, addend: 0x0, symName: __ZNSt3__112basic_stringIcNS_11char_traitsIcEENS_9allocatorIcEEE15__set_long_sizeB8ne180100Em, symObjAddr: 0x1DFC0, symBinAddr: 0x10001F490, symSize: 0x198 }
  - { offset: 0x1D52E, size: 0x8, addend: 0x0, symName: __ZNSt3__116allocator_traitsINS_9allocatorIcEEE8max_sizeB8ne180100IS2_vvEEmRKS2_, symObjAddr: 0x1E158, symBinAddr: 0x10001F628, symSize: 0x50 }
  - { offset: 0x1D55A, size: 0x8, addend: 0x0, symName: __ZNSt3__123__libcpp_numeric_limitsIlLb1EE3maxB8ne180100Ev, symObjAddr: 0x1E1A8, symBinAddr: 0x10001F678, symSize: 0x18 }
  - { offset: 0x1D56E, size: 0x8, addend: 0x0, symName: __ZNKSt3__18ios_base5rdbufB8ne180100Ev, symObjAddr: 0x1E1C0, symBinAddr: 0x10001F690, symSize: 0x118 }
  - { offset: 0x1D594, size: 0x8, addend: 0x0, symName: __ZNSt3__111char_traitsIcE11to_int_typeB8ne180100Ec, symObjAddr: 0x1E2D8, symBinAddr: 0x10001F7A8, symSize: 0x18 }
  - { offset: 0x1D5B8, size: 0x8, addend: 0x0, symName: __ZNKSt3__18ios_base10exceptionsB8ne180100Ev, symObjAddr: 0x1E2F0, symBinAddr: 0x10001F7C0, symSize: 0x120 }
  - { offset: 0x1D5E0, size: 0x8, addend: 0x0, symName: __ZNSt3__18ios_base8setstateB8ne180100Ej, symObjAddr: 0x1E410, symBinAddr: 0x10001F8E0, symSize: 0x1C0 }
  - { offset: 0x1D617, size: 0x8, addend: 0x0, symName: __ZNKSt3__19basic_iosIcNS_11char_traitsIcEEE4failB8ne180100Ev, symObjAddr: 0x1E5D0, symBinAddr: 0x10001FAA0, symSize: 0x100 }
  - { offset: 0x1D63D, size: 0x8, addend: 0x0, symName: __ZNKSt3__18ios_base4failB8ne180100Ev, symObjAddr: 0x1E6D0, symBinAddr: 0x10001FBA0, symSize: 0x130 }
  - { offset: 0x1D665, size: 0x8, addend: 0x0, symName: __ZNSt3__16__treeINS_12basic_stringIcNS_11char_traitsIcEENS_9allocatorIcEEEENS_4lessIS6_EENS4_IS6_EEE15__insert_uniqueB8ne180100ERKS6_, symObjAddr: 0x1E800, symBinAddr: 0x10001FCD0, symSize: 0x110 }
  - { offset: 0x1D69A, size: 0x8, addend: 0x0, symName: __ZNSt3__14pairINS_21__tree_const_iteratorINS_12basic_stringIcNS_11char_traitsIcEENS_9allocatorIcEEEEPNS_11__tree_nodeIS7_PvEElEEbEC1B8ne180100INS_15__tree_iteratorIS7_SB_lEEbTnNS_9enable_ifIXclsr10_CheckArgsE17__enable_implicitIT_T0_EEEiE4typeELi0EEEONS0_ISI_SJ_EE, symObjAddr: 0x1E910, symBinAddr: 0x10001FDE0, symSize: 0x60 }
  - { offset: 0x1D6EA, size: 0x8, addend: 0x0, symName: __ZNSt3__16__treeINS_12basic_stringIcNS_11char_traitsIcEENS_9allocatorIcEEEENS_4lessIS6_EENS4_IS6_EEE25__emplace_unique_key_argsIS6_JRKS6_EEENS_4pairINS_15__tree_iteratorIS6_PNS_11__tree_nodeIS6_PvEElEEbEERKT_DpOT0_, symObjAddr: 0x1E970, symBinAddr: 0x10001FE40, symSize: 0x530 }
  - { offset: 0x1D7AC, size: 0x8, addend: 0x0, symName: __ZNSt3__14pairINS_21__tree_const_iteratorINS_12basic_stringIcNS_11char_traitsIcEENS_9allocatorIcEEEEPNS_11__tree_nodeIS7_PvEElEEbEC2B8ne180100INS_15__tree_iteratorIS7_SB_lEEbTnNS_9enable_ifIXclsr10_CheckArgsE17__enable_implicitIT_T0_EEEiE4typeELi0EEEONS0_ISI_SJ_EE, symObjAddr: 0x1EEA0, symBinAddr: 0x100020370, symSize: 0x160 }
  - { offset: 0x1D7FC, size: 0x8, addend: 0x0, symName: __ZNSt3__113basic_filebufIcNS_11char_traitsIcEEE4openERKNS_12basic_stringIcS2_NS_9allocatorIcEEEEj, symObjAddr: 0x1F000, symBinAddr: 0x1000204D0, symSize: 0x120 }
  - { offset: 0x1D842, size: 0x8, addend: 0x0, symName: __ZNKSt3__112basic_stringIcNS_11char_traitsIcEENS_9allocatorIcEEE5c_strB8ne180100Ev, symObjAddr: 0x1F120, symBinAddr: 0x1000205F0, symSize: 0x58 }
  - { offset: 0x1D88B, size: 0x8, addend: 0x0, symName: __ZNKSt3__113basic_ostreamIcNS_11char_traitsIcEEE6sentrycvbB8ne180100Ev, symObjAddr: 0x20130, symBinAddr: 0x100021600, symSize: 0xC8 }
  - { offset: 0x1D8B1, size: 0x8, addend: 0x0, symName: __ZNSt3__119ostreambuf_iteratorIcNS_11char_traitsIcEEEC1B8ne180100ERNS_13basic_ostreamIcS2_EE, symObjAddr: 0x20BE0, symBinAddr: 0x1000220B0, symSize: 0x60 }
  - { offset: 0x1D8E9, size: 0x8, addend: 0x0, symName: __ZNKSt3__18ios_base5flagsB8ne180100Ev, symObjAddr: 0x20C40, symBinAddr: 0x100022110, symSize: 0x120 }
  - { offset: 0x1D911, size: 0x8, addend: 0x0, symName: __ZNKSt3__19basic_iosIcNS_11char_traitsIcEEE4fillB8ne180100Ev, symObjAddr: 0x20D60, symBinAddr: 0x100022230, symSize: 0x3A0 }
  - { offset: 0x1D939, size: 0x8, addend: 0x0, symName: __ZNKSt3__119ostreambuf_iteratorIcNS_11char_traitsIcEEE6failedB8ne180100Ev, symObjAddr: 0x21100, symBinAddr: 0x1000225D0, symSize: 0x80 }
  - { offset: 0x1D95F, size: 0x8, addend: 0x0, symName: __ZNSt3__115basic_streambufIcNS_11char_traitsIcEEE5sputnB8ne180100EPKcl, symObjAddr: 0x21180, symBinAddr: 0x100022650, symSize: 0x160 }
  - { offset: 0x1D9A1, size: 0x8, addend: 0x0, symName: __ZNSt3__112basic_stringIcNS_11char_traitsIcEENS_9allocatorIcEEEC1B8ne180100Emc, symObjAddr: 0x212E0, symBinAddr: 0x1000227B0, symSize: 0x60 }
  - { offset: 0x1D9E9, size: 0x8, addend: 0x0, symName: __ZNSt3__112basic_stringIcNS_11char_traitsIcEENS_9allocatorIcEEE4dataB8ne180100Ev, symObjAddr: 0x21340, symBinAddr: 0x100022810, symSize: 0x60 }
  - { offset: 0x1DA0F, size: 0x8, addend: 0x0, symName: __ZNSt3__112basic_stringIcNS_11char_traitsIcEENS_9allocatorIcEEEC2B8ne180100Emc, symObjAddr: 0x213A0, symBinAddr: 0x100022870, symSize: 0x1B8 }
  - { offset: 0x1DA5A, size: 0x8, addend: 0x0, symName: __ZNSt3__119ostreambuf_iteratorIcNS_11char_traitsIcEEEC2B8ne180100ERNS_13basic_ostreamIcS2_EE, symObjAddr: 0x21570, symBinAddr: 0x100022A40, symSize: 0x290 }
  - { offset: 0x1DA92, size: 0x8, addend: 0x0, symName: __ZNKSt3__19basic_iosIcNS_11char_traitsIcEEE5widenB8ne180100Ec, symObjAddr: 0x21800, symBinAddr: 0x100022CD0, symSize: 0x3E0 }
  - { offset: 0x1DACB, size: 0x8, addend: 0x0, symName: __ZNKSt3__15ctypeIcE5widenB8ne180100Ec, symObjAddr: 0x21BE0, symBinAddr: 0x1000230B0, symSize: 0x158 }
  - { offset: 0x1DB00, size: 0x8, addend: 0x0, symName: __ZNSt3__111char_traitsIcE2eqEcc, symObjAddr: 0x22CE8, symBinAddr: 0x1000241B8, symSize: 0x30 }
  - { offset: 0x1DB49, size: 0x8, addend: 0x0, symName: __ZNSt3__16__treeINS_12__value_typeINS_12basic_stringIcNS_11char_traitsIcEENS_9allocatorIcEEEENS_3setIS7_NS_4lessIS7_EENS5_IS7_EEEEEENS_19__map_value_compareIS7_SD_SA_Lb1EEENS5_ISD_EEE25__emplace_unique_key_argsIS7_JRKNS_21piecewise_construct_tENS_5tupleIJRKS7_EEENSM_IJEEEEEENS_4pairINS_15__tree_iteratorISD_PNS_11__tree_nodeISD_PvEElEEbEERKT_DpOT0_, symObjAddr: 0x23160, symBinAddr: 0x100024630, symSize: 0x5B8 }
  - { offset: 0x1DC35, size: 0x8, addend: 0x0, symName: __ZNKSt3__115__tree_iteratorINS_12__value_typeINS_12basic_stringIcNS_11char_traitsIcEENS_9allocatorIcEEEENS_3setIS7_NS_4lessIS7_EENS5_IS7_EEEEEEPNS_11__tree_nodeISD_PvEElEptB8ne180100Ev, symObjAddr: 0x238B0, symBinAddr: 0x100024D80, symSize: 0xD0 }
  - { offset: 0x1DC5B, size: 0x8, addend: 0x0, symName: __ZNSt3__112__value_typeINS_12basic_stringIcNS_11char_traitsIcEENS_9allocatorIcEEEENS_3setIS6_NS_4lessIS6_EENS4_IS6_EEEEE11__get_valueB8ne180100Ev, symObjAddr: 0x23980, symBinAddr: 0x100024E50, symSize: 0x90 }
  - { offset: 0x1DC81, size: 0x8, addend: 0x0, symName: __ZNSt3__16__treeINS_12__value_typeINS_12basic_stringIcNS_11char_traitsIcEENS_9allocatorIcEEEENS_3setIS7_NS_4lessIS7_EENS5_IS7_EEEEEENS_19__map_value_compareIS7_SD_SA_Lb1EEENS5_ISD_EEE12__find_equalIS7_EERPNS_16__tree_node_baseIPvEERPNS_15__tree_end_nodeISM_EERKT_, symObjAddr: 0x23A10, symBinAddr: 0x100024EE0, symSize: 0xB90 }
  - { offset: 0x1DCEC, size: 0x8, addend: 0x0, symName: __ZNSt3__16__treeINS_12__value_typeINS_12basic_stringIcNS_11char_traitsIcEENS_9allocatorIcEEEENS_3setIS7_NS_4lessIS7_EENS5_IS7_EEEEEENS_19__map_value_compareIS7_SD_SA_Lb1EEENS5_ISD_EEE16__construct_nodeIJRKNS_21piecewise_construct_tENS_5tupleIJRKS7_EEENSM_IJEEEEEENS_10unique_ptrINS_11__tree_nodeISD_PvEENS_22__tree_node_destructorINS5_ISU_EEEEEEDpOT_, symObjAddr: 0x245A0, symBinAddr: 0x100025A70, symSize: 0x630 }
  - { offset: 0x1DD79, size: 0x8, addend: 0x0, symName: __ZNSt3__16__treeINS_12__value_typeINS_12basic_stringIcNS_11char_traitsIcEENS_9allocatorIcEEEENS_3setIS7_NS_4lessIS7_EENS5_IS7_EEEEEENS_19__map_value_compareIS7_SD_SA_Lb1EEENS5_ISD_EEE16__insert_node_atEPNS_15__tree_end_nodeIPNS_16__tree_node_baseIPvEEEERSM_SM_, symObjAddr: 0x24BD0, symBinAddr: 0x1000260A0, symSize: 0x6C0 }
  - { offset: 0x1DDCE, size: 0x8, addend: 0x0, symName: __ZNKSt3__110unique_ptrINS_11__tree_nodeINS_12__value_typeINS_12basic_stringIcNS_11char_traitsIcEENS_9allocatorIcEEEENS_3setIS8_NS_4lessIS8_EENS6_IS8_EEEEEEPvEENS_22__tree_node_destructorINS6_ISG_EEEEE3getB8ne180100Ev, symObjAddr: 0x25290, symBinAddr: 0x100026760, symSize: 0xF0 }
  - { offset: 0x1DDF4, size: 0x8, addend: 0x0, symName: __ZNSt3__110unique_ptrINS_11__tree_nodeINS_12__value_typeINS_12basic_stringIcNS_11char_traitsIcEENS_9allocatorIcEEEENS_3setIS8_NS_4lessIS8_EENS6_IS8_EEEEEEPvEENS_22__tree_node_destructorINS6_ISG_EEEEE7releaseB8ne180100Ev, symObjAddr: 0x25380, symBinAddr: 0x100026850, symSize: 0x190 }
  - { offset: 0x1DE29, size: 0x8, addend: 0x0, symName: __ZNSt3__110unique_ptrINS_11__tree_nodeINS_12__value_typeINS_12basic_stringIcNS_11char_traitsIcEENS_9allocatorIcEEEENS_3setIS8_NS_4lessIS8_EENS6_IS8_EEEEEEPvEENS_22__tree_node_destructorINS6_ISG_EEEEED1B8ne180100Ev, symObjAddr: 0x25510, symBinAddr: 0x1000269E0, symSize: 0x50 }
  - { offset: 0x1DE53, size: 0x8, addend: 0x0, symName: __ZNSt3__115__tree_iteratorINS_12__value_typeINS_12basic_stringIcNS_11char_traitsIcEENS_9allocatorIcEEEENS_3setIS7_NS_4lessIS7_EENS5_IS7_EEEEEEPNS_11__tree_nodeISD_PvEElEC1B8ne180100ESH_, symObjAddr: 0x25560, symBinAddr: 0x100026A30, symSize: 0x60 }
  - { offset: 0x1DE92, size: 0x8, addend: 0x0, symName: __ZNSt3__14pairINS_15__tree_iteratorINS_12__value_typeINS_12basic_stringIcNS_11char_traitsIcEENS_9allocatorIcEEEENS_3setIS8_NS_4lessIS8_EENS6_IS8_EEEEEEPNS_11__tree_nodeISE_PvEElEEbEC1B8ne180100ISJ_RbTnNS_9enable_ifIXclsr10_CheckArgsE17__enable_implicitIT_T0_EEEiE4typeELi0EEEOSO_OSP_, symObjAddr: 0x255C0, symBinAddr: 0x100026A90, symSize: 0x60 }
  - { offset: 0x1DEF0, size: 0x8, addend: 0x0, symName: __ZNKSt3__16__treeINS_12__value_typeINS_12basic_stringIcNS_11char_traitsIcEENS_9allocatorIcEEEENS_3setIS7_NS_4lessIS7_EENS5_IS7_EEEEEENS_19__map_value_compareIS7_SD_SA_Lb1EEENS5_ISD_EEE6__rootB8ne180100Ev, symObjAddr: 0x25620, symBinAddr: 0x100026AF0, symSize: 0x120 }
  - { offset: 0x1DF16, size: 0x8, addend: 0x0, symName: __ZNKSt3__16__treeINS_12__value_typeINS_12basic_stringIcNS_11char_traitsIcEENS_9allocatorIcEEEENS_3setIS7_NS_4lessIS7_EENS5_IS7_EEEEEENS_19__map_value_compareIS7_SD_SA_Lb1EEENS5_ISD_EEE10__root_ptrB8ne180100Ev, symObjAddr: 0x25740, symBinAddr: 0x100026C10, symSize: 0x90 }
  - { offset: 0x1DF3C, size: 0x8, addend: 0x0, symName: __ZNSt3__16__treeINS_12__value_typeINS_12basic_stringIcNS_11char_traitsIcEENS_9allocatorIcEEEENS_3setIS7_NS_4lessIS7_EENS5_IS7_EEEEEENS_19__map_value_compareIS7_SD_SA_Lb1EEENS5_ISD_EEE10value_compB8ne180100Ev, symObjAddr: 0x257D0, symBinAddr: 0x100026CA0, symSize: 0xB0 }
  - { offset: 0x1DF62, size: 0x8, addend: 0x0, symName: __ZNKSt3__119__map_value_compareINS_12basic_stringIcNS_11char_traitsIcEENS_9allocatorIcEEEENS_12__value_typeIS6_NS_3setIS6_NS_4lessIS6_EENS4_IS6_EEEEEESA_Lb1EEclB8ne180100ERKS6_RKSD_, symObjAddr: 0x25880, symBinAddr: 0x100026D50, symSize: 0x140 }
  - { offset: 0x1DFA6, size: 0x8, addend: 0x0, symName: __ZNKSt3__119__map_value_compareINS_12basic_stringIcNS_11char_traitsIcEENS_9allocatorIcEEEENS_12__value_typeIS6_NS_3setIS6_NS_4lessIS6_EENS4_IS6_EEEEEESA_Lb1EEclB8ne180100ERKSD_RKS6_, symObjAddr: 0x259C0, symBinAddr: 0x100026E90, symSize: 0x140 }
  - { offset: 0x1DFEA, size: 0x8, addend: 0x0, symName: __ZNSt3__16__treeINS_12__value_typeINS_12basic_stringIcNS_11char_traitsIcEENS_9allocatorIcEEEENS_3setIS7_NS_4lessIS7_EENS5_IS7_EEEEEENS_19__map_value_compareIS7_SD_SA_Lb1EEENS5_ISD_EEE10__end_nodeB8ne180100Ev, symObjAddr: 0x25B00, symBinAddr: 0x100026FD0, symSize: 0xD0 }
  - { offset: 0x1E010, size: 0x8, addend: 0x0, symName: __ZNKSt3__16__treeINS_12__value_typeINS_12basic_stringIcNS_11char_traitsIcEENS_9allocatorIcEEEENS_3setIS7_NS_4lessIS7_EENS5_IS7_EEEEEENS_19__map_value_compareIS7_SD_SA_Lb1EEENS5_ISD_EEE10__end_nodeB8ne180100Ev, symObjAddr: 0x25BD0, symBinAddr: 0x1000270A0, symSize: 0xD0 }
  - { offset: 0x1E036, size: 0x8, addend: 0x0, symName: __ZNKSt3__117__compressed_pairINS_15__tree_end_nodeIPNS_16__tree_node_baseIPvEEEENS_9allocatorINS_11__tree_nodeINS_12__value_typeINS_12basic_stringIcNS_11char_traitsIcEENS7_IcEEEENS_3setISE_NS_4lessISE_EENS7_ISE_EEEEEES3_EEEEE5firstB8ne180100Ev, symObjAddr: 0x25CA0, symBinAddr: 0x100027170, symSize: 0xE0 }
  - { offset: 0x1E05C, size: 0x8, addend: 0x0, symName: __ZNSt3__117__compressed_pairImNS_19__map_value_compareINS_12basic_stringIcNS_11char_traitsIcEENS_9allocatorIcEEEENS_12__value_typeIS7_NS_3setIS7_NS_4lessIS7_EENS5_IS7_EEEEEESB_Lb1EEEE6secondB8ne180100Ev, symObjAddr: 0x25D80, symBinAddr: 0x100027250, symSize: 0xC0 }
  - { offset: 0x1E082, size: 0x8, addend: 0x0, symName: __ZNSt3__122__compressed_pair_elemINS_19__map_value_compareINS_12basic_stringIcNS_11char_traitsIcEENS_9allocatorIcEEEENS_12__value_typeIS7_NS_3setIS7_NS_4lessIS7_EENS5_IS7_EEEEEESB_Lb1EEELi1ELb1EE5__getB8ne180100Ev, symObjAddr: 0x25E40, symBinAddr: 0x100027310, symSize: 0x60 }
  - { offset: 0x1E0A8, size: 0x8, addend: 0x0, symName: __ZNKSt3__112__value_typeINS_12basic_stringIcNS_11char_traitsIcEENS_9allocatorIcEEEENS_3setIS6_NS_4lessIS6_EENS4_IS6_EEEEE11__get_valueB8ne180100Ev, symObjAddr: 0x25EA0, symBinAddr: 0x100027370, symSize: 0x98 }
  - { offset: 0x1E0CE, size: 0x8, addend: 0x0, symName: __ZNSt3__117__compressed_pairINS_15__tree_end_nodeIPNS_16__tree_node_baseIPvEEEENS_9allocatorINS_11__tree_nodeINS_12__value_typeINS_12basic_stringIcNS_11char_traitsIcEENS7_IcEEEENS_3setISE_NS_4lessISE_EENS7_ISE_EEEEEES3_EEEEE5firstB8ne180100Ev, symObjAddr: 0x25F80, symBinAddr: 0x100027450, symSize: 0xE0 }
  - { offset: 0x1E0F4, size: 0x8, addend: 0x0, symName: __ZNSt3__16__treeINS_12__value_typeINS_12basic_stringIcNS_11char_traitsIcEENS_9allocatorIcEEEENS_3setIS7_NS_4lessIS7_EENS5_IS7_EEEEEENS_19__map_value_compareIS7_SD_SA_Lb1EEENS5_ISD_EEE12__node_allocB8ne180100Ev, symObjAddr: 0x26060, symBinAddr: 0x100027530, symSize: 0xB8 }
  - { offset: 0x1E11A, size: 0x8, addend: 0x0, symName: __ZNSt3__116allocator_traitsINS_9allocatorINS_11__tree_nodeINS_12__value_typeINS_12basic_stringIcNS_11char_traitsIcEENS1_IcEEEENS_3setIS8_NS_4lessIS8_EENS1_IS8_EEEEEEPvEEEEE8allocateB8ne180100ERSH_m, symObjAddr: 0x26118, symBinAddr: 0x1000275E8, symSize: 0x28 }
  - { offset: 0x1E14D, size: 0x8, addend: 0x0, symName: __ZNSt3__122__tree_node_destructorINS_9allocatorINS_11__tree_nodeINS_12__value_typeINS_12basic_stringIcNS_11char_traitsIcEENS1_IcEEEENS_3setIS8_NS_4lessIS8_EENS1_IS8_EEEEEEPvEEEEEC1B8ne180100ERSH_b, symObjAddr: 0x26140, symBinAddr: 0x100027610, symSize: 0xA0 }
  - { offset: 0x1E19B, size: 0x8, addend: 0x0, symName: __ZNSt3__110unique_ptrINS_11__tree_nodeINS_12__value_typeINS_12basic_stringIcNS_11char_traitsIcEENS_9allocatorIcEEEENS_3setIS8_NS_4lessIS8_EENS6_IS8_EEEEEEPvEENS_22__tree_node_destructorINS6_ISG_EEEEEC1B8ne180100ILb1EvEEPSG_NS_16__dependent_typeINS_27__unique_ptr_deleter_sfinaeISJ_EEXT_EE20__good_rval_ref_typeE, symObjAddr: 0x261E0, symBinAddr: 0x1000276B0, symSize: 0x68 }
  - { offset: 0x1E1EC, size: 0x8, addend: 0x0, symName: __ZNSt3__116allocator_traitsINS_9allocatorINS_11__tree_nodeINS_12__value_typeINS_12basic_stringIcNS_11char_traitsIcEENS1_IcEEEENS_3setIS8_NS_4lessIS8_EENS1_IS8_EEEEEEPvEEEEE9constructB8ne180100INS_4pairIKS8_SD_EEJRKNS_21piecewise_construct_tENS_5tupleIJRSL_EEENSQ_IJEEEEvvEEvRSH_PT_DpOT0_, symObjAddr: 0x26248, symBinAddr: 0x100027718, symSize: 0xC0 }
  - { offset: 0x1E269, size: 0x8, addend: 0x0, symName: __ZNSt3__122__tree_key_value_typesINS_12__value_typeINS_12basic_stringIcNS_11char_traitsIcEENS_9allocatorIcEEEENS_3setIS7_NS_4lessIS7_EENS5_IS7_EEEEEEE9__get_ptrB8ne180100ERSD_, symObjAddr: 0x26308, symBinAddr: 0x1000277D8, symSize: 0x48 }
  - { offset: 0x1E28D, size: 0x8, addend: 0x0, symName: __ZNKSt3__110unique_ptrINS_11__tree_nodeINS_12__value_typeINS_12basic_stringIcNS_11char_traitsIcEENS_9allocatorIcEEEENS_3setIS8_NS_4lessIS8_EENS6_IS8_EEEEEEPvEENS_22__tree_node_destructorINS6_ISG_EEEEEptB8ne180100Ev, symObjAddr: 0x26350, symBinAddr: 0x100027820, symSize: 0xF0 }
  - { offset: 0x1E2B3, size: 0x8, addend: 0x0, symName: __ZNSt3__110unique_ptrINS_11__tree_nodeINS_12__value_typeINS_12basic_stringIcNS_11char_traitsIcEENS_9allocatorIcEEEENS_3setIS8_NS_4lessIS8_EENS6_IS8_EEEEEEPvEENS_22__tree_node_destructorINS6_ISG_EEEEE11get_deleterB8ne180100Ev, symObjAddr: 0x26440, symBinAddr: 0x100027910, symSize: 0xC0 }
  - { offset: 0x1E2D9, size: 0x8, addend: 0x0, symName: __ZNSt3__117__compressed_pairINS_15__tree_end_nodeIPNS_16__tree_node_baseIPvEEEENS_9allocatorINS_11__tree_nodeINS_12__value_typeINS_12basic_stringIcNS_11char_traitsIcEENS7_IcEEEENS_3setISE_NS_4lessISE_EENS7_ISE_EEEEEES3_EEEEE6secondB8ne180100Ev, symObjAddr: 0x26500, symBinAddr: 0x1000279D0, symSize: 0xC0 }
  - { offset: 0x1E2FF, size: 0x8, addend: 0x0, symName: __ZNSt3__122__compressed_pair_elemINS_9allocatorINS_11__tree_nodeINS_12__value_typeINS_12basic_stringIcNS_11char_traitsIcEENS1_IcEEEENS_3setIS8_NS_4lessIS8_EENS1_IS8_EEEEEEPvEEEELi1ELb1EE5__getB8ne180100Ev, symObjAddr: 0x265C0, symBinAddr: 0x100027A90, symSize: 0x60 }
  - { offset: 0x1E325, size: 0x8, addend: 0x0, symName: __ZNSt3__19allocatorINS_11__tree_nodeINS_12__value_typeINS_12basic_stringIcNS_11char_traitsIcEENS0_IcEEEENS_3setIS7_NS_4lessIS7_EENS0_IS7_EEEEEEPvEEE8allocateB8ne180100Em, symObjAddr: 0x26620, symBinAddr: 0x100027AF0, symSize: 0xB8 }
  - { offset: 0x1E364, size: 0x8, addend: 0x0, symName: __ZNSt3__116allocator_traitsINS_9allocatorINS_11__tree_nodeINS_12__value_typeINS_12basic_stringIcNS_11char_traitsIcEENS1_IcEEEENS_3setIS8_NS_4lessIS8_EENS1_IS8_EEEEEEPvEEEEE8max_sizeB8ne180100ISH_vvEEmRKSH_, symObjAddr: 0x266D8, symBinAddr: 0x100027BA8, symSize: 0x48 }
  - { offset: 0x1E390, size: 0x8, addend: 0x0, symName: __ZNSt3__122__tree_node_destructorINS_9allocatorINS_11__tree_nodeINS_12__value_typeINS_12basic_stringIcNS_11char_traitsIcEENS1_IcEEEENS_3setIS8_NS_4lessIS8_EENS1_IS8_EEEEEEPvEEEEEC2B8ne180100ERSH_b, symObjAddr: 0x26720, symBinAddr: 0x100027BF0, symSize: 0x130 }
  - { offset: 0x1E3D8, size: 0x8, addend: 0x0, symName: __ZNSt3__110unique_ptrINS_11__tree_nodeINS_12__value_typeINS_12basic_stringIcNS_11char_traitsIcEENS_9allocatorIcEEEENS_3setIS8_NS_4lessIS8_EENS6_IS8_EEEEEEPvEENS_22__tree_node_destructorINS6_ISG_EEEEEC2B8ne180100ILb1EvEEPSG_NS_16__dependent_typeINS_27__unique_ptr_deleter_sfinaeISJ_EEXT_EE20__good_rval_ref_typeE, symObjAddr: 0x26850, symBinAddr: 0x100027D20, symSize: 0x1E0 }
  - { offset: 0x1E42F, size: 0x8, addend: 0x0, symName: __ZNSt3__117__compressed_pairIPNS_11__tree_nodeINS_12__value_typeINS_12basic_stringIcNS_11char_traitsIcEENS_9allocatorIcEEEENS_3setIS8_NS_4lessIS8_EENS6_IS8_EEEEEEPvEENS_22__tree_node_destructorINS6_ISG_EEEEEC1B8ne180100IRSH_SK_EEOT_OT0_, symObjAddr: 0x26A30, symBinAddr: 0x100027F00, symSize: 0x60 }
  - { offset: 0x1E487, size: 0x8, addend: 0x0, symName: __ZNSt3__117__compressed_pairIPNS_11__tree_nodeINS_12__value_typeINS_12basic_stringIcNS_11char_traitsIcEENS_9allocatorIcEEEENS_3setIS8_NS_4lessIS8_EENS6_IS8_EEEEEEPvEENS_22__tree_node_destructorINS6_ISG_EEEEEC2B8ne180100IRSH_SK_EEOT_OT0_, symObjAddr: 0x26A90, symBinAddr: 0x100027F60, symSize: 0x140 }
  - { offset: 0x1E4DF, size: 0x8, addend: 0x0, symName: __ZNSt3__122__compressed_pair_elemIPNS_11__tree_nodeINS_12__value_typeINS_12basic_stringIcNS_11char_traitsIcEENS_9allocatorIcEEEENS_3setIS8_NS_4lessIS8_EENS6_IS8_EEEEEEPvEELi0ELb0EEC2B8ne180100IRSH_vEEOT_, symObjAddr: 0x26BD0, symBinAddr: 0x1000280A0, symSize: 0xF0 }
  - { offset: 0x1E521, size: 0x8, addend: 0x0, symName: __ZNSt3__122__compressed_pair_elemINS_22__tree_node_destructorINS_9allocatorINS_11__tree_nodeINS_12__value_typeINS_12basic_stringIcNS_11char_traitsIcEENS2_IcEEEENS_3setIS9_NS_4lessIS9_EENS2_IS9_EEEEEEPvEEEEEELi1ELb0EEC2B8ne180100ISJ_vEEOT_, symObjAddr: 0x26CC0, symBinAddr: 0x100028190, symSize: 0x68 }
  - { offset: 0x1E563, size: 0x8, addend: 0x0, symName: __ZNSt3__14pairIKNS_12basic_stringIcNS_11char_traitsIcEENS_9allocatorIcEEEENS_3setIS6_NS_4lessIS6_EENS4_IS6_EEEEEC1B8ne180100IJRS7_EJEEENS_21piecewise_construct_tENS_5tupleIJDpT_EEENSH_IJDpT0_EEE, symObjAddr: 0x26EA0, symBinAddr: 0x100028370, symSize: 0x1C0 }
  - { offset: 0x1E5D4, size: 0x8, addend: 0x0, symName: __ZNSt3__14pairIKNS_12basic_stringIcNS_11char_traitsIcEENS_9allocatorIcEEEENS_3setIS6_NS_4lessIS6_EENS4_IS6_EEEEEC1B8ne180100IJRS7_EJEJLm0EETpTnmJEEENS_21piecewise_construct_tERNS_5tupleIJDpT_EEERNSH_IJDpT0_EEENS_15__tuple_indicesIJXspT1_EEEENSQ_IJXspT2_EEEE, symObjAddr: 0x27060, symBinAddr: 0x100028530, symSize: 0x60 }
  - { offset: 0x1E661, size: 0x8, addend: 0x0, symName: __ZNSt3__14pairIKNS_12basic_stringIcNS_11char_traitsIcEENS_9allocatorIcEEEENS_3setIS6_NS_4lessIS6_EENS4_IS6_EEEEEC2B8ne180100IJRS7_EJEJLm0EETpTnmJEEENS_21piecewise_construct_tERNS_5tupleIJDpT_EEERNSH_IJDpT0_EEENS_15__tuple_indicesIJXspT1_EEEENSQ_IJXspT2_EEEE, symObjAddr: 0x270C0, symBinAddr: 0x100028590, symSize: 0xE8 }
  - { offset: 0x1E6EE, size: 0x8, addend: 0x0, symName: __ZNSt3__112__tuple_leafILm0ERKNS_12basic_stringIcNS_11char_traitsIcEENS_9allocatorIcEEEELb0EE3getB8ne180100Ev, symObjAddr: 0x27250, symBinAddr: 0x100028720, symSize: 0xB0 }
  - { offset: 0x1E714, size: 0x8, addend: 0x0, symName: __ZNKSt3__117__compressed_pairIPNS_11__tree_nodeINS_12__value_typeINS_12basic_stringIcNS_11char_traitsIcEENS_9allocatorIcEEEENS_3setIS8_NS_4lessIS8_EENS6_IS8_EEEEEEPvEENS_22__tree_node_destructorINS6_ISG_EEEEE5firstB8ne180100Ev, symObjAddr: 0x27300, symBinAddr: 0x1000287D0, symSize: 0xE0 }
  - { offset: 0x1E73A, size: 0x8, addend: 0x0, symName: __ZNKSt3__122__compressed_pair_elemIPNS_11__tree_nodeINS_12__value_typeINS_12basic_stringIcNS_11char_traitsIcEENS_9allocatorIcEEEENS_3setIS8_NS_4lessIS8_EENS6_IS8_EEEEEEPvEELi0ELb0EE5__getB8ne180100Ev, symObjAddr: 0x273E0, symBinAddr: 0x1000288B0, symSize: 0x80 }
  - { offset: 0x1E760, size: 0x8, addend: 0x0, symName: __ZNSt3__117__compressed_pairIPNS_11__tree_nodeINS_12__value_typeINS_12basic_stringIcNS_11char_traitsIcEENS_9allocatorIcEEEENS_3setIS8_NS_4lessIS8_EENS6_IS8_EEEEEEPvEENS_22__tree_node_destructorINS6_ISG_EEEEE6secondB8ne180100Ev, symObjAddr: 0x27460, symBinAddr: 0x100028930, symSize: 0xE0 }
  - { offset: 0x1E786, size: 0x8, addend: 0x0, symName: __ZNSt3__122__compressed_pair_elemINS_22__tree_node_destructorINS_9allocatorINS_11__tree_nodeINS_12__value_typeINS_12basic_stringIcNS_11char_traitsIcEENS2_IcEEEENS_3setIS9_NS_4lessIS9_EENS2_IS9_EEEEEEPvEEEEEELi1ELb0EE5__getB8ne180100Ev, symObjAddr: 0x27540, symBinAddr: 0x100028A10, symSize: 0x80 }
  - { offset: 0x1E7AC, size: 0x8, addend: 0x0, symName: __ZNSt3__16__treeINS_12__value_typeINS_12basic_stringIcNS_11char_traitsIcEENS_9allocatorIcEEEENS_3setIS7_NS_4lessIS7_EENS5_IS7_EEEEEENS_19__map_value_compareIS7_SD_SA_Lb1EEENS5_ISD_EEE12__begin_nodeB8ne180100Ev, symObjAddr: 0x275C0, symBinAddr: 0x100028A90, symSize: 0x80 }
  - { offset: 0x1E7D2, size: 0x8, addend: 0x0, symName: __ZNSt3__16__treeINS_12__value_typeINS_12basic_stringIcNS_11char_traitsIcEENS_9allocatorIcEEEENS_3setIS7_NS_4lessIS7_EENS5_IS7_EEEEEENS_19__map_value_compareIS7_SD_SA_Lb1EEENS5_ISD_EEE4sizeB8ne180100Ev, symObjAddr: 0x27640, symBinAddr: 0x100028B10, symSize: 0xC0 }
  - { offset: 0x1E7F8, size: 0x8, addend: 0x0, symName: __ZNSt3__117__compressed_pairImNS_19__map_value_compareINS_12basic_stringIcNS_11char_traitsIcEENS_9allocatorIcEEEENS_12__value_typeIS7_NS_3setIS7_NS_4lessIS7_EENS5_IS7_EEEEEESB_Lb1EEEE5firstB8ne180100Ev, symObjAddr: 0x27700, symBinAddr: 0x100028BD0, symSize: 0xE0 }
  - { offset: 0x1E81E, size: 0x8, addend: 0x0, symName: __ZNSt3__117__compressed_pairIPNS_11__tree_nodeINS_12__value_typeINS_12basic_stringIcNS_11char_traitsIcEENS_9allocatorIcEEEENS_3setIS8_NS_4lessIS8_EENS6_IS8_EEEEEEPvEENS_22__tree_node_destructorINS6_ISG_EEEEE5firstB8ne180100Ev, symObjAddr: 0x277E0, symBinAddr: 0x100028CB0, symSize: 0xE0 }
  - { offset: 0x1E844, size: 0x8, addend: 0x0, symName: __ZNSt3__122__compressed_pair_elemIPNS_11__tree_nodeINS_12__value_typeINS_12basic_stringIcNS_11char_traitsIcEENS_9allocatorIcEEEENS_3setIS8_NS_4lessIS8_EENS6_IS8_EEEEEEPvEELi0ELb0EE5__getB8ne180100Ev, symObjAddr: 0x278C0, symBinAddr: 0x100028D90, symSize: 0x80 }
  - { offset: 0x1E86A, size: 0x8, addend: 0x0, symName: __ZNSt3__110unique_ptrINS_11__tree_nodeINS_12__value_typeINS_12basic_stringIcNS_11char_traitsIcEENS_9allocatorIcEEEENS_3setIS8_NS_4lessIS8_EENS6_IS8_EEEEEEPvEENS_22__tree_node_destructorINS6_ISG_EEEEED2B8ne180100Ev, symObjAddr: 0x27940, symBinAddr: 0x100028E10, symSize: 0x60 }
  - { offset: 0x1E894, size: 0x8, addend: 0x0, symName: __ZNSt3__110unique_ptrINS_11__tree_nodeINS_12__value_typeINS_12basic_stringIcNS_11char_traitsIcEENS_9allocatorIcEEEENS_3setIS8_NS_4lessIS8_EENS6_IS8_EEEEEEPvEENS_22__tree_node_destructorINS6_ISG_EEEEE5resetB8ne180100EPSG_, symObjAddr: 0x279A0, symBinAddr: 0x100028E70, symSize: 0x220 }
  - { offset: 0x1E8D8, size: 0x8, addend: 0x0, symName: __ZNSt3__122__tree_node_destructorINS_9allocatorINS_11__tree_nodeINS_12__value_typeINS_12basic_stringIcNS_11char_traitsIcEENS1_IcEEEENS_3setIS8_NS_4lessIS8_EENS1_IS8_EEEEEEPvEEEEEclB8ne180100EPSG_, symObjAddr: 0x27BC0, symBinAddr: 0x100029090, symSize: 0x238 }
  - { offset: 0x1E90D, size: 0x8, addend: 0x0, symName: __ZNSt3__116allocator_traitsINS_9allocatorINS_11__tree_nodeINS_12__value_typeINS_12basic_stringIcNS_11char_traitsIcEENS1_IcEEEENS_3setIS8_NS_4lessIS8_EENS1_IS8_EEEEEEPvEEEEE7destroyB8ne180100INS_4pairIKS8_SD_EEvvEEvRSH_PT_, symObjAddr: 0x27DF8, symBinAddr: 0x1000292C8, symSize: 0x30 }
  - { offset: 0x1E948, size: 0x8, addend: 0x0, symName: __ZNSt3__116allocator_traitsINS_9allocatorINS_11__tree_nodeINS_12__value_typeINS_12basic_stringIcNS_11char_traitsIcEENS1_IcEEEENS_3setIS8_NS_4lessIS8_EENS1_IS8_EEEEEEPvEEEEE10deallocateB8ne180100ERSH_PSG_m, symObjAddr: 0x27E28, symBinAddr: 0x1000292F8, symSize: 0x40 }
  - { offset: 0x1E98A, size: 0x8, addend: 0x0, symName: __ZNSt3__14pairIKNS_12basic_stringIcNS_11char_traitsIcEENS_9allocatorIcEEEENS_3setIS6_NS_4lessIS6_EENS4_IS6_EEEEED1Ev, symObjAddr: 0x27EC0, symBinAddr: 0x100029390, symSize: 0x50 }
  - { offset: 0x1E9B6, size: 0x8, addend: 0x0, symName: __ZNSt3__14pairIKNS_12basic_stringIcNS_11char_traitsIcEENS_9allocatorIcEEEENS_3setIS6_NS_4lessIS6_EENS4_IS6_EEEEED2Ev, symObjAddr: 0x27F10, symBinAddr: 0x1000293E0, symSize: 0x60 }
  - { offset: 0x1E9E2, size: 0x8, addend: 0x0, symName: __ZNSt3__19allocatorINS_11__tree_nodeINS_12__value_typeINS_12basic_stringIcNS_11char_traitsIcEENS0_IcEEEENS_3setIS7_NS_4lessIS7_EENS0_IS7_EEEEEEPvEEE10deallocateB8ne180100EPSF_m, symObjAddr: 0x27F70, symBinAddr: 0x100029440, symSize: 0x70 }
  - { offset: 0x1EA24, size: 0x8, addend: 0x0, symName: __ZNSt3__115__tree_iteratorINS_12__value_typeINS_12basic_stringIcNS_11char_traitsIcEENS_9allocatorIcEEEENS_3setIS7_NS_4lessIS7_EENS5_IS7_EEEEEEPNS_11__tree_nodeISD_PvEElEC2B8ne180100ESH_, symObjAddr: 0x27FE0, symBinAddr: 0x1000294B0, symSize: 0xC0 }
  - { offset: 0x1EA5D, size: 0x8, addend: 0x0, symName: __ZNSt3__14pairINS_15__tree_iteratorINS_12__value_typeINS_12basic_stringIcNS_11char_traitsIcEENS_9allocatorIcEEEENS_3setIS8_NS_4lessIS8_EENS6_IS8_EEEEEEPNS_11__tree_nodeISE_PvEElEEbEC2B8ne180100ISJ_RbTnNS_9enable_ifIXclsr10_CheckArgsE17__enable_implicitIT_T0_EEEiE4typeELi0EEEOSO_OSP_, symObjAddr: 0x280A0, symBinAddr: 0x100029570, symSize: 0x150 }
  - { offset: 0x1EABB, size: 0x8, addend: 0x0, symName: __ZNSt3__15tupleIJRKNS_12basic_stringIcNS_11char_traitsIcEENS_9allocatorIcEEEEEEC1B8ne180100INS_4_AndETnNS_9enable_ifIXsrT_IJNS_17integral_constantIbLb1EEENS_21is_copy_constructibleIS8_EEEE5valueEiE4typeELi0EEES8_, symObjAddr: 0x281F0, symBinAddr: 0x1000296C0, symSize: 0x60 }
  - { offset: 0x1EB03, size: 0x8, addend: 0x0, symName: __ZNSt3__15tupleIJRKNS_12basic_stringIcNS_11char_traitsIcEENS_9allocatorIcEEEEEEC2B8ne180100INS_4_AndETnNS_9enable_ifIXsrT_IJNS_17integral_constantIbLb1EEENS_21is_copy_constructibleIS8_EEEE5valueEiE4typeELi0EEES8_, symObjAddr: 0x28250, symBinAddr: 0x100029720, symSize: 0x90 }
  - { offset: 0x1EB4B, size: 0x8, addend: 0x0, symName: __ZNSt3__112__tuple_implINS_15__tuple_indicesIJLm0EEEEJRKNS_12basic_stringIcNS_11char_traitsIcEENS_9allocatorIcEEEEEEC1B8ne180100IJLm0EEJSA_ETpTnmJEJEJSA_EEENS1_IJXspT_EEEENS_13__tuple_typesIJDpT0_EEENS1_IJXspT1_EEEENSE_IJDpT2_EEEDpOT3_, symObjAddr: 0x282E0, symBinAddr: 0x1000297B0, symSize: 0x60 }
  - { offset: 0x1EBE0, size: 0x8, addend: 0x0, symName: __ZNSt3__112__tuple_implINS_15__tuple_indicesIJLm0EEEEJRKNS_12basic_stringIcNS_11char_traitsIcEENS_9allocatorIcEEEEEEC2B8ne180100IJLm0EEJSA_ETpTnmJEJEJSA_EEENS1_IJXspT_EEEENS_13__tuple_typesIJDpT0_EEENS1_IJXspT1_EEEENSE_IJDpT2_EEEDpOT3_, symObjAddr: 0x28340, symBinAddr: 0x100029810, symSize: 0xC0 }
  - { offset: 0x1EC75, size: 0x8, addend: 0x0, symName: __ZNSt3__112__tuple_leafILm0ERKNS_12basic_stringIcNS_11char_traitsIcEENS_9allocatorIcEEEELb0EEC2B8ne180100IS8_vEEOT_, symObjAddr: 0x28400, symBinAddr: 0x1000298D0, symSize: 0xC8 }
  - { offset: 0x1ECB8, size: 0x8, addend: 0x0, symName: __ZNSt3__114pointer_traitsIPNS_12__value_typeINS_12basic_stringIcNS_11char_traitsIcEENS_9allocatorIcEEEENS_3setIS7_NS_4lessIS7_EENS5_IS7_EEEEEEE10pointer_toB8ne180100ERSD_, symObjAddr: 0x284C8, symBinAddr: 0x100029998, symSize: 0x18 }
  - { offset: 0x1ECDB, size: 0x8, addend: 0x0, symName: __ZNKSt3__115__tree_iteratorINS_12__value_typeINS_12basic_stringIcNS_11char_traitsIcEENS_9allocatorIcEEEENS_3setIS7_NS_4lessIS7_EENS5_IS7_EEEEEEPNS_11__tree_nodeISD_PvEElE8__get_npB8ne180100Ev, symObjAddr: 0x284E0, symBinAddr: 0x1000299B0, symSize: 0xB8 }
  - { offset: 0x1ED01, size: 0x8, addend: 0x0, symName: __ZNKSt3__16__treeINS_12__value_typeINS_12basic_stringIcNS_11char_traitsIcEENS_9allocatorIcEEEENS_3setIS7_NS_4lessIS7_EENS5_IS7_EEEEEENS_19__map_value_compareIS7_SD_SA_Lb1EEENS5_ISD_EEE4findIS7_EENS_21__tree_const_iteratorISD_PNS_11__tree_nodeISD_PvEElEERKT_, symObjAddr: 0x285E0, symBinAddr: 0x100029AB0, symSize: 0x370 }
  - { offset: 0x1ED54, size: 0x8, addend: 0x0, symName: __ZNSt3__120__map_const_iteratorINS_21__tree_const_iteratorINS_12__value_typeINS_12basic_stringIcNS_11char_traitsIcEENS_9allocatorIcEEEENS_3setIS8_NS_4lessIS8_EENS6_IS8_EEEEEEPNS_11__tree_nodeISE_PvEElEEEC1B8ne180100ESJ_, symObjAddr: 0x28950, symBinAddr: 0x100029E20, symSize: 0x60 }
  - { offset: 0x1ED8D, size: 0x8, addend: 0x0, symName: __ZNKSt3__16__treeINS_12__value_typeINS_12basic_stringIcNS_11char_traitsIcEENS_9allocatorIcEEEENS_3setIS7_NS_4lessIS7_EENS5_IS7_EEEEEENS_19__map_value_compareIS7_SD_SA_Lb1EEENS5_ISD_EEE13__lower_boundIS7_EENS_21__tree_const_iteratorISD_PNS_11__tree_nodeISD_PvEElEERKT_SN_PNS_15__tree_end_nodeIPNS_16__tree_node_baseISL_EEEE, symObjAddr: 0x289B0, symBinAddr: 0x100029E80, symSize: 0x518 }
  - { offset: 0x1EDED, size: 0x8, addend: 0x0, symName: __ZNKSt3__16__treeINS_12__value_typeINS_12basic_stringIcNS_11char_traitsIcEENS_9allocatorIcEEEENS_3setIS7_NS_4lessIS7_EENS5_IS7_EEEEEENS_19__map_value_compareIS7_SD_SA_Lb1EEENS5_ISD_EEE3endB8ne180100Ev, symObjAddr: 0x28F60, symBinAddr: 0x10002A430, symSize: 0x190 }
  - { offset: 0x1EE14, size: 0x8, addend: 0x0, symName: __ZNKSt3__16__treeINS_12__value_typeINS_12basic_stringIcNS_11char_traitsIcEENS_9allocatorIcEEEENS_3setIS7_NS_4lessIS7_EENS5_IS7_EEEEEENS_19__map_value_compareIS7_SD_SA_Lb1EEENS5_ISD_EEE10value_compB8ne180100Ev, symObjAddr: 0x290F0, symBinAddr: 0x10002A5C0, symSize: 0xB0 }
  - { offset: 0x1EE3A, size: 0x8, addend: 0x0, symName: __ZNKSt3__121__tree_const_iteratorINS_12__value_typeINS_12basic_stringIcNS_11char_traitsIcEENS_9allocatorIcEEEENS_3setIS7_NS_4lessIS7_EENS5_IS7_EEEEEEPNS_11__tree_nodeISD_PvEElEdeB8ne180100Ev, symObjAddr: 0x291A0, symBinAddr: 0x10002A670, symSize: 0xC0 }
  - { offset: 0x1EE60, size: 0x8, addend: 0x0, symName: __ZNSt3__121__tree_const_iteratorINS_12__value_typeINS_12basic_stringIcNS_11char_traitsIcEENS_9allocatorIcEEEENS_3setIS7_NS_4lessIS7_EENS5_IS7_EEEEEEPNS_11__tree_nodeISD_PvEElEC1B8ne180100EPNS_15__tree_end_nodeIPNS_16__tree_node_baseISF_EEEE, symObjAddr: 0x29260, symBinAddr: 0x10002A730, symSize: 0x60 }
  - { offset: 0x1EE99, size: 0x8, addend: 0x0, symName: __ZNSt3__121__tree_const_iteratorINS_12__value_typeINS_12basic_stringIcNS_11char_traitsIcEENS_9allocatorIcEEEENS_3setIS7_NS_4lessIS7_EENS5_IS7_EEEEEEPNS_11__tree_nodeISD_PvEElEC2B8ne180100EPNS_15__tree_end_nodeIPNS_16__tree_node_baseISF_EEEE, symObjAddr: 0x292C0, symBinAddr: 0x10002A790, symSize: 0x98 }
  - { offset: 0x1EED2, size: 0x8, addend: 0x0, symName: __ZNKSt3__117__compressed_pairImNS_19__map_value_compareINS_12basic_stringIcNS_11char_traitsIcEENS_9allocatorIcEEEENS_12__value_typeIS7_NS_3setIS7_NS_4lessIS7_EENS5_IS7_EEEEEESB_Lb1EEEE6secondB8ne180100Ev, symObjAddr: 0x29430, symBinAddr: 0x10002A900, symSize: 0xC0 }
  - { offset: 0x1EEF8, size: 0x8, addend: 0x0, symName: __ZNKSt3__122__compressed_pair_elemINS_19__map_value_compareINS_12basic_stringIcNS_11char_traitsIcEENS_9allocatorIcEEEENS_12__value_typeIS7_NS_3setIS7_NS_4lessIS7_EENS5_IS7_EEEEEESB_Lb1EEELi1ELb1EE5__getB8ne180100Ev, symObjAddr: 0x294F0, symBinAddr: 0x10002A9C0, symSize: 0x60 }
  - { offset: 0x1EF1E, size: 0x8, addend: 0x0, symName: __ZNKSt3__121__tree_const_iteratorINS_12__value_typeINS_12basic_stringIcNS_11char_traitsIcEENS_9allocatorIcEEEENS_3setIS7_NS_4lessIS7_EENS5_IS7_EEEEEEPNS_11__tree_nodeISD_PvEElE8__get_npB8ne180100Ev, symObjAddr: 0x29550, symBinAddr: 0x10002AA20, symSize: 0xB0 }
  - { offset: 0x1EF44, size: 0x8, addend: 0x0, symName: __ZNSt3__120__map_const_iteratorINS_21__tree_const_iteratorINS_12__value_typeINS_12basic_stringIcNS_11char_traitsIcEENS_9allocatorIcEEEENS_3setIS8_NS_4lessIS8_EENS6_IS8_EEEEEEPNS_11__tree_nodeISE_PvEElEEEC2B8ne180100ESJ_, symObjAddr: 0x29600, symBinAddr: 0x10002AAD0, symSize: 0x68 }
  - { offset: 0x1EF7D, size: 0x8, addend: 0x0, symName: __ZNSt3__114pointer_traitsIPKNS_4pairIKNS_12basic_stringIcNS_11char_traitsIcEENS_9allocatorIcEEEENS_3setIS7_NS_4lessIS7_EENS5_IS7_EEEEEEE10pointer_toB8ne180100ERSF_, symObjAddr: 0x29668, symBinAddr: 0x10002AB38, symSize: 0x18 }
  - { offset: 0x1EFA0, size: 0x8, addend: 0x0, symName: __ZNKSt3__121__tree_const_iteratorINS_12__value_typeINS_12basic_stringIcNS_11char_traitsIcEENS_9allocatorIcEEEENS_3setIS7_NS_4lessIS7_EENS5_IS7_EEEEEEPNS_11__tree_nodeISD_PvEElEptB8ne180100Ev, symObjAddr: 0x29680, symBinAddr: 0x10002AB50, symSize: 0xD8 }
  - { offset: 0x1EFC6, size: 0x8, addend: 0x0, symName: __ZNSt3__114pointer_traitsIPKNS_12__value_typeINS_12basic_stringIcNS_11char_traitsIcEENS_9allocatorIcEEEENS_3setIS7_NS_4lessIS7_EENS5_IS7_EEEEEEE10pointer_toB8ne180100ERSE_, symObjAddr: 0x29758, symBinAddr: 0x10002AC28, symSize: 0x18 }
  - { offset: 0x1EFE9, size: 0x8, addend: 0x0, symName: __ZNSt3__16__treeINS_12basic_stringIcNS_11char_traitsIcEENS_9allocatorIcEEEENS_4lessIS6_EENS4_IS6_EEEaSERKSA_, symObjAddr: 0x29770, symBinAddr: 0x10002AC40, symSize: 0x180 }
  - { offset: 0x1F020, size: 0x8, addend: 0x0, symName: __ZNKSt3__16__treeINS_12basic_stringIcNS_11char_traitsIcEENS_9allocatorIcEEEENS_4lessIS6_EENS4_IS6_EEE10value_compB8ne180100Ev, symObjAddr: 0x298F0, symBinAddr: 0x10002ADC0, symSize: 0xB0 }
  - { offset: 0x1F046, size: 0x8, addend: 0x0, symName: __ZNSt3__16__treeINS_12basic_stringIcNS_11char_traitsIcEENS_9allocatorIcEEEENS_4lessIS6_EENS4_IS6_EEE19__copy_assign_allocB8ne180100ERKSA_, symObjAddr: 0x299A0, symBinAddr: 0x10002AE70, symSize: 0x90 }
  - { offset: 0x1F07B, size: 0x8, addend: 0x0, symName: __ZNSt3__16__treeINS_12basic_stringIcNS_11char_traitsIcEENS_9allocatorIcEEEENS_4lessIS6_EENS4_IS6_EEE14__assign_multiINS_21__tree_const_iteratorIS6_PNS_11__tree_nodeIS6_PvEElEEEEvT_SI_, symObjAddr: 0x29A30, symBinAddr: 0x10002AF00, symSize: 0x5C0 }
  - { offset: 0x1F0F2, size: 0x8, addend: 0x0, symName: __ZNKSt3__16__treeINS_12basic_stringIcNS_11char_traitsIcEENS_9allocatorIcEEEENS_4lessIS6_EENS4_IS6_EEE5beginB8ne180100Ev, symObjAddr: 0x29FF0, symBinAddr: 0x10002B4C0, symSize: 0x1F0 }
  - { offset: 0x1F119, size: 0x8, addend: 0x0, symName: __ZNKSt3__16__treeINS_12basic_stringIcNS_11char_traitsIcEENS_9allocatorIcEEEENS_4lessIS6_EENS4_IS6_EEE3endB8ne180100Ev, symObjAddr: 0x2A1E0, symBinAddr: 0x10002B6B0, symSize: 0x190 }
  - { offset: 0x1F140, size: 0x8, addend: 0x0, symName: __ZNKSt3__117__compressed_pairImNS_4lessINS_12basic_stringIcNS_11char_traitsIcEENS_9allocatorIcEEEEEEE6secondB8ne180100Ev, symObjAddr: 0x2A370, symBinAddr: 0x10002B840, symSize: 0xC0 }
  - { offset: 0x1F166, size: 0x8, addend: 0x0, symName: __ZNKSt3__122__compressed_pair_elemINS_4lessINS_12basic_stringIcNS_11char_traitsIcEENS_9allocatorIcEEEEEELi1ELb1EE5__getB8ne180100Ev, symObjAddr: 0x2A430, symBinAddr: 0x10002B900, symSize: 0x60 }
  - { offset: 0x1F18C, size: 0x8, addend: 0x0, symName: __ZNSt3__16__treeINS_12basic_stringIcNS_11char_traitsIcEENS_9allocatorIcEEEENS_4lessIS6_EENS4_IS6_EEE19__copy_assign_allocB8ne180100ERKSA_NS_17integral_constantIbLb0EEE, symObjAddr: 0x2A490, symBinAddr: 0x10002B960, symSize: 0x50 }
  - { offset: 0x1F1ED, size: 0x8, addend: 0x0, symName: __ZNSt3__16__treeINS_12basic_stringIcNS_11char_traitsIcEENS_9allocatorIcEEEENS_4lessIS6_EENS4_IS6_EEE18_DetachedTreeCacheC1B8ne180100EPSA_, symObjAddr: 0x2A4E0, symBinAddr: 0x10002B9B0, symSize: 0x60 }
  - { offset: 0x1F226, size: 0x8, addend: 0x0, symName: __ZNKSt3__16__treeINS_12basic_stringIcNS_11char_traitsIcEENS_9allocatorIcEEEENS_4lessIS6_EENS4_IS6_EEE18_DetachedTreeCache5__getB8ne180100Ev, symObjAddr: 0x2A540, symBinAddr: 0x10002BA10, symSize: 0x80 }
  - { offset: 0x1F24C, size: 0x8, addend: 0x0, symName: __ZNSt3__16__treeINS_12basic_stringIcNS_11char_traitsIcEENS_9allocatorIcEEEENS_4lessIS6_EENS4_IS6_EEE19__node_insert_multiEPNS_11__tree_nodeIS6_PvEE, symObjAddr: 0x2A5C0, symBinAddr: 0x10002BA90, symSize: 0x360 }
  - { offset: 0x1F2A8, size: 0x8, addend: 0x0, symName: __ZNSt3__16__treeINS_12basic_stringIcNS_11char_traitsIcEENS_9allocatorIcEEEENS_4lessIS6_EENS4_IS6_EEE18_DetachedTreeCache9__advanceB8ne180100Ev, symObjAddr: 0x2A920, symBinAddr: 0x10002BDF0, symSize: 0x180 }
  - { offset: 0x1F2CE, size: 0x8, addend: 0x0, symName: __ZNSt3__16__treeINS_12basic_stringIcNS_11char_traitsIcEENS_9allocatorIcEEEENS_4lessIS6_EENS4_IS6_EEE18_DetachedTreeCacheD1B8ne180100Ev, symObjAddr: 0x2AAA0, symBinAddr: 0x10002BF70, symSize: 0x50 }
  - { offset: 0x1F2F8, size: 0x8, addend: 0x0, symName: __ZNSt3__16__treeINS_12basic_stringIcNS_11char_traitsIcEENS_9allocatorIcEEEENS_4lessIS6_EENS4_IS6_EEE14__insert_multiB8ne180100IRKS6_EENS_15__tree_iteratorIS6_PNS_11__tree_nodeIS6_PvEElEEOT_, symObjAddr: 0x2AAF0, symBinAddr: 0x10002BFC0, symSize: 0xA8 }
  - { offset: 0x1F336, size: 0x8, addend: 0x0, symName: __ZNSt3__122__tree_key_value_typesINS_12basic_stringIcNS_11char_traitsIcEENS_9allocatorIcEEEEE11__get_valueB8ne180100ERKS6_, symObjAddr: 0x2AB98, symBinAddr: 0x10002C068, symSize: 0x58 }
  - { offset: 0x1F35A, size: 0x8, addend: 0x0, symName: __ZNSt3__16__treeINS_12basic_stringIcNS_11char_traitsIcEENS_9allocatorIcEEEENS_4lessIS6_EENS4_IS6_EEE18_DetachedTreeCacheC2B8ne180100EPSA_, symObjAddr: 0x2ABF0, symBinAddr: 0x10002C0C0, symSize: 0xE8 }
  - { offset: 0x1F393, size: 0x8, addend: 0x0, symName: __ZNSt3__16__treeINS_12basic_stringIcNS_11char_traitsIcEENS_9allocatorIcEEEENS_4lessIS6_EENS4_IS6_EEE18_DetachedTreeCache18__detach_from_treeEPSA_, symObjAddr: 0x2ACD8, symBinAddr: 0x10002C1A8, symSize: 0x6E8 }
  - { offset: 0x1F3C6, size: 0x8, addend: 0x0, symName: __ZNSt3__16__treeINS_12basic_stringIcNS_11char_traitsIcEENS_9allocatorIcEEEENS_4lessIS6_EENS4_IS6_EEE16__find_leaf_highERPNS_15__tree_end_nodeIPNS_16__tree_node_baseIPvEEEERKS6_, symObjAddr: 0x2B3C0, symBinAddr: 0x10002C890, symSize: 0x8B8 }
  - { offset: 0x1F41B, size: 0x8, addend: 0x0, symName: __ZNSt3__16__treeINS_12basic_stringIcNS_11char_traitsIcEENS_9allocatorIcEEEENS_4lessIS6_EENS4_IS6_EEE18_DetachedTreeCache13__detach_nextEPNS_11__tree_nodeIS6_PvEE, symObjAddr: 0x2BC78, symBinAddr: 0x10002D148, symSize: 0x9C0 }
  - { offset: 0x1F43F, size: 0x8, addend: 0x0, symName: __ZNSt3__16__treeINS_12basic_stringIcNS_11char_traitsIcEENS_9allocatorIcEEEENS_4lessIS6_EENS4_IS6_EEE18_DetachedTreeCacheD2B8ne180100Ev, symObjAddr: 0x2C920, symBinAddr: 0x10002DDF0, symSize: 0x440 }
  - { offset: 0x1F469, size: 0x8, addend: 0x0, symName: __ZNSt3__16__treeINS_12basic_stringIcNS_11char_traitsIcEENS_9allocatorIcEEEENS_4lessIS6_EENS4_IS6_EEE15__emplace_multiIJRKS6_EEENS_15__tree_iteratorIS6_PNS_11__tree_nodeIS6_PvEElEEDpOT_, symObjAddr: 0x2CD60, symBinAddr: 0x10002E230, symSize: 0x450 }
  - { offset: 0x1F4E2, size: 0x8, addend: 0x0, symName: __ZNKSt3__16__treeINS_12basic_stringIcNS_11char_traitsIcEENS_9allocatorIcEEEENS_4lessIS6_EENS4_IS6_EEE12__begin_nodeB8ne180100Ev, symObjAddr: 0x2D1B0, symBinAddr: 0x10002E680, symSize: 0x80 }
  - { offset: 0x1F508, size: 0x8, addend: 0x0, symName: __ZNSt3__121__tree_const_iteratorINS_12basic_stringIcNS_11char_traitsIcEENS_9allocatorIcEEEEPNS_11__tree_nodeIS6_PvEElEC1B8ne180100EPNS_15__tree_end_nodeIPNS_16__tree_node_baseIS8_EEEE, symObjAddr: 0x2D230, symBinAddr: 0x10002E700, symSize: 0x60 }
  - { offset: 0x1F541, size: 0x8, addend: 0x0, symName: __ZNSt3__121__tree_const_iteratorINS_12basic_stringIcNS_11char_traitsIcEENS_9allocatorIcEEEEPNS_11__tree_nodeIS6_PvEElEC2B8ne180100EPNS_15__tree_end_nodeIPNS_16__tree_node_baseIS8_EEEE, symObjAddr: 0x2D290, symBinAddr: 0x10002E760, symSize: 0x90 }
  - { offset: 0x1F57A, size: 0x8, addend: 0x0, symName: __ZNSt3__13mapINS_12basic_stringIcNS_11char_traitsIcEENS_9allocatorIcEEEENS_3setIS6_NS_4lessIS6_EENS4_IS6_EEEES9_NS4_INS_4pairIKS6_SB_EEEEEC2B8ne180100Ev, symObjAddr: 0x2D320, symBinAddr: 0x10002E7F0, symSize: 0x190 }
  - { offset: 0x1F5A5, size: 0x8, addend: 0x0, symName: __ZNSt3__119__map_value_compareINS_12basic_stringIcNS_11char_traitsIcEENS_9allocatorIcEEEENS_12__value_typeIS6_NS_3setIS6_NS_4lessIS6_EENS4_IS6_EEEEEESA_Lb1EEC1B8ne180100ESA_, symObjAddr: 0x2D4B0, symBinAddr: 0x10002E980, symSize: 0x40 }
  - { offset: 0x1F5DE, size: 0x8, addend: 0x0, symName: __ZNSt3__16__treeINS_12__value_typeINS_12basic_stringIcNS_11char_traitsIcEENS_9allocatorIcEEEENS_3setIS7_NS_4lessIS7_EENS5_IS7_EEEEEENS_19__map_value_compareIS7_SD_SA_Lb1EEENS5_ISD_EEEC1ERKSF_, symObjAddr: 0x2D4F0, symBinAddr: 0x10002E9C0, symSize: 0x60 }
  - { offset: 0x1F619, size: 0x8, addend: 0x0, symName: __ZNSt3__119__map_value_compareINS_12basic_stringIcNS_11char_traitsIcEENS_9allocatorIcEEEENS_12__value_typeIS6_NS_3setIS6_NS_4lessIS6_EENS4_IS6_EEEEEESA_Lb1EEC2B8ne180100ESA_, symObjAddr: 0x2D550, symBinAddr: 0x10002EA20, symSize: 0x40 }
  - { offset: 0x1F652, size: 0x8, addend: 0x0, symName: __ZNSt3__16__treeINS_12__value_typeINS_12basic_stringIcNS_11char_traitsIcEENS_9allocatorIcEEEENS_3setIS7_NS_4lessIS7_EENS5_IS7_EEEEEENS_19__map_value_compareIS7_SD_SA_Lb1EEENS5_ISD_EEEC2ERKSF_, symObjAddr: 0x2D590, symBinAddr: 0x10002EA60, symSize: 0x270 }
  - { offset: 0x1F68F, size: 0x8, addend: 0x0, symName: __ZNSt3__117__compressed_pairINS_15__tree_end_nodeIPNS_16__tree_node_baseIPvEEEENS_9allocatorINS_11__tree_nodeINS_12__value_typeINS_12basic_stringIcNS_11char_traitsIcEENS7_IcEEEENS_3setISE_NS_4lessISE_EENS7_ISE_EEEEEES3_EEEEEC1B8ne180100ILb1EvEEv, symObjAddr: 0x2D800, symBinAddr: 0x10002ECD0, symSize: 0x50 }
  - { offset: 0x1F6C4, size: 0x8, addend: 0x0, symName: __ZNSt3__117__compressed_pairImNS_19__map_value_compareINS_12basic_stringIcNS_11char_traitsIcEENS_9allocatorIcEEEENS_12__value_typeIS7_NS_3setIS7_NS_4lessIS7_EENS5_IS7_EEEEEESB_Lb1EEEEC1B8ne180100IiRKSF_EEOT_OT0_, symObjAddr: 0x2D850, symBinAddr: 0x10002ED20, symSize: 0x60 }
  - { offset: 0x1F71C, size: 0x8, addend: 0x0, symName: __ZNSt3__117__compressed_pairINS_15__tree_end_nodeIPNS_16__tree_node_baseIPvEEEENS_9allocatorINS_11__tree_nodeINS_12__value_typeINS_12basic_stringIcNS_11char_traitsIcEENS7_IcEEEENS_3setISE_NS_4lessISE_EENS7_ISE_EEEEEES3_EEEEEC2B8ne180100ILb1EvEEv, symObjAddr: 0x2D8B0, symBinAddr: 0x10002ED80, symSize: 0xB0 }
  - { offset: 0x1F751, size: 0x8, addend: 0x0, symName: __ZNSt3__122__compressed_pair_elemINS_9allocatorINS_11__tree_nodeINS_12__value_typeINS_12basic_stringIcNS_11char_traitsIcEENS1_IcEEEENS_3setIS8_NS_4lessIS8_EENS1_IS8_EEEEEEPvEEEELi1ELb1EEC2B8ne180100ENS_16__value_init_tagE, symObjAddr: 0x2D960, symBinAddr: 0x10002EE30, symSize: 0x60 }
  - { offset: 0x1F785, size: 0x8, addend: 0x0, symName: __ZNSt3__19allocatorINS_11__tree_nodeINS_12__value_typeINS_12basic_stringIcNS_11char_traitsIcEENS0_IcEEEENS_3setIS7_NS_4lessIS7_EENS0_IS7_EEEEEEPvEEEC2B8ne180100Ev, symObjAddr: 0x2D9C0, symBinAddr: 0x10002EE90, symSize: 0x60 }
  - { offset: 0x1F7AF, size: 0x8, addend: 0x0, symName: __ZNSt3__116__non_trivial_ifILb1ENS_9allocatorINS_11__tree_nodeINS_12__value_typeINS_12basic_stringIcNS_11char_traitsIcEENS1_IcEEEENS_3setIS8_NS_4lessIS8_EENS1_IS8_EEEEEEPvEEEEEC2B8ne180100Ev, symObjAddr: 0x2DA20, symBinAddr: 0x10002EEF0, symSize: 0x40 }
  - { offset: 0x1F7D9, size: 0x8, addend: 0x0, symName: __ZNSt3__117__compressed_pairImNS_19__map_value_compareINS_12basic_stringIcNS_11char_traitsIcEENS_9allocatorIcEEEENS_12__value_typeIS7_NS_3setIS7_NS_4lessIS7_EENS5_IS7_EEEEEESB_Lb1EEEEC2B8ne180100IiRKSF_EEOT_OT0_, symObjAddr: 0x2DA60, symBinAddr: 0x10002EF30, symSize: 0x110 }
  - { offset: 0x1F831, size: 0x8, addend: 0x0, symName: __ZNSt3__122__compressed_pair_elemINS_19__map_value_compareINS_12basic_stringIcNS_11char_traitsIcEENS_9allocatorIcEEEENS_12__value_typeIS7_NS_3setIS7_NS_4lessIS7_EENS5_IS7_EEEEEESB_Lb1EEELi1ELb1EEC2B8ne180100IRKSF_vEEOT_, symObjAddr: 0x2DB70, symBinAddr: 0x10002F040, symSize: 0x40 }
  - { offset: 0x1F873, size: 0x8, addend: 0x0, symName: __ZNSt3__13mapINS_12basic_stringIcNS_11char_traitsIcEENS_9allocatorIcEEEENS_3setIS6_NS_4lessIS6_EENS4_IS6_EEEES9_NS4_INS_4pairIKS6_SB_EEEEED2B8ne180100Ev, symObjAddr: 0x2DBB0, symBinAddr: 0x10002F080, symSize: 0x50 }
  - { offset: 0x1F89D, size: 0x8, addend: 0x0, symName: __ZNSt3__16__treeINS_12__value_typeINS_12basic_stringIcNS_11char_traitsIcEENS_9allocatorIcEEEENS_3setIS7_NS_4lessIS7_EENS5_IS7_EEEEEENS_19__map_value_compareIS7_SD_SA_Lb1EEENS5_ISD_EEED1Ev, symObjAddr: 0x2DC00, symBinAddr: 0x10002F0D0, symSize: 0x50 }
  - { offset: 0x1F8C9, size: 0x8, addend: 0x0, symName: __ZNSt3__16__treeINS_12__value_typeINS_12basic_stringIcNS_11char_traitsIcEENS_9allocatorIcEEEENS_3setIS7_NS_4lessIS7_EENS5_IS7_EEEEEENS_19__map_value_compareIS7_SD_SA_Lb1EEENS5_ISD_EEED2Ev, symObjAddr: 0x2DC50, symBinAddr: 0x10002F120, symSize: 0x60 }
  - { offset: 0x1F8F5, size: 0x8, addend: 0x0, symName: __ZNSt3__16__treeINS_12__value_typeINS_12basic_stringIcNS_11char_traitsIcEENS_9allocatorIcEEEENS_3setIS7_NS_4lessIS7_EENS5_IS7_EEEEEENS_19__map_value_compareIS7_SD_SA_Lb1EEENS5_ISD_EEE7destroyEPNS_11__tree_nodeISD_PvEE, symObjAddr: 0x2DCB0, symBinAddr: 0x10002F180, symSize: 0x380 }
  - { offset: 0x1F941, size: 0x8, addend: 0x0, symName: __ZNKSt3__16__treeINS_12__value_typeINS_12basic_stringIcNS_11char_traitsIcEENS_9allocatorIcEEEENS_3setIS7_NS_4lessIS7_EENS5_IS7_EEEEEENS_19__map_value_compareIS7_SD_SA_Lb1EEENS5_ISD_EEE4sizeB8ne180100Ev, symObjAddr: 0x2E030, symBinAddr: 0x10002F500, symSize: 0xC0 }
  - { offset: 0x1F967, size: 0x8, addend: 0x0, symName: __ZNKSt3__117__compressed_pairImNS_19__map_value_compareINS_12basic_stringIcNS_11char_traitsIcEENS_9allocatorIcEEEENS_12__value_typeIS7_NS_3setIS7_NS_4lessIS7_EENS5_IS7_EEEEEESB_Lb1EEEE5firstB8ne180100Ev, symObjAddr: 0x2E0F0, symBinAddr: 0x10002F5C0, symSize: 0xE0 }
  - { offset: 0x1F98D, size: 0x8, addend: 0x0, symName: __ZNKSt3__122__compressed_pair_elemImLi0ELb0EE5__getB8ne180100Ev, symObjAddr: 0x2E1D0, symBinAddr: 0x10002F6A0, symSize: 0x80 }
  - { offset: 0x1F9B3, size: 0x8, addend: 0x0, symName: __ZNKSt3__113basic_filebufIcNS_11char_traitsIcEEE7is_openEv, symObjAddr: 0x2E250, symBinAddr: 0x10002F720, symSize: 0x110 }
  - { offset: 0x1F9DB, size: 0x8, addend: 0x0, symName: __ZNKSt3__16__treeINS_12basic_stringIcNS_11char_traitsIcEENS_9allocatorIcEEEENS_4lessIS6_EENS4_IS6_EEE4sizeB8ne180100Ev, symObjAddr: 0x2E360, symBinAddr: 0x10002F830, symSize: 0xC0 }
  - { offset: 0x1FA01, size: 0x8, addend: 0x0, symName: __ZNKSt3__117__compressed_pairImNS_4lessINS_12basic_stringIcNS_11char_traitsIcEENS_9allocatorIcEEEEEEE5firstB8ne180100Ev, symObjAddr: 0x2E420, symBinAddr: 0x10002F8F0, symSize: 0xE0 }
  - { offset: 0x21D2D, size: 0x8, addend: 0x0, symName: _.str, symObjAddr: 0x7560, symBinAddr: 0x100039BE0, symSize: 0x0 }
  - { offset: 0x24B2B, size: 0x8, addend: 0x0, symName: _main, symObjAddr: 0x8, symBinAddr: 0x10002FA58, symSize: 0x268 }
...
