---
triple:          'x86_64-apple-darwin'
binary-path:     search_tests
relocations:
  - { offset: 0x3B, size: 0x8, addend: 0x0, symName: _.str, symObjAddr: 0x3C1E0, symBinAddr: 0x1001CD520, symSize: 0x0 }
  - { offset: 0x6B, size: 0x8, addend: 0x0, symName: _.str.1, symObjAddr: 0x3C200, symBinAddr: 0x1001CD540, symSize: 0x0 }
  - { offset: 0x87, size: 0x8, addend: 0x0, symName: __ZN12_GLOBAL__N_125BuildIndex_TinierTxt_Test10test_info_E, symObjAddr: 0x11E840, symBinAddr: 0x1002EFA60, symSize: 0x0 }
  - { offset: 0x853, size: 0x8, addend: 0x0, symName: __ZN7testing8internal31CanonicalizeForStdLibVersioningENSt3__112basic_stringIcNS1_11char_traitsIcEENS1_9allocatorIcEEEE, symObjAddr: 0x30C68, symBinAddr: 0x100032158, symSize: 0x238 }
  - { offset: 0x87C, size: 0x8, addend: 0x0, symName: __ZZN7testing8internal31CanonicalizeForStdLibVersioningENSt3__112basic_stringIcNS1_11char_traitsIcEENS1_9allocatorIcEEEEE6prefix, symObjAddr: 0x4947C, symBinAddr: 0x1001F497C, symSize: 0x0 }
  - { offset: 0x891, size: 0x8, addend: 0x0, symName: __ZZN7testing8internal31CanonicalizeForStdLibVersioningENSt3__112basic_stringIcNS1_11char_traitsIcEENS1_9allocatorIcEEEEE9to_search, symObjAddr: 0x49484, symBinAddr: 0x1001F4984, symSize: 0x0 }
  - { offset: 0x1066, size: 0x8, addend: 0x0, symName: __ZN7testing8internal33MakePredicateFormatterFromMatcherINS_18PolymorphicMatcherINS0_18ContainerEqMatcherINSt3__13mapINS4_12basic_stringIcNS4_11char_traitsIcEENS4_9allocatorIcEEEENS4_3setISB_NS4_4lessISB_EENS9_ISB_EEEESE_NS9_INS4_4pairIKSB_SG_EEEEEEEEEEEENS0_29PredicateFormatterFromMatcherIT_EESP_, symObjAddr: 0x4FA8, symBinAddr: 0x100006498, symSize: 0x2A0 }
  - { offset: 0x109F, size: 0x8, addend: 0x0, symName: __ZN7testing8internal33MakePredicateFormatterFromMatcherINS0_9EqMatcherIiEEEENS0_29PredicateFormatterFromMatcherIT_EES5_, symObjAddr: 0x66A8, symBinAddr: 0x100007B98, symSize: 0x170 }
  - { offset: 0x10D7, size: 0x8, addend: 0x0, symName: __ZN7testing8internal20MatchPrintAndExplainIKNSt3__13mapINS2_12basic_stringIcNS2_11char_traitsIcEENS2_9allocatorIcEEEENS2_3setIS9_NS2_4lessIS9_EENS7_IS9_EEEESC_NS7_INS2_4pairIKS9_SE_EEEEEERSK_EEbRT_RKNS_7MatcherIT0_EEPNS_19MatchResultListenerE, symObjAddr: 0x1FF38, symBinAddr: 0x100021428, symSize: 0xE30 }
  - { offset: 0x1209, size: 0x8, addend: 0x0, symName: __ZN7testing8internal14UniversalPrintINSt3__13mapINS2_12basic_stringIcNS2_11char_traitsIcEENS2_9allocatorIcEEEENS2_3setIS9_NS2_4lessIS9_EENS7_IS9_EEEESC_NS7_INS2_4pairIKS9_SE_EEEEEEEEvRKT_PNS2_13basic_ostreamIcS6_EE, symObjAddr: 0x22558, symBinAddr: 0x100023A48, symSize: 0x60 }
  - { offset: 0x1277, size: 0x8, addend: 0x0, symName: __ZN7testing8internal7PrintToINSt3__13mapINS2_12basic_stringIcNS2_11char_traitsIcEENS2_9allocatorIcEEEENS2_3setIS9_NS2_4lessIS9_EENS7_IS9_EEEESC_NS7_INS2_4pairIKS9_SE_EEEEEEEEvRKT_PNS2_13basic_ostreamIcS6_EE, symObjAddr: 0x22618, symBinAddr: 0x100023B08, symSize: 0x60 }
  - { offset: 0x12B9, size: 0x8, addend: 0x0, symName: __ZN7testing8internal17PrintWithFallbackINSt3__13mapINS2_12basic_stringIcNS2_11char_traitsIcEENS2_9allocatorIcEEEENS2_3setIS9_NS2_4lessIS9_EENS7_IS9_EEEESC_NS7_INS2_4pairIKS9_SE_EEEEEEEEvRKT_PNS2_13basic_ostreamIcS6_EE, symObjAddr: 0x22678, symBinAddr: 0x100023B68, symSize: 0x60 }
  - { offset: 0x1345, size: 0x8, addend: 0x0, symName: __ZN7testing8internal14UniversalPrintINSt3__14pairIKNS2_12basic_stringIcNS2_11char_traitsIcEENS2_9allocatorIcEEEENS2_3setIS9_NS2_4lessIS9_EENS7_IS9_EEEEEEEEvRKT_PNS2_13basic_ostreamIcS6_EE, symObjAddr: 0x22E08, symBinAddr: 0x1000242F8, symSize: 0x60 }
  - { offset: 0x13B1, size: 0x8, addend: 0x0, symName: __ZN7testing8internal7PrintToIKNSt3__112basic_stringIcNS2_11char_traitsIcEENS2_9allocatorIcEEEENS2_3setIS8_NS2_4lessIS8_EENS6_IS8_EEEEEEvRKNS2_4pairIT_T0_EEPNS2_13basic_ostreamIcS5_EE, symObjAddr: 0x26768, symBinAddr: 0x100027C58, symSize: 0x170 }
  - { offset: 0x1454, size: 0x8, addend: 0x0, symName: __ZN7testing8internal7PrintToERKNSt3__112basic_stringIcNS1_11char_traitsIcEENS1_9allocatorIcEEEEPNS1_13basic_ostreamIcS4_EE, symObjAddr: 0x26998, symBinAddr: 0x100027E88, symSize: 0x60 }
  - { offset: 0x148D, size: 0x8, addend: 0x0, symName: __ZN7testing8internal7PrintToINSt3__13setINS2_12basic_stringIcNS2_11char_traitsIcEENS2_9allocatorIcEEEENS2_4lessIS9_EENS7_IS9_EEEEEEvRKT_PNS2_13basic_ostreamIcS6_EE, symObjAddr: 0x269F8, symBinAddr: 0x100027EE8, symSize: 0x60 }
  - { offset: 0x14CF, size: 0x8, addend: 0x0, symName: __ZN7testing8internal17PrintWithFallbackINSt3__13setINS2_12basic_stringIcNS2_11char_traitsIcEENS2_9allocatorIcEEEENS2_4lessIS9_EENS7_IS9_EEEEEEvRKT_PNS2_13basic_ostreamIcS6_EE, symObjAddr: 0x26A58, symBinAddr: 0x100027F48, symSize: 0x60 }
  - { offset: 0x1511, size: 0x8, addend: 0x0, symName: __ZN7testing8internal14UniversalPrintINSt3__112basic_stringIcNS2_11char_traitsIcEENS2_9allocatorIcEEEEEEvRKT_PNS2_13basic_ostreamIcS5_EE, symObjAddr: 0x27018, symBinAddr: 0x100028508, symSize: 0x58 }
  - { offset: 0x1551, size: 0x8, addend: 0x0, symName: __ZN7testing8internal14ArrayAwareFindINSt3__120__map_const_iteratorINS2_21__tree_const_iteratorINS2_12__value_typeINS2_12basic_stringIcNS2_11char_traitsIcEENS2_9allocatorIcEEEENS2_3setISB_NS2_4lessISB_EENS9_ISB_EEEEEEPNS2_11__tree_nodeISH_PvEElEEEENS2_4pairIKSB_SG_EEEET_SR_SR_RKT0_, symObjAddr: 0x28148, symBinAddr: 0x100029638, symSize: 0x278 }
  - { offset: 0x15D6, size: 0x8, addend: 0x0, symName: __ZN7testing8internal7ArrayEqINSt3__14pairIKNS2_12basic_stringIcNS2_11char_traitsIcEENS2_9allocatorIcEEEENS2_3setIS9_NS2_4lessIS9_EENS7_IS9_EEEEEESG_EEbRKT_RKT0_, symObjAddr: 0x29C68, symBinAddr: 0x10002B158, symSize: 0x98 }
  - { offset: 0x1712, size: 0x8, addend: 0x0, symName: __ZN7testing8internal11GetTypeNameIKNSt3__13mapINS2_12basic_stringIcNS2_11char_traitsIcEENS2_9allocatorIcEEEENS2_3setIS9_NS2_4lessIS9_EENS7_IS9_EEEESC_NS7_INS2_4pairIKS9_SE_EEEEEEEES9_v, symObjAddr: 0x304C8, symBinAddr: 0x1000319B8, symSize: 0x40 }
  - { offset: 0x1739, size: 0x8, addend: 0x0, symName: __ZN7testing8internal18IsReadableTypeNameERKNSt3__112basic_stringIcNS1_11char_traitsIcEENS1_9allocatorIcEEEE, symObjAddr: 0x30508, symBinAddr: 0x1000319F8, symSize: 0xB0 }
  - { offset: 0x1767, size: 0x8, addend: 0x0, symName: __ZN7testing8internal15PrintIfNotEmptyERKNSt3__112basic_stringIcNS1_11char_traitsIcEENS1_9allocatorIcEEEEPNS1_13basic_ostreamIcS4_EE, symObjAddr: 0x305B8, symBinAddr: 0x100031AA8, symSize: 0x120 }
  - { offset: 0x17A0, size: 0x8, addend: 0x0, symName: __ZN7testing8internal11GetTypeNameERKSt9type_info, symObjAddr: 0x306D8, symBinAddr: 0x100031BC8, symSize: 0x478 }
  - { offset: 0x1816, size: 0x8, addend: 0x0, symName: __ZN7testing8internal20MatchPrintAndExplainIKiRS2_EEbRT_RKNS_7MatcherIT0_EEPNS_19MatchResultListenerE, symObjAddr: 0x36D68, symBinAddr: 0x100038258, symSize: 0xE18 }
  - { offset: 0x1948, size: 0x8, addend: 0x0, symName: __ZN7testing8internal14UniversalPrintIiEEvRKT_PNSt3__113basic_ostreamIcNS5_11char_traitsIcEEEE, symObjAddr: 0x39748, symBinAddr: 0x10003AC38, symSize: 0x60 }
  - { offset: 0x19B6, size: 0x8, addend: 0x0, symName: __ZN7testing8internal7PrintToIiEEvRKT_PNSt3__113basic_ostreamIcNS5_11char_traitsIcEEEE, symObjAddr: 0x39808, symBinAddr: 0x10003ACF8, symSize: 0x60 }
  - { offset: 0x19F8, size: 0x8, addend: 0x0, symName: __ZN7testing8internal17PrintWithFallbackIiEEvRKT_PNSt3__113basic_ostreamIcNS5_11char_traitsIcEEEE, symObjAddr: 0x39868, symBinAddr: 0x10003AD58, symSize: 0x60 }
  - { offset: 0x1A6A, size: 0x8, addend: 0x0, symName: __ZN7testing8internal11GetTypeNameIKiEENSt3__112basic_stringIcNS3_11char_traitsIcEENS3_9allocatorIcEEEEv, symObjAddr: 0x3AFF8, symBinAddr: 0x10003C4E8, symSize: 0x38 }
  - { offset: 0x1A91, size: 0x8, addend: 0x0, symName: __ZN7testing8internal19GetNotDefaultOrNullEPFvvES2_, symObjAddr: 0x3B128, symBinAddr: 0x10003C618, symSize: 0x40 }
  - { offset: 0x2544, size: 0x8, addend: 0x0, symName: __ZN7testing11ContainerEqINSt3__13mapINS1_12basic_stringIcNS1_11char_traitsIcEENS1_9allocatorIcEEEENS1_3setIS8_NS1_4lessIS8_EENS6_IS8_EEEESB_NS6_INS1_4pairIKS8_SD_EEEEEEEENS_18PolymorphicMatcherINS_8internal18ContainerEqMatcherINS1_12remove_constIT_E4typeEEEEERKSN_, symObjAddr: 0x5248, symBinAddr: 0x100006738, symSize: 0x288 }
  - { offset: 0x27D3, size: 0x8, addend: 0x0, symName: __ZN7testing2EqIiEENS_8internal9EqMatcherIT_EES3_, symObjAddr: 0x6818, symBinAddr: 0x100007D08, symSize: 0x148 }
  - { offset: 0x280D, size: 0x8, addend: 0x0, symName: __ZN7testing22MakePolymorphicMatcherINS_8internal18ContainerEqMatcherINSt3__13mapINS3_12basic_stringIcNS3_11char_traitsIcEENS3_9allocatorIcEEEENS3_3setISA_NS3_4lessISA_EENS8_ISA_EEEESD_NS8_INS3_4pairIKSA_SF_EEEEEEEEEENS_18PolymorphicMatcherIT_EERKSN_, symObjAddr: 0x1ED18, symBinAddr: 0x100020208, symSize: 0x98 }
  - { offset: 0x2844, size: 0x8, addend: 0x0, symName: __ZN7testing15SafeMatcherCastIRKNSt3__13mapINS1_12basic_stringIcNS1_11char_traitsIcEENS1_9allocatorIcEEEENS1_3setIS8_NS1_4lessIS8_EENS6_IS8_EEEESB_NS6_INS1_4pairIKS8_SD_EEEEEENS_18PolymorphicMatcherINS_8internal18ContainerEqMatcherISI_EEEEEENS_7MatcherIT_EERKT0_, symObjAddr: 0x1F1C8, symBinAddr: 0x1000206B8, symSize: 0x68 }
  - { offset: 0x2923, size: 0x8, addend: 0x0, symName: __ZN7testing11MatcherCastIRKNSt3__13mapINS1_12basic_stringIcNS1_11char_traitsIcEENS1_9allocatorIcEEEENS1_3setIS8_NS1_4lessIS8_EENS6_IS8_EEEESB_NS6_INS1_4pairIKS8_SD_EEEEEENS_18PolymorphicMatcherINS_8internal18ContainerEqMatcherISI_EEEEEENS_7MatcherIT_EERKT0_, symObjAddr: 0x215F8, symBinAddr: 0x100022AE8, symSize: 0x70 }
  - { offset: 0x2963, size: 0x8, addend: 0x0, symName: __ZN7testing15SafeMatcherCastIRKiNS_8internal9EqMatcherIiEEEENS_7MatcherIT_EERKT0_, symObjAddr: 0x36478, symBinAddr: 0x100037968, symSize: 0x68 }
  - { offset: 0x2A2C, size: 0x8, addend: 0x0, symName: __ZN7testing11MatcherCastIRKiNS_8internal9EqMatcherIiEEEENS_7MatcherIT_EERKT0_, symObjAddr: 0x37BD8, symBinAddr: 0x1000390C8, symSize: 0x70 }
  - { offset: 0xEF32, size: 0x8, addend: 0x0, symName: __ZNSt3__17advanceB8ne180100INS_21__tree_const_iteratorINS_12basic_stringIcNS_11char_traitsIcEENS_9allocatorIcEEEEPNS_11__tree_nodeIS7_PvEElEEllvEEvRT_T0_, symObjAddr: 0xEB48, symBinAddr: 0x100010038, symSize: 0x70 }
  - { offset: 0xEFBA, size: 0x8, addend: 0x0, symName: __ZNSt3__17advanceB8ne180100INS_21__tree_const_iteratorINS_12__value_typeINS_12basic_stringIcNS_11char_traitsIcEENS_9allocatorIcEEEENS_3setIS8_NS_4lessIS8_EENS6_IS8_EEEEEEPNS_11__tree_nodeISE_PvEElEEllvEEvRT_T0_, symObjAddr: 0x1ACE8, symBinAddr: 0x10001C1D8, symSize: 0x70 }
  - { offset: 0xF041, size: 0x8, addend: 0x0, symName: __ZNSt3__124__put_character_sequenceB8ne180100IcNS_11char_traitsIcEEEERNS_13basic_ostreamIT_T0_EES7_PKS4_m, symObjAddr: 0x22E68, symBinAddr: 0x100024358, symSize: 0xFB8 }
  - { offset: 0xFC3D, size: 0x8, addend: 0x0, symName: __ZNSt3__118__constexpr_strlenB8ne180100EPKc, symObjAddr: 0xFA8, symBinAddr: 0x100002498, symSize: 0x28 }
  - { offset: 0xFC69, size: 0x8, addend: 0x0, symName: __ZNSt3__1plB8ne180100IcNS_11char_traitsIcEENS_9allocatorIcEEEENS_12basic_stringIT_T0_T1_EEOS9_PKS6_, symObjAddr: 0x4EC8, symBinAddr: 0x1000063B8, symSize: 0xE0 }
  - { offset: 0x12F8C, size: 0x8, addend: 0x0, symName: __ZNSt3__1eqB8ne180100ERKNS_21__tree_const_iteratorINS_12basic_stringIcNS_11char_traitsIcEENS_9allocatorIcEEEEPNS_11__tree_nodeIS6_PvEElEESD_, symObjAddr: 0xB758, symBinAddr: 0x10000CC48, symSize: 0xD8 }
  - { offset: 0x12FC9, size: 0x8, addend: 0x0, symName: __ZNSt3__14nextB8ne180100INS_21__tree_const_iteratorINS_12basic_stringIcNS_11char_traitsIcEENS_9allocatorIcEEEEPNS_11__tree_nodeIS7_PvEElEETnNS_9enable_ifIXsr29__has_input_iterator_categoryIT_EE5valueEiE4typeELi0EEESE_SE_NS_15iterator_traitsISE_E15difference_typeE, symObjAddr: 0xCC38, symBinAddr: 0x10000E128, symSize: 0x178 }
  - { offset: 0x13017, size: 0x8, addend: 0x0, symName: __ZNSt3__1ltB8ne180100ENS_15strong_orderingENS_20_CmpUnspecifiedParamE, symObjAddr: 0xD108, symBinAddr: 0x10000E5F8, symSize: 0x30 }
  - { offset: 0x1304E, size: 0x8, addend: 0x0, symName: __ZNSt3__1ssB8ne180100IcNS_11char_traitsIcEENS_9allocatorIcEEEEDaRKNS_12basic_stringIT_T0_T1_EESB_, symObjAddr: 0xD138, symBinAddr: 0x10000E628, symSize: 0xA8 }
  - { offset: 0x130C2, size: 0x8, addend: 0x0, symName: __ZNSt3__1ssB8ne180100IcNS_11char_traitsIcEEEEDaNS_17basic_string_viewIT_T0_EENS_13type_identityIS6_E4typeE, symObjAddr: 0xD238, symBinAddr: 0x10000E728, symSize: 0x1E8 }
  - { offset: 0x13116, size: 0x8, addend: 0x0, symName: __ZNSt3__13minB8ne180100ImEERKT_S3_S3_, symObjAddr: 0xD948, symBinAddr: 0x10000EE38, symSize: 0xC8 }
  - { offset: 0x13159, size: 0x8, addend: 0x0, symName: __ZNSt3__13minB8ne180100ImNS_6__lessIvvEEEERKT_S5_S5_T0_, symObjAddr: 0xDB58, symBinAddr: 0x10000F048, symSize: 0x218 }
  - { offset: 0x13200, size: 0x8, addend: 0x0, symName: __ZNSt3__112__to_addressB8ne180100IKcEEPT_S3_, symObjAddr: 0xDEF8, symBinAddr: 0x10000F3E8, symSize: 0x18 }
  - { offset: 0x13268, size: 0x8, addend: 0x0, symName: __ZNSt3__116__tree_prev_iterB8ne180100IPNS_16__tree_node_baseIPvEEPNS_15__tree_end_nodeIS4_EEEET_T0_, symObjAddr: 0xE398, symBinAddr: 0x10000F888, symSize: 0x270 }
  - { offset: 0x132B4, size: 0x8, addend: 0x0, symName: __ZNSt3__110__tree_maxB8ne180100IPNS_16__tree_node_baseIPvEEEET_S5_, symObjAddr: 0xE608, symBinAddr: 0x10000FAF8, symSize: 0x170 }
  - { offset: 0x132E9, size: 0x8, addend: 0x0, symName: __ZNSt3__120__tree_is_left_childB8ne180100IPNS_16__tree_node_baseIPvEEEEbT_, symObjAddr: 0xE778, symBinAddr: 0x10000FC68, symSize: 0x158 }
  - { offset: 0x1331E, size: 0x8, addend: 0x0, symName: __ZNSt3__121__convert_to_integralB8ne180100El, symObjAddr: 0xEBB8, symBinAddr: 0x1000100A8, symSize: 0x20 }
  - { offset: 0x1334B, size: 0x8, addend: 0x0, symName: __ZNSt3__19__advanceB8ne180100INS_21__tree_const_iteratorINS_12basic_stringIcNS_11char_traitsIcEENS_9allocatorIcEEEEPNS_11__tree_nodeIS7_PvEElEEEEvRT_NS_15iterator_traitsISD_E15difference_typeENS_26bidirectional_iterator_tagE, symObjAddr: 0xEBD8, symBinAddr: 0x1000100C8, symSize: 0x148 }
  - { offset: 0x13395, size: 0x8, addend: 0x0, symName: __ZNSt3__116__tree_next_iterB8ne180100IPNS_15__tree_end_nodeIPNS_16__tree_node_baseIPvEEEES5_EET_T0_, symObjAddr: 0xEE48, symBinAddr: 0x100010338, symSize: 0x2B0 }
  - { offset: 0x133D3, size: 0x8, addend: 0x0, symName: __ZNSt3__110__tree_minB8ne180100IPNS_16__tree_node_baseIPvEEEET_S5_, symObjAddr: 0xF0F8, symBinAddr: 0x1000105E8, symSize: 0x198 }
  - { offset: 0x13426, size: 0x8, addend: 0x0, symName: __ZNSt3__117__libcpp_allocateB8ne180100Emm, symObjAddr: 0xF958, symBinAddr: 0x100010E48, symSize: 0x70 }
  - { offset: 0x1366D, size: 0x8, addend: 0x0, symName: __ZNSt3__124__is_overaligned_for_newB8ne180100Em, symObjAddr: 0xFA08, symBinAddr: 0x100010EF8, symSize: 0x20 }
  - { offset: 0x1369B, size: 0x8, addend: 0x0, symName: __ZNSt3__121__libcpp_operator_newB8ne180100IJmSt11align_val_tEEEPvDpT_, symObjAddr: 0xFA28, symBinAddr: 0x100010F18, symSize: 0x70 }
  - { offset: 0x136E8, size: 0x8, addend: 0x0, symName: __ZNSt3__121__libcpp_operator_newB8ne180100IJmEEEPvDpT_, symObjAddr: 0xFA98, symBinAddr: 0x100010F88, symSize: 0x28 }
  - { offset: 0x13721, size: 0x8, addend: 0x0, symName: __ZNSt3__114__construct_atB8ne180100INS_12basic_stringIcNS_11char_traitsIcEENS_9allocatorIcEEEEJRKS6_EPS6_EEPT_SB_DpOT0_, symObjAddr: 0x100C8, symBinAddr: 0x1000115B8, symSize: 0x70 }
  - { offset: 0x1379B, size: 0x8, addend: 0x0, symName: __ZNSt3__112construct_atB8ne180100INS_12basic_stringIcNS_11char_traitsIcEENS_9allocatorIcEEEEJRKS6_EPS6_EEPT_SB_DpOT0_, symObjAddr: 0x10138, symBinAddr: 0x100011628, symSize: 0xD8 }
  - { offset: 0x1380D, size: 0x8, addend: 0x0, symName: __ZNSt3__127__tree_balance_after_insertB8ne180100IPNS_16__tree_node_baseIPvEEEEvT_S5_, symObjAddr: 0x104D8, symBinAddr: 0x1000119C8, symSize: 0x13B8 }
  - { offset: 0x13883, size: 0x8, addend: 0x0, symName: __ZNSt3__118__tree_left_rotateB8ne180100IPNS_16__tree_node_baseIPvEEEEvT_, symObjAddr: 0x11958, symBinAddr: 0x100012E48, symSize: 0x8D0 }
  - { offset: 0x138C2, size: 0x8, addend: 0x0, symName: __ZNSt3__119__tree_right_rotateB8ne180100IPNS_16__tree_node_baseIPvEEEEvT_, symObjAddr: 0x12228, symBinAddr: 0x100013718, symSize: 0x8B8 }
  - { offset: 0x13905, size: 0x8, addend: 0x0, symName: __ZNSt3__112__destroy_atB8ne180100INS_12basic_stringIcNS_11char_traitsIcEENS_9allocatorIcEEEETnNS_9enable_ifIXntsr8is_arrayIT_EE5valueEiE4typeELi0EEEvPS8_, symObjAddr: 0x13378, symBinAddr: 0x100014868, symSize: 0x58 }
  - { offset: 0x1393C, size: 0x8, addend: 0x0, symName: __ZNSt3__119__libcpp_deallocateB8ne180100EPvmm, symObjAddr: 0x13448, symBinAddr: 0x100014938, symSize: 0x70 }
  - { offset: 0x139A1, size: 0x8, addend: 0x0, symName: __ZNSt3__127__do_deallocate_handle_sizeB8ne180100IJSt11align_val_tEEEvPvmDpT_, symObjAddr: 0x134B8, symBinAddr: 0x1000149A8, symSize: 0x30 }
  - { offset: 0x139F4, size: 0x8, addend: 0x0, symName: __ZNSt3__127__do_deallocate_handle_sizeB8ne180100IJEEEvPvmDpT_, symObjAddr: 0x134E8, symBinAddr: 0x1000149D8, symSize: 0x30 }
  - { offset: 0x13A33, size: 0x8, addend: 0x0, symName: __ZNSt3__124__libcpp_operator_deleteB8ne180100IJPvSt11align_val_tEEEvDpT_, symObjAddr: 0x13518, symBinAddr: 0x100014A08, symSize: 0x30 }
  - { offset: 0x13A7C, size: 0x8, addend: 0x0, symName: __ZNSt3__124__libcpp_operator_deleteB8ne180100IJPvEEEvDpT_, symObjAddr: 0x13548, symBinAddr: 0x100014A38, symSize: 0x28 }
  - { offset: 0x13AB1, size: 0x8, addend: 0x0, symName: __ZNSt3__1neB8ne180100ERKNS_21__tree_const_iteratorINS_12basic_stringIcNS_11char_traitsIcEENS_9allocatorIcEEEEPNS_11__tree_nodeIS6_PvEElEESD_, symObjAddr: 0x14AA8, symBinAddr: 0x100015F98, symSize: 0x98 }
  - { offset: 0x13AEE, size: 0x8, addend: 0x0, symName: __ZNSt3__1eqB8ne180100ERKNS_21__tree_const_iteratorINS_12__value_typeINS_12basic_stringIcNS_11char_traitsIcEENS_9allocatorIcEEEENS_3setIS7_NS_4lessIS7_EENS5_IS7_EEEEEEPNS_11__tree_nodeISD_PvEElEESK_, symObjAddr: 0x19028, symBinAddr: 0x10001A518, symSize: 0xD8 }
  - { offset: 0x13B2B, size: 0x8, addend: 0x0, symName: __ZNSt3__14nextB8ne180100INS_21__tree_const_iteratorINS_12__value_typeINS_12basic_stringIcNS_11char_traitsIcEENS_9allocatorIcEEEENS_3setIS8_NS_4lessIS8_EENS6_IS8_EEEEEEPNS_11__tree_nodeISE_PvEElEETnNS_9enable_ifIXsr29__has_input_iterator_categoryIT_EE5valueEiE4typeELi0EEESL_SL_NS_15iterator_traitsISL_E15difference_typeE, symObjAddr: 0x1A588, symBinAddr: 0x10001BA78, symSize: 0x178 }
  - { offset: 0x13B79, size: 0x8, addend: 0x0, symName: __ZNSt3__17launderB8ne180100IKNS_4pairIKNS_12basic_stringIcNS_11char_traitsIcEENS_9allocatorIcEEEENS_3setIS7_NS_4lessIS7_EENS5_IS7_EEEEEEEEPT_SH_, symObjAddr: 0x1AAE8, symBinAddr: 0x10001BFD8, symSize: 0x30 }
  - { offset: 0x13BB0, size: 0x8, addend: 0x0, symName: __ZNSt3__19__launderB8ne180100IKNS_4pairIKNS_12basic_stringIcNS_11char_traitsIcEENS_9allocatorIcEEEENS_3setIS7_NS_4lessIS7_EENS5_IS7_EEEEEEEEPT_SH_, symObjAddr: 0x1AB18, symBinAddr: 0x10001C008, symSize: 0x18 }
  - { offset: 0x13BE8, size: 0x8, addend: 0x0, symName: __ZNSt3__19__advanceB8ne180100INS_21__tree_const_iteratorINS_12__value_typeINS_12basic_stringIcNS_11char_traitsIcEENS_9allocatorIcEEEENS_3setIS8_NS_4lessIS8_EENS6_IS8_EEEEEEPNS_11__tree_nodeISE_PvEElEEEEvRT_NS_15iterator_traitsISK_E15difference_typeENS_26bidirectional_iterator_tagE, symObjAddr: 0x1AD58, symBinAddr: 0x10001C248, symSize: 0x148 }
  - { offset: 0x13C50, size: 0x8, addend: 0x0, symName: __ZNSt3__114__construct_atB8ne180100INS_4pairIKNS_12basic_stringIcNS_11char_traitsIcEENS_9allocatorIcEEEENS_3setIS7_NS_4lessIS7_EENS5_IS7_EEEEEEJRKSE_EPSE_EEPT_SJ_DpOT0_, symObjAddr: 0x1BC38, symBinAddr: 0x10001D128, symSize: 0x70 }
  - { offset: 0x13CCA, size: 0x8, addend: 0x0, symName: __ZNSt3__112construct_atB8ne180100INS_4pairIKNS_12basic_stringIcNS_11char_traitsIcEENS_9allocatorIcEEEENS_3setIS7_NS_4lessIS7_EENS5_IS7_EEEEEEJRKSE_EPSE_EEPT_SJ_DpOT0_, symObjAddr: 0x1BCA8, symBinAddr: 0x10001D198, symSize: 0xD8 }
  - { offset: 0x13D3C, size: 0x8, addend: 0x0, symName: __ZNSt3__17launderB8ne180100INS_4pairIKNS_12basic_stringIcNS_11char_traitsIcEENS_9allocatorIcEEEENS_3setIS7_NS_4lessIS7_EENS5_IS7_EEEEEEEEPT_SG_, symObjAddr: 0x1BF78, symBinAddr: 0x10001D468, symSize: 0x30 }
  - { offset: 0x13D73, size: 0x8, addend: 0x0, symName: __ZNSt3__19__launderB8ne180100INS_4pairIKNS_12basic_stringIcNS_11char_traitsIcEENS_9allocatorIcEEEENS_3setIS7_NS_4lessIS7_EENS5_IS7_EEEEEEEEPT_SG_, symObjAddr: 0x1BFA8, symBinAddr: 0x10001D498, symSize: 0x18 }
  - { offset: 0x13DAB, size: 0x8, addend: 0x0, symName: __ZNSt3__112__destroy_atB8ne180100INS_4pairIKNS_12basic_stringIcNS_11char_traitsIcEENS_9allocatorIcEEEENS_3setIS7_NS_4lessIS7_EENS5_IS7_EEEEEETnNS_9enable_ifIXntsr8is_arrayIT_EE5valueEiE4typeELi0EEEvPSG_, symObjAddr: 0x1CAA8, symBinAddr: 0x10001DF98, symSize: 0x58 }
  - { offset: 0x13DE2, size: 0x8, addend: 0x0, symName: __ZNSt3__1neB8ne180100ERKNS_20__map_const_iteratorINS_21__tree_const_iteratorINS_12__value_typeINS_12basic_stringIcNS_11char_traitsIcEENS_9allocatorIcEEEENS_3setIS8_NS_4lessIS8_EENS6_IS8_EEEEEEPNS_11__tree_nodeISE_PvEElEEEESM_, symObjAddr: 0x1E628, symBinAddr: 0x10001FB18, symSize: 0x98 }
  - { offset: 0x13E1F, size: 0x8, addend: 0x0, symName: __ZNSt3__1neB8ne180100ERKNS_21__tree_const_iteratorINS_12__value_typeINS_12basic_stringIcNS_11char_traitsIcEENS_9allocatorIcEEEENS_3setIS7_NS_4lessIS7_EENS5_IS7_EEEEEEPNS_11__tree_nodeISD_PvEElEESK_, symObjAddr: 0x1E888, symBinAddr: 0x10001FD78, symSize: 0x98 }
  - { offset: 0x13E8F, size: 0x8, addend: 0x0, symName: __ZNSt3__1lsB8ne180100INS_11char_traitsIcEEEERNS_13basic_ostreamIcT_EES6_PKc, symObjAddr: 0x1F8B8, symBinAddr: 0x100020DA8, symSize: 0xA8 }
  - { offset: 0x13ED5, size: 0x8, addend: 0x0, symName: __ZNSt3__1lsB8ne180100IcNS_11char_traitsIcEENS_9allocatorIcEEEERNS_13basic_ostreamIT_T0_EES9_RKNS_12basic_stringIS6_S7_T1_EE, symObjAddr: 0x20D68, symBinAddr: 0x100022258, symSize: 0xF8 }
  - { offset: 0x13F2D, size: 0x8, addend: 0x0, symName: __ZNSt3__1lsB8ne180100INS_11char_traitsIcEEEERNS_13basic_ostreamIcT_EES6_c, symObjAddr: 0x22C38, symBinAddr: 0x100024128, symSize: 0x1D0 }
  - { offset: 0x13F78, size: 0x8, addend: 0x0, symName: __ZNSt3__116__pad_and_outputB8ne180100IcNS_11char_traitsIcEEEENS_19ostreambuf_iteratorIT_T0_EES6_PKS4_S8_S8_RNS_8ios_baseES4_, symObjAddr: 0x23EE8, symBinAddr: 0x1000253D8, symSize: 0x9E8 }
  - { offset: 0x14053, size: 0x8, addend: 0x0, symName: __ZNSt3__112__to_addressB8ne180100IcEEPT_S2_, symObjAddr: 0x25638, symBinAddr: 0x100026B28, symSize: 0x18 }
  - { offset: 0x14088, size: 0x8, addend: 0x0, symName: __ZNSt3__19use_facetB8ne180100INS_5ctypeIcEEEERKT_RKNS_6localeE, symObjAddr: 0x26298, symBinAddr: 0x100027788, symSize: 0x158 }
  - { offset: 0x14555, size: 0x8, addend: 0x0, symName: __ZNSt3__1eqB8ne180100INS_12basic_stringIcNS_11char_traitsIcEENS_9allocatorIcEEEENS_3setIS6_NS_4lessIS6_EENS4_IS6_EEEES9_NS4_INS_4pairIKS6_SB_EEEEEEbRKNS_3mapIT_T0_T1_T2_EESN_, symObjAddr: 0x27E48, symBinAddr: 0x100029338, symSize: 0x148 }
  - { offset: 0x145B6, size: 0x8, addend: 0x0, symName: __ZNSt3__1eqB8ne180100ERKNS_20__map_const_iteratorINS_21__tree_const_iteratorINS_12__value_typeINS_12basic_stringIcNS_11char_traitsIcEENS_9allocatorIcEEEENS_3setIS8_NS_4lessIS8_EENS6_IS8_EEEEEEPNS_11__tree_nodeISE_PvEElEEEESM_, symObjAddr: 0x280A8, symBinAddr: 0x100029598, symSize: 0xA0 }
  - { offset: 0x145F3, size: 0x8, addend: 0x0, symName: __ZNSt3__15equalB8ne180100INS_20__map_const_iteratorINS_21__tree_const_iteratorINS_12__value_typeINS_12basic_stringIcNS_11char_traitsIcEENS_9allocatorIcEEEENS_3setIS9_NS_4lessIS9_EENS7_IS9_EEEEEEPNS_11__tree_nodeISF_PvEElEEEESL_EEbT_SM_T0_, symObjAddr: 0x284B8, symBinAddr: 0x1000299A8, symSize: 0x68 }
  - { offset: 0x1464D, size: 0x8, addend: 0x0, symName: __ZNSt3__15equalB8ne180100INS_20__map_const_iteratorINS_21__tree_const_iteratorINS_12__value_typeINS_12basic_stringIcNS_11char_traitsIcEENS_9allocatorIcEEEENS_3setIS9_NS_4lessIS9_EENS7_IS9_EEEEEEPNS_11__tree_nodeISF_PvEElEEEESL_NS_10__equal_toEEEbT_SN_T0_T1_, symObjAddr: 0x28748, symBinAddr: 0x100029C38, symSize: 0x200 }
  - { offset: 0x146C5, size: 0x8, addend: 0x0, symName: __ZNSt3__117__equal_iter_implB8ne180100INS_20__map_const_iteratorINS_21__tree_const_iteratorINS_12__value_typeINS_12basic_stringIcNS_11char_traitsIcEENS_9allocatorIcEEEENS_3setIS9_NS_4lessIS9_EENS7_IS9_EEEEEEPNS_11__tree_nodeISF_PvEElEEEESL_NS_10__equal_toEEEbT_SN_T0_RT1_, symObjAddr: 0x28948, symBinAddr: 0x100029E38, symSize: 0x2E0 }
  - { offset: 0x14743, size: 0x8, addend: 0x0, symName: __ZNSt3__113__unwrap_iterB8ne180100INS_20__map_const_iteratorINS_21__tree_const_iteratorINS_12__value_typeINS_12basic_stringIcNS_11char_traitsIcEENS_9allocatorIcEEEENS_3setIS9_NS_4lessIS9_EENS7_IS9_EEEEEEPNS_11__tree_nodeISF_PvEElEEEENS_18__unwrap_iter_implISL_Lb0EEETnNS_9enable_ifIXsr21is_copy_constructibleIT_EE5valueEiE4typeELi0EEEDTclsrT0_8__unwrapclsr3stdE7declvalISP_EEEESP_, symObjAddr: 0x28C28, symBinAddr: 0x10002A118, symSize: 0x38 }
  - { offset: 0x147F3, size: 0x8, addend: 0x0, symName: __ZNSt3__1eqB8ne180100IKNS_12basic_stringIcNS_11char_traitsIcEENS_9allocatorIcEEEENS_3setIS6_NS_4lessIS6_EENS4_IS6_EEEES7_SC_EEbRKNS_4pairIT_T0_EERKNSD_IT1_T2_EE, symObjAddr: 0x28D28, symBinAddr: 0x10002A218, symSize: 0x130 }
  - { offset: 0x14854, size: 0x8, addend: 0x0, symName: __ZNSt3__1eqB8ne180100INS_9allocatorIcEEEEbRKNS_12basic_stringIcNS_11char_traitsIcEET_EES9_, symObjAddr: 0x28E58, symBinAddr: 0x10002A348, symSize: 0x380 }
  - { offset: 0x148C7, size: 0x8, addend: 0x0, symName: __ZNSt3__1eqB8ne180100INS_12basic_stringIcNS_11char_traitsIcEENS_9allocatorIcEEEENS_4lessIS6_EENS4_IS6_EEEEbRKNS_3setIT_T0_T1_EESG_, symObjAddr: 0x291D8, symBinAddr: 0x10002A6C8, symSize: 0x148 }
  - { offset: 0x1491F, size: 0x8, addend: 0x0, symName: __ZNSt3__15equalB8ne180100INS_21__tree_const_iteratorINS_12basic_stringIcNS_11char_traitsIcEENS_9allocatorIcEEEEPNS_11__tree_nodeIS7_PvEElEESC_EEbT_SD_T0_, symObjAddr: 0x29418, symBinAddr: 0x10002A908, symSize: 0x68 }
  - { offset: 0x14979, size: 0x8, addend: 0x0, symName: __ZNSt3__15equalB8ne180100INS_21__tree_const_iteratorINS_12basic_stringIcNS_11char_traitsIcEENS_9allocatorIcEEEEPNS_11__tree_nodeIS7_PvEElEESC_NS_10__equal_toEEEbT_SE_T0_T1_, symObjAddr: 0x29628, symBinAddr: 0x10002AB18, symSize: 0x200 }
  - { offset: 0x149F1, size: 0x8, addend: 0x0, symName: __ZNSt3__117__equal_iter_implB8ne180100INS_21__tree_const_iteratorINS_12basic_stringIcNS_11char_traitsIcEENS_9allocatorIcEEEEPNS_11__tree_nodeIS7_PvEElEESC_NS_10__equal_toEEEbT_SE_T0_RT1_, symObjAddr: 0x29828, symBinAddr: 0x10002AD18, symSize: 0x2E0 }
  - { offset: 0x14A6F, size: 0x8, addend: 0x0, symName: __ZNSt3__113__unwrap_iterB8ne180100INS_21__tree_const_iteratorINS_12basic_stringIcNS_11char_traitsIcEENS_9allocatorIcEEEEPNS_11__tree_nodeIS7_PvEElEENS_18__unwrap_iter_implISC_Lb0EEETnNS_9enable_ifIXsr21is_copy_constructibleIT_EE5valueEiE4typeELi0EEEDTclsrT0_8__unwrapclsr3stdE7declvalISG_EEEESG_, symObjAddr: 0x29B08, symBinAddr: 0x10002AFF8, symSize: 0x38 }
  - { offset: 0x14B43, size: 0x8, addend: 0x0, symName: __ZNSt3__13getB8ne180100ILm1EJPKN7testing8internal11MatcherBaseIRKNS_3mapINS_12basic_stringIcNS_11char_traitsIcEENS_9allocatorIcEEEENS_3setISA_NS_4lessISA_EENS8_ISA_EEEESD_NS8_INS_4pairIKSA_SF_EEEEEEEEPKNS1_16MatcherInterfaceISM_EEEEEONS_13tuple_elementIXT_ENS_5tupleIJDpT0_EEEE4typeEOSY_, symObjAddr: 0x2BA98, symBinAddr: 0x10002CF88, symSize: 0xC0 }
  - { offset: 0x14B8B, size: 0x8, addend: 0x0, symName: __ZNSt3__110make_tupleB8ne180100IJPKN7testing8internal11MatcherBaseIRKNS_3mapINS_12basic_stringIcNS_11char_traitsIcEENS_9allocatorIcEEEENS_3setISA_NS_4lessISA_EENS8_ISA_EEEESD_NS8_INS_4pairIKSA_SF_EEEEEEEEPKNS1_16MatcherInterfaceISM_EEEEENS_5tupleIJDpNS_18__unwrap_ref_decayIT_E4typeEEEEDpOSW_, symObjAddr: 0x2BB58, symBinAddr: 0x10002D048, symSize: 0x1D8 }
  - { offset: 0x1500E, size: 0x8, addend: 0x0, symName: __ZNSt3__122__cxx_atomic_fetch_subB8ne180100IiEET_PNS_22__cxx_atomic_base_implIS1_EES1_NS_12memory_orderE, symObjAddr: 0x2E4D8, symBinAddr: 0x10002F9C8, symSize: 0x278 }
  - { offset: 0x15063, size: 0x8, addend: 0x0, symName: __ZNSt3__110__str_findB8ne180100IcmNS_11char_traitsIcEETnT0_Lm18446744073709551615EEES3_PKT_S3_S6_S3_S3_, symObjAddr: 0x30F48, symBinAddr: 0x100032438, symSize: 0x240 }
  - { offset: 0x1510A, size: 0x8, addend: 0x0, symName: __ZNSt3__118__search_substringB8ne180100IcNS_11char_traitsIcEEEEPKT_S5_S5_S5_S5_, symObjAddr: 0x31188, symBinAddr: 0x100032678, symSize: 0x440 }
  - { offset: 0x151AE, size: 0x8, addend: 0x0, symName: __ZNSt3__118__constexpr_memchrB8ne180100IKccEEPT_S3_T0_m, symObjAddr: 0x31698, symBinAddr: 0x100032B88, symSize: 0x48 }
  - { offset: 0x15224, size: 0x8, addend: 0x0, symName: __ZNSt3__119__str_find_first_ofB8ne180100IcmNS_11char_traitsIcEETnT0_Lm18446744073709551615EEES3_PKT_S3_S6_S3_S3_, symObjAddr: 0x317D8, symBinAddr: 0x100032CC8, symSize: 0x270 }
  - { offset: 0x152CB, size: 0x8, addend: 0x0, symName: __ZNSt3__118__find_first_of_ceB8ne180100IPKcS2_RDoFbccEEET_S5_S5_T0_S6_OT1_, symObjAddr: 0x31A48, symBinAddr: 0x100032F38, symSize: 0x290 }
  - { offset: 0x15366, size: 0x8, addend: 0x0, symName: __ZNSt3__1eqB8ne180100INS_12basic_stringIcNS_11char_traitsIcEENS_9allocatorIcEEEENS_14default_deleteIS6_EEEEbRKNS_10unique_ptrIT_T0_EEDn, symObjAddr: 0x32168, symBinAddr: 0x100033658, symSize: 0x60 }
  - { offset: 0x153B2, size: 0x8, addend: 0x0, symName: __ZNSt3__111make_uniqueB8ne180100INS_12basic_stringIcNS_11char_traitsIcEENS_9allocatorIcEEEEJEEENS_11__unique_ifIT_E15__unique_singleEDpOT0_, symObjAddr: 0x321C8, symBinAddr: 0x1000336B8, symSize: 0xA8 }
  - { offset: 0x153E0, size: 0x8, addend: 0x0, symName: __ZNSt3__110to_addressB8ne180100IcEEDaPT_, symObjAddr: 0x34AC8, symBinAddr: 0x100035FB8, symSize: 0x28 }
  - { offset: 0x15415, size: 0x8, addend: 0x0, symName: __ZNSt3__13getB8ne180100ILm0EJPKN7testing8internal11MatcherBaseIRKiEEPKNS2_9EqMatcherIiEEEEEONS_13tuple_elementIXT_ENS_5tupleIJDpT0_EEEE4typeEOSH_, symObjAddr: 0x39A38, symBinAddr: 0x10003AF28, symSize: 0xB0 }
  - { offset: 0x1545D, size: 0x8, addend: 0x0, symName: __ZNSt3__110make_tupleB8ne180100IJPKN7testing8internal11MatcherBaseIRKiEEPKNS2_9EqMatcherIiEEEEENS_5tupleIJDpNS_18__unwrap_ref_decayIT_E4typeEEEEDpOSF_, symObjAddr: 0x39AE8, symBinAddr: 0x10003AFD8, symSize: 0x1D8 }
  - { offset: 0x1672B, size: 0x8, addend: 0x0, symName: __ZSt28__throw_bad_array_new_lengthB8ne180100v, symObjAddr: 0xF8D8, symBinAddr: 0x100010DC8, symSize: 0x80 }
  - { offset: 0x16FAD, size: 0x8, addend: 0x0, symName: _.str.6, symObjAddr: 0x3C300, symBinAddr: 0x1001CD640, symSize: 0x0 }
  - { offset: 0x16FCA, size: 0x8, addend: 0x0, symName: _.str.7, symObjAddr: 0x3C320, symBinAddr: 0x1001CD660, symSize: 0x0 }
  - { offset: 0x16FE7, size: 0x8, addend: 0x0, symName: _.str.8, symObjAddr: 0x3C340, symBinAddr: 0x1001CD680, symSize: 0x0 }
  - { offset: 0x16FF8, size: 0x8, addend: 0x0, symName: _.str.9, symObjAddr: 0x3C360, symBinAddr: 0x1001CD6A0, symSize: 0x0 }
  - { offset: 0x17015, size: 0x8, addend: 0x0, symName: _.str.10, symObjAddr: 0x3C3A0, symBinAddr: 0x1001CD6E0, symSize: 0x0 }
  - { offset: 0x17026, size: 0x8, addend: 0x0, symName: _.str.11, symObjAddr: 0x3C3C0, symBinAddr: 0x1001CD700, symSize: 0x0 }
  - { offset: 0x17043, size: 0x8, addend: 0x0, symName: _.str.12, symObjAddr: 0x3C3E0, symBinAddr: 0x1001CD720, symSize: 0x0 }
  - { offset: 0x17054, size: 0x8, addend: 0x0, symName: _.str.13, symObjAddr: 0x3C400, symBinAddr: 0x1001CD740, symSize: 0x0 }
  - { offset: 0x17071, size: 0x8, addend: 0x0, symName: _.str.14, symObjAddr: 0x3C420, symBinAddr: 0x1001CD760, symSize: 0x0 }
  - { offset: 0x17082, size: 0x8, addend: 0x0, symName: _.str.15, symObjAddr: 0x3C440, symBinAddr: 0x1001CD780, symSize: 0x0 }
  - { offset: 0x1709F, size: 0x8, addend: 0x0, symName: _.str.16, symObjAddr: 0x3C460, symBinAddr: 0x1001CD7A0, symSize: 0x0 }
  - { offset: 0x170BC, size: 0x8, addend: 0x0, symName: _.str.17, symObjAddr: 0x3C4A0, symBinAddr: 0x1001CD7E0, symSize: 0x0 }
  - { offset: 0x170CD, size: 0x8, addend: 0x0, symName: _.str.18, symObjAddr: 0x3C4C0, symBinAddr: 0x1001CD800, symSize: 0x0 }
  - { offset: 0x170EA, size: 0x8, addend: 0x0, symName: _.str.19, symObjAddr: 0x3C500, symBinAddr: 0x1001CD840, symSize: 0x0 }
  - { offset: 0x17109, size: 0x8, addend: 0x0, symName: _.str.38, symObjAddr: 0x3C540, symBinAddr: 0x1001CD880, symSize: 0x0 }
  - { offset: 0x1711C, size: 0x8, addend: 0x0, symName: _.str.39, symObjAddr: 0x3C560, symBinAddr: 0x1001CD8A0, symSize: 0x0 }
  - { offset: 0x1713B, size: 0x8, addend: 0x0, symName: _.str.40, symObjAddr: 0x3C580, symBinAddr: 0x1001CD8C0, symSize: 0x0 }
  - { offset: 0x1714E, size: 0x8, addend: 0x0, symName: _.str.41, symObjAddr: 0x3C5A0, symBinAddr: 0x1001CD8E0, symSize: 0x0 }
  - { offset: 0x1716D, size: 0x8, addend: 0x0, symName: _.str.42, symObjAddr: 0x3C640, symBinAddr: 0x1001CD980, symSize: 0x0 }
  - { offset: 0x1718A, size: 0x8, addend: 0x0, symName: _.str.43, symObjAddr: 0x3C660, symBinAddr: 0x1001CD9A0, symSize: 0x0 }
  - { offset: 0x171A7, size: 0x8, addend: 0x0, symName: _.str.44, symObjAddr: 0x3C680, symBinAddr: 0x1001CD9C0, symSize: 0x0 }
  - { offset: 0x171BA, size: 0x8, addend: 0x0, symName: _.str.45, symObjAddr: 0x3C6A0, symBinAddr: 0x1001CD9E0, symSize: 0x0 }
  - { offset: 0x171D7, size: 0x8, addend: 0x0, symName: _.str.47, symObjAddr: 0x3C6C0, symBinAddr: 0x1001CDA00, symSize: 0x0 }
  - { offset: 0x171EA, size: 0x8, addend: 0x0, symName: _.str.54, symObjAddr: 0x3C6E0, symBinAddr: 0x1001CDA20, symSize: 0x0 }
  - { offset: 0x171FD, size: 0x8, addend: 0x0, symName: _.str.55, symObjAddr: 0x3C700, symBinAddr: 0x1001CDA40, symSize: 0x0 }
  - { offset: 0x17210, size: 0x8, addend: 0x0, symName: _.str.56, symObjAddr: 0x3C720, symBinAddr: 0x1001CDA60, symSize: 0x0 }
  - { offset: 0x1722F, size: 0x8, addend: 0x0, symName: _.str.57, symObjAddr: 0x3C780, symBinAddr: 0x1001CDAC0, symSize: 0x0 }
  - { offset: 0x17242, size: 0x8, addend: 0x0, symName: _.str.58, symObjAddr: 0x3C7A0, symBinAddr: 0x1001CDAE0, symSize: 0x0 }
  - { offset: 0x17255, size: 0x8, addend: 0x0, symName: _.str.59, symObjAddr: 0x3C7C0, symBinAddr: 0x1001CDB00, symSize: 0x0 }
  - { offset: 0x17E57, size: 0x8, addend: 0x0, symName: __ZN7testing8internal11MatcherBaseIRKNSt3__13mapINS2_12basic_stringIcNS2_11char_traitsIcEENS2_9allocatorIcEEEENS2_3setIS9_NS2_4lessIS9_EENS7_IS9_EEEESC_NS7_INS2_4pairIKS9_SE_EEEEEEE9GetVTableINSM_11ValuePolicyIPKNS_16MatcherInterfaceISL_EELb1EEEEEPKNSM_6VTableEv, symObjAddr: 0x2AA10, symBinAddr: 0x10002BF00, symSize: 0x58 }
  - { offset: 0x17E7C, size: 0x8, addend: 0x0, symName: __ZZN7testing8internal11MatcherBaseIRKNSt3__13mapINS2_12basic_stringIcNS2_11char_traitsIcEENS2_9allocatorIcEEEENS2_3setIS9_NS2_4lessIS9_EENS7_IS9_EEEESC_NS7_INS2_4pairIKS9_SE_EEEEEEE9GetVTableINSM_11ValuePolicyIPKNS_16MatcherInterfaceISL_EELb1EEEEEPKNSM_6VTableEvE7kVTable, symObjAddr: 0x5C028, symBinAddr: 0x100243788, symSize: 0x0 }
  - { offset: 0x17EA9, size: 0x8, addend: 0x0, symName: _.str.65, symObjAddr: 0x3C820, symBinAddr: 0x1001CDB60, symSize: 0x0 }
  - { offset: 0x17EBC, size: 0x8, addend: 0x0, symName: _.str.69, symObjAddr: 0x3C880, symBinAddr: 0x1001CDBC0, symSize: 0x0 }
  - { offset: 0x17ECD, size: 0x8, addend: 0x0, symName: _.str.72, symObjAddr: 0x3C8A0, symBinAddr: 0x1001CDBE0, symSize: 0x0 }
  - { offset: 0x17EE0, size: 0x8, addend: 0x0, symName: _.str.74, symObjAddr: 0x3C8C0, symBinAddr: 0x1001CDC00, symSize: 0x0 }
  - { offset: 0x17EF1, size: 0x8, addend: 0x0, symName: _.str.78, symObjAddr: 0x49F20, symBinAddr: 0x1001F5420, symSize: 0x0 }
  - { offset: 0x17FA4, size: 0x8, addend: 0x0, symName: __ZN7testing8internal11MatcherBaseIRKiE9GetVTableINS4_11ValuePolicyINS0_9EqMatcherIiEELb1EEEEEPKNS4_6VTableEv, symObjAddr: 0x38940, symBinAddr: 0x100039E30, symSize: 0x58 }
  - { offset: 0x17FC9, size: 0x8, addend: 0x0, symName: __ZZN7testing8internal11MatcherBaseIRKiE9GetVTableINS4_11ValuePolicyINS0_9EqMatcherIiEELb1EEEEEPKNS4_6VTableEvE7kVTable, symObjAddr: 0x5C170, symBinAddr: 0x100243870, symSize: 0x0 }
  - { offset: 0x17FF3, size: 0x8, addend: 0x0, symName: _.str.79, symObjAddr: 0x3C8E0, symBinAddr: 0x1001CDC20, symSize: 0x0 }
  - { offset: 0x18006, size: 0x8, addend: 0x0, symName: _.str.80, symObjAddr: 0x3C900, symBinAddr: 0x1001CDC40, symSize: 0x0 }
  - { offset: 0x18025, size: 0x8, addend: 0x0, symName: _.str.81, symObjAddr: 0x3C920, symBinAddr: 0x1001CDC60, symSize: 0x0 }
  - { offset: 0x18038, size: 0x8, addend: 0x0, symName: _.str.83, symObjAddr: 0x3C940, symBinAddr: 0x1001CDC80, symSize: 0x0 }
  - { offset: 0x18057, size: 0x8, addend: 0x0, symName: _.str.84, symObjAddr: 0x3C9A0, symBinAddr: 0x1001CDCE0, symSize: 0x0 }
  - { offset: 0x18076, size: 0x8, addend: 0x0, symName: _.str.85, symObjAddr: 0x3CA40, symBinAddr: 0x1001CDD80, symSize: 0x0 }
  - { offset: 0x18089, size: 0x8, addend: 0x0, symName: _.str.86, symObjAddr: 0x3CA60, symBinAddr: 0x1001CDDA0, symSize: 0x0 }
  - { offset: 0x1829F, size: 0x8, addend: 0x0, symName: __ZNSt3__112basic_stringIcNS_11char_traitsIcEENS_9allocatorIcEEEC1B8ne180100ILi0EEEPKc, symObjAddr: 0x0, symBinAddr: 0x1000014F0, symSize: 0x60 }
  - { offset: 0x182DE, size: 0x8, addend: 0x0, symName: __ZN7testing8internal12CodeLocationC1ENSt3__112basic_stringIcNS2_11char_traitsIcEENS2_9allocatorIcEEEEi, symObjAddr: 0x60, symBinAddr: 0x100001550, symSize: 0x78 }
  - { offset: 0x1832E, size: 0x8, addend: 0x0, symName: __ZN7testing8internal16SuiteApiResolverINS_4TestEE19GetSetUpCaseOrSuiteEPKci, symObjAddr: 0xD8, symBinAddr: 0x1000015C8, symSize: 0x4E0 }
  - { offset: 0x18383, size: 0x8, addend: 0x0, symName: __ZN7testing8internal16SuiteApiResolverINS_4TestEE22GetTearDownCaseOrSuiteEPKci, symObjAddr: 0x5B8, symBinAddr: 0x100001AA8, symSize: 0x4D8 }
  - { offset: 0x183DD, size: 0x8, addend: 0x0, symName: __ZN7testing8internal15TestFactoryImplIN12_GLOBAL__N_125BuildIndex_TinierTxt_TestEEC1Ev, symObjAddr: 0xA90, symBinAddr: 0x100001F80, symSize: 0x50 }
  - { offset: 0x1840A, size: 0x8, addend: 0x0, symName: __ZN7testing8internal12CodeLocationD1Ev, symObjAddr: 0xAE0, symBinAddr: 0x100001FD0, symSize: 0x50 }
  - { offset: 0x18437, size: 0x8, addend: 0x0, symName: __ZNSt3__112basic_stringIcNS_11char_traitsIcEENS_9allocatorIcEEEC2B8ne180100ILi0EEEPKc, symObjAddr: 0xB30, symBinAddr: 0x100002020, symSize: 0x1C0 }
  - { offset: 0x1847E, size: 0x8, addend: 0x0, symName: __ZNSt3__117__compressed_pairINS_12basic_stringIcNS_11char_traitsIcEENS_9allocatorIcEEE5__repES5_EC1B8ne180100INS_18__default_init_tagESA_EEOT_OT0_, symObjAddr: 0xCF0, symBinAddr: 0x1000021E0, symSize: 0x68 }
  - { offset: 0x184D6, size: 0x8, addend: 0x0, symName: __ZNSt3__111char_traitsIcE6lengthB8ne180100EPKc, symObjAddr: 0xD58, symBinAddr: 0x100002248, symSize: 0x48 }
  - { offset: 0x184F9, size: 0x8, addend: 0x0, symName: __ZNSt3__117__compressed_pairINS_12basic_stringIcNS_11char_traitsIcEENS_9allocatorIcEEE5__repES5_EC2B8ne180100INS_18__default_init_tagESA_EEOT_OT0_, symObjAddr: 0xDA0, symBinAddr: 0x100002290, symSize: 0xB0 }
  - { offset: 0x18551, size: 0x8, addend: 0x0, symName: __ZNSt3__122__compressed_pair_elemINS_12basic_stringIcNS_11char_traitsIcEENS_9allocatorIcEEE5__repELi0ELb0EEC2B8ne180100ENS_18__default_init_tagE, symObjAddr: 0xE50, symBinAddr: 0x100002340, symSize: 0x50 }
  - { offset: 0x18586, size: 0x8, addend: 0x0, symName: __ZNSt3__122__compressed_pair_elemINS_9allocatorIcEELi1ELb1EEC2B8ne180100ENS_18__default_init_tagE, symObjAddr: 0xEA0, symBinAddr: 0x100002390, symSize: 0x60 }
  - { offset: 0x185BB, size: 0x8, addend: 0x0, symName: __ZNSt3__19allocatorIcEC2B8ne180100Ev, symObjAddr: 0xF00, symBinAddr: 0x1000023F0, symSize: 0x60 }
  - { offset: 0x185E5, size: 0x8, addend: 0x0, symName: __ZNSt3__116__non_trivial_ifILb1ENS_9allocatorIcEEEC2B8ne180100Ev, symObjAddr: 0xF60, symBinAddr: 0x100002450, symSize: 0x48 }
  - { offset: 0x1860F, size: 0x8, addend: 0x0, symName: __ZN7testing8internal12CodeLocationC2ENSt3__112basic_stringIcNS2_11char_traitsIcEENS2_9allocatorIcEEEEi, symObjAddr: 0xFE0, symBinAddr: 0x1000024D0, symSize: 0xF0 }
  - { offset: 0x18658, size: 0x8, addend: 0x0, symName: __ZNSt3__112basic_stringIcNS_11char_traitsIcEENS_9allocatorIcEEEC1B8ne180100EOS5_, symObjAddr: 0x10D0, symBinAddr: 0x1000025C0, symSize: 0x60 }
  - { offset: 0x18691, size: 0x8, addend: 0x0, symName: __ZNSt3__112basic_stringIcNS_11char_traitsIcEENS_9allocatorIcEEEC2B8ne180100EOS5_, symObjAddr: 0x1130, symBinAddr: 0x100002620, symSize: 0x2D0 }
  - { offset: 0x186FD, size: 0x8, addend: 0x0, symName: __ZZNSt3__112basic_stringIcNS_11char_traitsIcEENS_9allocatorIcEEEC1B8ne180100EOS5_ENKUlRS5_E_clES7_, symObjAddr: 0x1400, symBinAddr: 0x1000028F0, symSize: 0xD0 }
  - { offset: 0x18736, size: 0x8, addend: 0x0, symName: __ZNSt3__117__compressed_pairINS_12basic_stringIcNS_11char_traitsIcEENS_9allocatorIcEEE5__repES5_E5firstB8ne180100Ev, symObjAddr: 0x14D0, symBinAddr: 0x1000029C0, symSize: 0xE0 }
  - { offset: 0x1875C, size: 0x8, addend: 0x0, symName: __ZNKSt3__112basic_stringIcNS_11char_traitsIcEENS_9allocatorIcEEE14__annotate_newB8ne180100Em, symObjAddr: 0x15B0, symBinAddr: 0x100002AA0, symSize: 0x50 }
  - { offset: 0x18791, size: 0x8, addend: 0x0, symName: __ZNKSt3__112basic_stringIcNS_11char_traitsIcEENS_9allocatorIcEEE9__is_longB8ne180100Ev, symObjAddr: 0x1600, symBinAddr: 0x100002AF0, symSize: 0x1A0 }
  - { offset: 0x187B7, size: 0x8, addend: 0x0, symName: __ZNKSt3__112basic_stringIcNS_11char_traitsIcEENS_9allocatorIcEEE4sizeB8ne180100Ev, symObjAddr: 0x17A0, symBinAddr: 0x100002C90, symSize: 0x80 }
  - { offset: 0x187DD, size: 0x8, addend: 0x0, symName: __ZNKSt3__112basic_stringIcNS_11char_traitsIcEENS_9allocatorIcEEE17__annotate_deleteB8ne180100Ev, symObjAddr: 0x1820, symBinAddr: 0x100002D10, symSize: 0x50 }
  - { offset: 0x18803, size: 0x8, addend: 0x0, symName: __ZNSt3__122__compressed_pair_elemINS_12basic_stringIcNS_11char_traitsIcEENS_9allocatorIcEEE5__repELi0ELb0EE5__getB8ne180100Ev, symObjAddr: 0x1870, symBinAddr: 0x100002D60, symSize: 0x80 }
  - { offset: 0x18829, size: 0x8, addend: 0x0, symName: __ZNKSt3__117__compressed_pairINS_12basic_stringIcNS_11char_traitsIcEENS_9allocatorIcEEE5__repES5_E5firstB8ne180100Ev, symObjAddr: 0x18F0, symBinAddr: 0x100002DE0, symSize: 0xE0 }
  - { offset: 0x1884F, size: 0x8, addend: 0x0, symName: __ZNKSt3__122__compressed_pair_elemINS_12basic_stringIcNS_11char_traitsIcEENS_9allocatorIcEEE5__repELi0ELb0EE5__getB8ne180100Ev, symObjAddr: 0x19D0, symBinAddr: 0x100002EC0, symSize: 0x80 }
  - { offset: 0x18875, size: 0x8, addend: 0x0, symName: __ZNKSt3__112basic_stringIcNS_11char_traitsIcEENS_9allocatorIcEEE15__get_long_sizeB8ne180100Ev, symObjAddr: 0x1A50, symBinAddr: 0x100002F40, symSize: 0x180 }
  - { offset: 0x1889B, size: 0x8, addend: 0x0, symName: __ZNKSt3__112basic_stringIcNS_11char_traitsIcEENS_9allocatorIcEEE16__get_short_sizeB8ne180100Ev, symObjAddr: 0x1BD0, symBinAddr: 0x1000030C0, symSize: 0x190 }
  - { offset: 0x188C1, size: 0x8, addend: 0x0, symName: __ZN7testing8internal15TestFactoryImplIN12_GLOBAL__N_125BuildIndex_TinierTxt_TestEEC2Ev, symObjAddr: 0x1D60, symBinAddr: 0x100003250, symSize: 0xC0 }
  - { offset: 0x188EE, size: 0x8, addend: 0x0, symName: __ZN7testing8internal15TestFactoryBaseC2Ev, symObjAddr: 0x1E20, symBinAddr: 0x100003310, symSize: 0x90 }
  - { offset: 0x18918, size: 0x8, addend: 0x0, symName: __ZN7testing8internal15TestFactoryImplIN12_GLOBAL__N_125BuildIndex_TinierTxt_TestEED1Ev, symObjAddr: 0x1EB0, symBinAddr: 0x1000033A0, symSize: 0x50 }
  - { offset: 0x18945, size: 0x8, addend: 0x0, symName: __ZN7testing8internal15TestFactoryImplIN12_GLOBAL__N_125BuildIndex_TinierTxt_TestEED0Ev, symObjAddr: 0x1F00, symBinAddr: 0x1000033F0, symSize: 0x60 }
  - { offset: 0x18972, size: 0x8, addend: 0x0, symName: __ZN7testing8internal15TestFactoryImplIN12_GLOBAL__N_125BuildIndex_TinierTxt_TestEE10CreateTestEv, symObjAddr: 0x1F60, symBinAddr: 0x100003450, symSize: 0xF0 }
  - { offset: 0x18998, size: 0x8, addend: 0x0, symName: __ZN7testing8internal15TestFactoryBaseD1Ev, symObjAddr: 0x2050, symBinAddr: 0x100003540, symSize: 0x50 }
  - { offset: 0x189C2, size: 0x8, addend: 0x0, symName: __ZN7testing8internal15TestFactoryBaseD0Ev, symObjAddr: 0x20A0, symBinAddr: 0x100003590, symSize: 0x50 }
  - { offset: 0x189EC, size: 0x8, addend: 0x0, symName: __ZN7testing8internal15TestFactoryImplIN12_GLOBAL__N_125BuildIndex_TinierTxt_TestEED2Ev, symObjAddr: 0x20F0, symBinAddr: 0x1000035E0, symSize: 0x50 }
  - { offset: 0x18A19, size: 0x8, addend: 0x0, symName: __ZN7testing8internal15TestFactoryBaseD2Ev, symObjAddr: 0x2140, symBinAddr: 0x100003630, symSize: 0x50 }
  - { offset: 0x18A43, size: 0x8, addend: 0x0, symName: __ZN12_GLOBAL__N_125BuildIndex_TinierTxt_TestC1Ev, symObjAddr: 0x2190, symBinAddr: 0x100003680, symSize: 0x50 }
  - { offset: 0x18A6D, size: 0x8, addend: 0x0, symName: __ZN12_GLOBAL__N_125BuildIndex_TinierTxt_TestC2Ev, symObjAddr: 0x21E0, symBinAddr: 0x1000036D0, symSize: 0xC0 }
  - { offset: 0x18A97, size: 0x8, addend: 0x0, symName: __ZN12_GLOBAL__N_125BuildIndex_TinierTxt_TestD1Ev, symObjAddr: 0x22A0, symBinAddr: 0x100003790, symSize: 0x50 }
  - { offset: 0x18AC1, size: 0x8, addend: 0x0, symName: __ZN12_GLOBAL__N_125BuildIndex_TinierTxt_TestD0Ev, symObjAddr: 0x22F0, symBinAddr: 0x1000037E0, symSize: 0x60 }
  - { offset: 0x18AEB, size: 0x8, addend: 0x0, symName: __ZN12_GLOBAL__N_125BuildIndex_TinierTxt_Test8TestBodyEv, symObjAddr: 0x2350, symBinAddr: 0x100003840, symSize: 0x28A0 }
  - { offset: 0x18BB6, size: 0x8, addend: 0x0, symName: __ZN7testing4Test5SetupEv, symObjAddr: 0x4BF0, symBinAddr: 0x1000060E0, symSize: 0x50 }
  - { offset: 0x18BDC, size: 0x8, addend: 0x0, symName: __ZN12_GLOBAL__N_125BuildIndex_TinierTxt_TestD2Ev, symObjAddr: 0x4C40, symBinAddr: 0x100006130, symSize: 0x50 }
  - { offset: 0x18C06, size: 0x8, addend: 0x0, symName: __ZNSt3__13setINS_12basic_stringIcNS_11char_traitsIcEENS_9allocatorIcEEEENS_4lessIS6_EENS4_IS6_EEEC1B8ne180100ESt16initializer_listIS6_ERKS8_, symObjAddr: 0x4C90, symBinAddr: 0x100006180, symSize: 0x70 }
  - { offset: 0x18C4E, size: 0x8, addend: 0x0, symName: __ZNSt3__14pairIKNS_12basic_stringIcNS_11char_traitsIcEENS_9allocatorIcEEEENS_3setIS6_NS_4lessIS6_EENS4_IS6_EEEEEC1B8ne180100ILb1ETnNS_9enable_ifIXclsr13_CheckArgsDepIXT_EEE17__enable_implicitIRS7_RKSC_EEEiE4typeELi0EEESG_SI_, symObjAddr: 0x4D00, symBinAddr: 0x1000061F0, symSize: 0x60 }
  - { offset: 0x18CA4, size: 0x8, addend: 0x0, symName: __ZNSt3__13mapINS_12basic_stringIcNS_11char_traitsIcEENS_9allocatorIcEEEENS_3setIS6_NS_4lessIS6_EENS4_IS6_EEEES9_NS4_INS_4pairIKS6_SB_EEEEEC1B8ne180100ESt16initializer_listISE_ERKS9_, symObjAddr: 0x4D60, symBinAddr: 0x100006250, symSize: 0x70 }
  - { offset: 0x18CEC, size: 0x8, addend: 0x0, symName: __ZNSt3__14pairIKNS_12basic_stringIcNS_11char_traitsIcEENS_9allocatorIcEEEENS_3setIS6_NS_4lessIS6_EENS4_IS6_EEEEED1Ev, symObjAddr: 0x4DD0, symBinAddr: 0x1000062C0, symSize: 0x50 }
  - { offset: 0x18D18, size: 0x8, addend: 0x0, symName: __ZNSt3__13setINS_12basic_stringIcNS_11char_traitsIcEENS_9allocatorIcEEEENS_4lessIS6_EENS4_IS6_EEED1B8ne180100Ev, symObjAddr: 0x4E20, symBinAddr: 0x100006310, symSize: 0x50 }
  - { offset: 0x18D42, size: 0x8, addend: 0x0, symName: __ZNSt3__13mapINS_12basic_stringIcNS_11char_traitsIcEENS_9allocatorIcEEEENS_3setIS6_NS_4lessIS6_EENS4_IS6_EEEES9_NS4_INS_4pairIKS6_SB_EEEEEC1B8ne180100Ev, symObjAddr: 0x4E70, symBinAddr: 0x100006360, symSize: 0x58 }
  - { offset: 0x190E0, size: 0x8, addend: 0x0, symName: __ZNK7testing8internal29PredicateFormatterFromMatcherINS_18PolymorphicMatcherINS0_18ContainerEqMatcherINSt3__13mapINS4_12basic_stringIcNS4_11char_traitsIcEENS4_9allocatorIcEEEENS4_3setISB_NS4_4lessISB_EENS9_ISB_EEEESE_NS9_INS4_4pairIKSB_SG_EEEEEEEEEEEclISL_EENS_15AssertionResultEPKcRKT_, symObjAddr: 0x54D0, symBinAddr: 0x1000069C0, symSize: 0xE20 }
  - { offset: 0x1916A, size: 0x8, addend: 0x0, symName: __ZN7testing8internal29PredicateFormatterFromMatcherINS_18PolymorphicMatcherINS0_18ContainerEqMatcherINSt3__13mapINS4_12basic_stringIcNS4_11char_traitsIcEENS4_9allocatorIcEEEENS4_3setISB_NS4_4lessISB_EENS9_ISB_EEEESE_NS9_INS4_4pairIKSB_SG_EEEEEEEEEEED1Ev, symObjAddr: 0x62F0, symBinAddr: 0x1000077E0, symSize: 0x50 }
  - { offset: 0x19197, size: 0x8, addend: 0x0, symName: __ZN7testing18PolymorphicMatcherINS_8internal18ContainerEqMatcherINSt3__13mapINS3_12basic_stringIcNS3_11char_traitsIcEENS3_9allocatorIcEEEENS3_3setISA_NS3_4lessISA_EENS8_ISA_EEEESD_NS8_INS3_4pairIKSA_SF_EEEEEEEEED1Ev, symObjAddr: 0x6340, symBinAddr: 0x100007830, symSize: 0x50 }
  - { offset: 0x191C4, size: 0x8, addend: 0x0, symName: __ZNK7testing15AssertionResultcvbEv, symObjAddr: 0x6390, symBinAddr: 0x100007880, symSize: 0xC0 }
  - { offset: 0x191EA, size: 0x8, addend: 0x0, symName: __ZN7testing7MessagelsINSt3__112basic_stringIcNS2_11char_traitsIcEENS2_9allocatorIcEEEEEERS0_RKT_, symObjAddr: 0x6450, symBinAddr: 0x100007940, symSize: 0x160 }
  - { offset: 0x1922E, size: 0x8, addend: 0x0, symName: __ZNK7testing15AssertionResult15failure_messageEv, symObjAddr: 0x65B0, symBinAddr: 0x100007AA0, symSize: 0x50 }
  - { offset: 0x19254, size: 0x8, addend: 0x0, symName: __ZN7testing7MessageD1Ev, symObjAddr: 0x6600, symBinAddr: 0x100007AF0, symSize: 0x50 }
  - { offset: 0x19280, size: 0x8, addend: 0x0, symName: __ZN7testing15AssertionResultD1Ev, symObjAddr: 0x6650, symBinAddr: 0x100007B40, symSize: 0x58 }
  - { offset: 0x192B6, size: 0x8, addend: 0x0, symName: __ZNK7testing8internal29PredicateFormatterFromMatcherINS0_9EqMatcherIiEEEclIiEENS_15AssertionResultEPKcRKT_, symObjAddr: 0x6960, symBinAddr: 0x100007E50, symSize: 0xE20 }
  - { offset: 0x19340, size: 0x8, addend: 0x0, symName: __ZNSt3__13mapINS_12basic_stringIcNS_11char_traitsIcEENS_9allocatorIcEEEENS_3setIS6_NS_4lessIS6_EENS4_IS6_EEEES9_NS4_INS_4pairIKS6_SB_EEEEED1B8ne180100Ev, symObjAddr: 0x7780, symBinAddr: 0x100008C70, symSize: 0x50 }
  - { offset: 0x1936A, size: 0x8, addend: 0x0, symName: __ZNSt3__13setINS_12basic_stringIcNS_11char_traitsIcEENS_9allocatorIcEEEENS_4lessIS6_EENS4_IS6_EEEC2B8ne180100ESt16initializer_listIS6_ERKS8_, symObjAddr: 0x77D0, symBinAddr: 0x100008CC0, symSize: 0x290 }
  - { offset: 0x193B8, size: 0x8, addend: 0x0, symName: __ZNSt3__16__treeINS_12basic_stringIcNS_11char_traitsIcEENS_9allocatorIcEEEENS_4lessIS6_EENS4_IS6_EEEC1ERKS8_, symObjAddr: 0x7A60, symBinAddr: 0x100008F50, symSize: 0x60 }
  - { offset: 0x193F1, size: 0x8, addend: 0x0, symName: __ZNSt3__13setINS_12basic_stringIcNS_11char_traitsIcEENS_9allocatorIcEEEENS_4lessIS6_EENS4_IS6_EEE6insertB8ne180100IPKS6_EEvT_SE_, symObjAddr: 0x7AC0, symBinAddr: 0x100008FB0, symSize: 0x160 }
  - { offset: 0x1945B, size: 0x8, addend: 0x0, symName: __ZNKSt16initializer_listINSt3__112basic_stringIcNS0_11char_traitsIcEENS0_9allocatorIcEEEEE5beginB8ne180100Ev, symObjAddr: 0x7C20, symBinAddr: 0x100009110, symSize: 0x80 }
  - { offset: 0x19481, size: 0x8, addend: 0x0, symName: __ZNKSt16initializer_listINSt3__112basic_stringIcNS0_11char_traitsIcEENS0_9allocatorIcEEEEE3endB8ne180100Ev, symObjAddr: 0x7CA0, symBinAddr: 0x100009190, symSize: 0x110 }
  - { offset: 0x194A7, size: 0x8, addend: 0x0, symName: __ZNSt3__16__treeINS_12basic_stringIcNS_11char_traitsIcEENS_9allocatorIcEEEENS_4lessIS6_EENS4_IS6_EEED1Ev, symObjAddr: 0x7DB0, symBinAddr: 0x1000092A0, symSize: 0x50 }
  - { offset: 0x194D1, size: 0x8, addend: 0x0, symName: __ZNSt3__16__treeINS_12basic_stringIcNS_11char_traitsIcEENS_9allocatorIcEEEENS_4lessIS6_EENS4_IS6_EEEC2ERKS8_, symObjAddr: 0x7E00, symBinAddr: 0x1000092F0, symSize: 0x270 }
  - { offset: 0x1950C, size: 0x8, addend: 0x0, symName: __ZNSt3__117__compressed_pairINS_15__tree_end_nodeIPNS_16__tree_node_baseIPvEEEENS_9allocatorINS_11__tree_nodeINS_12basic_stringIcNS_11char_traitsIcEENS7_IcEEEES3_EEEEEC1B8ne180100ILb1EvEEv, symObjAddr: 0x8070, symBinAddr: 0x100009560, symSize: 0x50 }
  - { offset: 0x19547, size: 0x8, addend: 0x0, symName: __ZNSt3__117__compressed_pairImNS_4lessINS_12basic_stringIcNS_11char_traitsIcEENS_9allocatorIcEEEEEEEC1B8ne180100IiRKS8_EEOT_OT0_, symObjAddr: 0x80C0, symBinAddr: 0x1000095B0, symSize: 0x60 }
  - { offset: 0x1959F, size: 0x8, addend: 0x0, symName: __ZNSt3__16__treeINS_12basic_stringIcNS_11char_traitsIcEENS_9allocatorIcEEEENS_4lessIS6_EENS4_IS6_EEE10__end_nodeB8ne180100Ev, symObjAddr: 0x8120, symBinAddr: 0x100009610, symSize: 0xD0 }
  - { offset: 0x195C5, size: 0x8, addend: 0x0, symName: __ZNSt3__16__treeINS_12basic_stringIcNS_11char_traitsIcEENS_9allocatorIcEEEENS_4lessIS6_EENS4_IS6_EEE12__begin_nodeB8ne180100Ev, symObjAddr: 0x81F0, symBinAddr: 0x1000096E0, symSize: 0x80 }
  - { offset: 0x195EB, size: 0x8, addend: 0x0, symName: __ZNSt3__117__compressed_pairINS_15__tree_end_nodeIPNS_16__tree_node_baseIPvEEEENS_9allocatorINS_11__tree_nodeINS_12basic_stringIcNS_11char_traitsIcEENS7_IcEEEES3_EEEEEC2B8ne180100ILb1EvEEv, symObjAddr: 0x8270, symBinAddr: 0x100009760, symSize: 0xB0 }
  - { offset: 0x19620, size: 0x8, addend: 0x0, symName: __ZNSt3__122__compressed_pair_elemINS_15__tree_end_nodeIPNS_16__tree_node_baseIPvEEEELi0ELb0EEC2B8ne180100ENS_16__value_init_tagE, symObjAddr: 0x8320, symBinAddr: 0x100009810, symSize: 0x50 }
  - { offset: 0x19655, size: 0x8, addend: 0x0, symName: __ZNSt3__122__compressed_pair_elemINS_9allocatorINS_11__tree_nodeINS_12basic_stringIcNS_11char_traitsIcEENS1_IcEEEEPvEEEELi1ELb1EEC2B8ne180100ENS_16__value_init_tagE, symObjAddr: 0x8370, symBinAddr: 0x100009860, symSize: 0x60 }
  - { offset: 0x1968A, size: 0x8, addend: 0x0, symName: __ZNSt3__115__tree_end_nodeIPNS_16__tree_node_baseIPvEEEC1B8ne180100Ev, symObjAddr: 0x83D0, symBinAddr: 0x1000098C0, symSize: 0x50 }
  - { offset: 0x196B4, size: 0x8, addend: 0x0, symName: __ZNSt3__115__tree_end_nodeIPNS_16__tree_node_baseIPvEEEC2B8ne180100Ev, symObjAddr: 0x8420, symBinAddr: 0x100009910, symSize: 0x80 }
  - { offset: 0x196DE, size: 0x8, addend: 0x0, symName: __ZNSt3__19allocatorINS_11__tree_nodeINS_12basic_stringIcNS_11char_traitsIcEENS0_IcEEEEPvEEEC2B8ne180100Ev, symObjAddr: 0x84A0, symBinAddr: 0x100009990, symSize: 0x60 }
  - { offset: 0x19708, size: 0x8, addend: 0x0, symName: __ZNSt3__116__non_trivial_ifILb1ENS_9allocatorINS_11__tree_nodeINS_12basic_stringIcNS_11char_traitsIcEENS1_IcEEEEPvEEEEEC2B8ne180100Ev, symObjAddr: 0x8500, symBinAddr: 0x1000099F0, symSize: 0x40 }
  - { offset: 0x19732, size: 0x8, addend: 0x0, symName: __ZNSt3__117__compressed_pairImNS_4lessINS_12basic_stringIcNS_11char_traitsIcEENS_9allocatorIcEEEEEEEC2B8ne180100IiRKS8_EEOT_OT0_, symObjAddr: 0x8540, symBinAddr: 0x100009A30, symSize: 0x110 }
  - { offset: 0x1978A, size: 0x8, addend: 0x0, symName: __ZNSt3__122__compressed_pair_elemImLi0ELb0EEC2B8ne180100IivEEOT_, symObjAddr: 0x8650, symBinAddr: 0x100009B40, symSize: 0x110 }
  - { offset: 0x197CC, size: 0x8, addend: 0x0, symName: __ZNSt3__122__compressed_pair_elemINS_4lessINS_12basic_stringIcNS_11char_traitsIcEENS_9allocatorIcEEEEEELi1ELb1EEC2B8ne180100IRKS8_vEEOT_, symObjAddr: 0x8760, symBinAddr: 0x100009C50, symSize: 0x48 }
  - { offset: 0x1980E, size: 0x8, addend: 0x0, symName: __ZNSt3__114pointer_traitsIPNS_15__tree_end_nodeIPNS_16__tree_node_baseIPvEEEEE10pointer_toB8ne180100ERS6_, symObjAddr: 0x87A8, symBinAddr: 0x100009C98, symSize: 0x18 }
  - { offset: 0x19831, size: 0x8, addend: 0x0, symName: __ZNSt3__117__compressed_pairINS_15__tree_end_nodeIPNS_16__tree_node_baseIPvEEEENS_9allocatorINS_11__tree_nodeINS_12basic_stringIcNS_11char_traitsIcEENS7_IcEEEES3_EEEEE5firstB8ne180100Ev, symObjAddr: 0x87C0, symBinAddr: 0x100009CB0, symSize: 0xE0 }
  - { offset: 0x19857, size: 0x8, addend: 0x0, symName: __ZNSt3__122__compressed_pair_elemINS_15__tree_end_nodeIPNS_16__tree_node_baseIPvEEEELi0ELb0EE5__getB8ne180100Ev, symObjAddr: 0x88A0, symBinAddr: 0x100009D90, symSize: 0x80 }
  - { offset: 0x1987D, size: 0x8, addend: 0x0, symName: __ZNKSt3__13setINS_12basic_stringIcNS_11char_traitsIcEENS_9allocatorIcEEEENS_4lessIS6_EENS4_IS6_EEE4cendB8ne180100Ev, symObjAddr: 0x8920, symBinAddr: 0x100009E10, symSize: 0x60 }
  - { offset: 0x198A3, size: 0x8, addend: 0x0, symName: __ZNSt3__16__treeINS_12basic_stringIcNS_11char_traitsIcEENS_9allocatorIcEEEENS_4lessIS6_EENS4_IS6_EEE15__insert_uniqueB8ne180100ENS_21__tree_const_iteratorIS6_PNS_11__tree_nodeIS6_PvEElEERKS6_, symObjAddr: 0x8980, symBinAddr: 0x100009E70, symSize: 0x140 }
  - { offset: 0x198E7, size: 0x8, addend: 0x0, symName: __ZNKSt3__13setINS_12basic_stringIcNS_11char_traitsIcEENS_9allocatorIcEEEENS_4lessIS6_EENS4_IS6_EEE3endB8ne180100Ev, symObjAddr: 0x8AC0, symBinAddr: 0x100009FB0, symSize: 0x90 }
  - { offset: 0x1990D, size: 0x8, addend: 0x0, symName: __ZNKSt3__16__treeINS_12basic_stringIcNS_11char_traitsIcEENS_9allocatorIcEEEENS_4lessIS6_EENS4_IS6_EEE3endB8ne180100Ev, symObjAddr: 0x8B50, symBinAddr: 0x10000A040, symSize: 0x190 }
  - { offset: 0x19934, size: 0x8, addend: 0x0, symName: __ZNKSt3__16__treeINS_12basic_stringIcNS_11char_traitsIcEENS_9allocatorIcEEEENS_4lessIS6_EENS4_IS6_EEE10__end_nodeB8ne180100Ev, symObjAddr: 0x8CE0, symBinAddr: 0x10000A1D0, symSize: 0xD0 }
  - { offset: 0x1995A, size: 0x8, addend: 0x0, symName: __ZNSt3__121__tree_const_iteratorINS_12basic_stringIcNS_11char_traitsIcEENS_9allocatorIcEEEEPNS_11__tree_nodeIS6_PvEElEC1B8ne180100EPNS_15__tree_end_nodeIPNS_16__tree_node_baseIS8_EEEE, symObjAddr: 0x8DB0, symBinAddr: 0x10000A2A0, symSize: 0x60 }
  - { offset: 0x19993, size: 0x8, addend: 0x0, symName: __ZNKSt3__117__compressed_pairINS_15__tree_end_nodeIPNS_16__tree_node_baseIPvEEEENS_9allocatorINS_11__tree_nodeINS_12basic_stringIcNS_11char_traitsIcEENS7_IcEEEES3_EEEEE5firstB8ne180100Ev, symObjAddr: 0x8E10, symBinAddr: 0x10000A300, symSize: 0xE0 }
  - { offset: 0x199B9, size: 0x8, addend: 0x0, symName: __ZNKSt3__122__compressed_pair_elemINS_15__tree_end_nodeIPNS_16__tree_node_baseIPvEEEELi0ELb0EE5__getB8ne180100Ev, symObjAddr: 0x8EF0, symBinAddr: 0x10000A3E0, symSize: 0x80 }
  - { offset: 0x199DF, size: 0x8, addend: 0x0, symName: __ZNSt3__121__tree_const_iteratorINS_12basic_stringIcNS_11char_traitsIcEENS_9allocatorIcEEEEPNS_11__tree_nodeIS6_PvEElEC2B8ne180100EPNS_15__tree_end_nodeIPNS_16__tree_node_baseIS8_EEEE, symObjAddr: 0x8F70, symBinAddr: 0x10000A460, symSize: 0x90 }
  - { offset: 0x19A18, size: 0x8, addend: 0x0, symName: __ZNSt3__16__treeINS_12basic_stringIcNS_11char_traitsIcEENS_9allocatorIcEEEENS_4lessIS6_EENS4_IS6_EEE30__emplace_hint_unique_key_argsIS6_JRKS6_EEENS_4pairINS_15__tree_iteratorIS6_PNS_11__tree_nodeIS6_PvEElEEbEENS_21__tree_const_iteratorIS6_SJ_lEERKT_DpOT0_, symObjAddr: 0x9000, symBinAddr: 0x10000A4F0, symSize: 0x5D8 }
  - { offset: 0x19AFF, size: 0x8, addend: 0x0, symName: __ZNSt3__122__tree_key_value_typesINS_12basic_stringIcNS_11char_traitsIcEENS_9allocatorIcEEEEE9__get_keyB8ne180100ERKS6_, symObjAddr: 0x95D8, symBinAddr: 0x10000AAC8, symSize: 0x58 }
  - { offset: 0x19B23, size: 0x8, addend: 0x0, symName: __ZNSt3__16__treeINS_12basic_stringIcNS_11char_traitsIcEENS_9allocatorIcEEEENS_4lessIS6_EENS4_IS6_EEE12__find_equalIS6_EERPNS_16__tree_node_baseIPvEENS_21__tree_const_iteratorIS6_PNS_11__tree_nodeIS6_SD_EElEERPNS_15__tree_end_nodeISF_EESG_RKT_, symObjAddr: 0x9630, symBinAddr: 0x10000AB20, symSize: 0x1110 }
  - { offset: 0x19BD9, size: 0x8, addend: 0x0, symName: __ZNSt3__16__treeINS_12basic_stringIcNS_11char_traitsIcEENS_9allocatorIcEEEENS_4lessIS6_EENS4_IS6_EEE16__construct_nodeIJRKS6_EEENS_10unique_ptrINS_11__tree_nodeIS6_PvEENS_22__tree_node_destructorINS4_ISH_EEEEEEDpOT_, symObjAddr: 0xA740, symBinAddr: 0x10000BC30, symSize: 0x5C0 }
  - { offset: 0x19C3C, size: 0x8, addend: 0x0, symName: __ZNSt3__16__treeINS_12basic_stringIcNS_11char_traitsIcEENS_9allocatorIcEEEENS_4lessIS6_EENS4_IS6_EEE16__insert_node_atEPNS_15__tree_end_nodeIPNS_16__tree_node_baseIPvEEEERSF_SF_, symObjAddr: 0xAD00, symBinAddr: 0x10000C1F0, symSize: 0x6C0 }
  - { offset: 0x19C8F, size: 0x8, addend: 0x0, symName: __ZNKSt3__110unique_ptrINS_11__tree_nodeINS_12basic_stringIcNS_11char_traitsIcEENS_9allocatorIcEEEEPvEENS_22__tree_node_destructorINS5_IS9_EEEEE3getB8ne180100Ev, symObjAddr: 0xB3C0, symBinAddr: 0x10000C8B0, symSize: 0xF0 }
  - { offset: 0x19CB5, size: 0x8, addend: 0x0, symName: __ZNSt3__110unique_ptrINS_11__tree_nodeINS_12basic_stringIcNS_11char_traitsIcEENS_9allocatorIcEEEEPvEENS_22__tree_node_destructorINS5_IS9_EEEEE7releaseB8ne180100Ev, symObjAddr: 0xB4B0, symBinAddr: 0x10000C9A0, symSize: 0x190 }
  - { offset: 0x19CEA, size: 0x8, addend: 0x0, symName: __ZNSt3__110unique_ptrINS_11__tree_nodeINS_12basic_stringIcNS_11char_traitsIcEENS_9allocatorIcEEEEPvEENS_22__tree_node_destructorINS5_IS9_EEEEED1B8ne180100Ev, symObjAddr: 0xB640, symBinAddr: 0x10000CB30, symSize: 0x50 }
  - { offset: 0x19D14, size: 0x8, addend: 0x0, symName: __ZNSt3__115__tree_iteratorINS_12basic_stringIcNS_11char_traitsIcEENS_9allocatorIcEEEEPNS_11__tree_nodeIS6_PvEElEC1B8ne180100ESA_, symObjAddr: 0xB690, symBinAddr: 0x10000CB80, symSize: 0x60 }
  - { offset: 0x19D53, size: 0x8, addend: 0x0, symName: __ZNSt3__14pairINS_15__tree_iteratorINS_12basic_stringIcNS_11char_traitsIcEENS_9allocatorIcEEEEPNS_11__tree_nodeIS7_PvEElEEbEC1B8ne180100ISC_RbTnNS_9enable_ifIXclsr10_CheckArgsE17__enable_implicitIT_T0_EEEiE4typeELi0EEEOSH_OSI_, symObjAddr: 0xB6F0, symBinAddr: 0x10000CBE0, symSize: 0x68 }
  - { offset: 0x19DB1, size: 0x8, addend: 0x0, symName: __ZNSt3__16__treeINS_12basic_stringIcNS_11char_traitsIcEENS_9allocatorIcEEEENS_4lessIS6_EENS4_IS6_EEE3endB8ne180100Ev, symObjAddr: 0xB830, symBinAddr: 0x10000CD20, symSize: 0x190 }
  - { offset: 0x19DD8, size: 0x8, addend: 0x0, symName: __ZNSt3__121__tree_const_iteratorINS_12basic_stringIcNS_11char_traitsIcEENS_9allocatorIcEEEEPNS_11__tree_nodeIS6_PvEElEC1B8ne180100ENS_15__tree_iteratorIS6_SA_lEE, symObjAddr: 0xB9C0, symBinAddr: 0x10000CEB0, symSize: 0x60 }
  - { offset: 0x19E11, size: 0x8, addend: 0x0, symName: __ZNSt3__16__treeINS_12basic_stringIcNS_11char_traitsIcEENS_9allocatorIcEEEENS_4lessIS6_EENS4_IS6_EEE10value_compB8ne180100Ev, symObjAddr: 0xBA20, symBinAddr: 0x10000CF10, symSize: 0xB0 }
  - { offset: 0x19E37, size: 0x8, addend: 0x0, symName: __ZNKSt3__14lessINS_12basic_stringIcNS_11char_traitsIcEENS_9allocatorIcEEEEEclB8ne180100ERKS6_S9_, symObjAddr: 0xBAD0, symBinAddr: 0x10000CFC0, symSize: 0x200 }
  - { offset: 0x19E7E, size: 0x8, addend: 0x0, symName: __ZNKSt3__121__tree_const_iteratorINS_12basic_stringIcNS_11char_traitsIcEENS_9allocatorIcEEEEPNS_11__tree_nodeIS6_PvEElEdeB8ne180100Ev, symObjAddr: 0xBCD0, symBinAddr: 0x10000D1C0, symSize: 0xC0 }
  - { offset: 0x19EA4, size: 0x8, addend: 0x0, symName: __ZNSt3__16__treeINS_12basic_stringIcNS_11char_traitsIcEENS_9allocatorIcEEEENS_4lessIS6_EENS4_IS6_EEE5beginB8ne180100Ev, symObjAddr: 0xBD90, symBinAddr: 0x10000D280, symSize: 0x1F0 }
  - { offset: 0x19ECB, size: 0x8, addend: 0x0, symName: __ZNSt3__121__tree_const_iteratorINS_12basic_stringIcNS_11char_traitsIcEENS_9allocatorIcEEEEPNS_11__tree_nodeIS6_PvEElEmmB8ne180100Ev, symObjAddr: 0xBF80, symBinAddr: 0x10000D470, symSize: 0x120 }
  - { offset: 0x19EF1, size: 0x8, addend: 0x0, symName: __ZNSt3__16__treeINS_12basic_stringIcNS_11char_traitsIcEENS_9allocatorIcEEEENS_4lessIS6_EENS4_IS6_EEE12__find_equalIS6_EERPNS_16__tree_node_baseIPvEERPNS_15__tree_end_nodeISF_EERKT_, symObjAddr: 0xC0A0, symBinAddr: 0x10000D590, symSize: 0xB98 }
  - { offset: 0x19F5C, size: 0x8, addend: 0x0, symName: __ZNKSt3__121__tree_const_iteratorINS_12basic_stringIcNS_11char_traitsIcEENS_9allocatorIcEEEEPNS_11__tree_nodeIS6_PvEElE8__get_npB8ne180100Ev, symObjAddr: 0xCDB0, symBinAddr: 0x10000E2A0, symSize: 0xB0 }
  - { offset: 0x19F82, size: 0x8, addend: 0x0, symName: __ZNSt3__115__tree_iteratorINS_12basic_stringIcNS_11char_traitsIcEENS_9allocatorIcEEEEPNS_11__tree_nodeIS6_PvEElEC1B8ne180100EPNS_15__tree_end_nodeIPNS_16__tree_node_baseIS8_EEEE, symObjAddr: 0xCE60, symBinAddr: 0x10000E350, symSize: 0x60 }
  - { offset: 0x19FBB, size: 0x8, addend: 0x0, symName: __ZNSt3__115__tree_iteratorINS_12basic_stringIcNS_11char_traitsIcEENS_9allocatorIcEEEEPNS_11__tree_nodeIS6_PvEElEC2B8ne180100EPNS_15__tree_end_nodeIPNS_16__tree_node_baseIS8_EEEE, symObjAddr: 0xCEC0, symBinAddr: 0x10000E3B0, symSize: 0x90 }
  - { offset: 0x19FF4, size: 0x8, addend: 0x0, symName: __ZNSt3__121__tree_const_iteratorINS_12basic_stringIcNS_11char_traitsIcEENS_9allocatorIcEEEEPNS_11__tree_nodeIS6_PvEElEC2B8ne180100ENS_15__tree_iteratorIS6_SA_lEE, symObjAddr: 0xCF50, symBinAddr: 0x10000E440, symSize: 0x90 }
  - { offset: 0x1A02D, size: 0x8, addend: 0x0, symName: __ZNSt3__117__compressed_pairImNS_4lessINS_12basic_stringIcNS_11char_traitsIcEENS_9allocatorIcEEEEEEE6secondB8ne180100Ev, symObjAddr: 0xCFE0, symBinAddr: 0x10000E4D0, symSize: 0xC0 }
  - { offset: 0x1A053, size: 0x8, addend: 0x0, symName: __ZNSt3__122__compressed_pair_elemINS_4lessINS_12basic_stringIcNS_11char_traitsIcEENS_9allocatorIcEEEEEELi1ELb1EE5__getB8ne180100Ev, symObjAddr: 0xD0A0, symBinAddr: 0x10000E590, symSize: 0x68 }
  - { offset: 0x1A088, size: 0x8, addend: 0x0, symName: __ZNSt3__120_CmpUnspecifiedParamC1B8ne180100EMS0_i, symObjAddr: 0xD1E0, symBinAddr: 0x10000E6D0, symSize: 0x58 }
  - { offset: 0x1A0BD, size: 0x8, addend: 0x0, symName: __ZNKSt3__112basic_stringIcNS_11char_traitsIcEENS_9allocatorIcEEEcvNS_17basic_string_viewIcS2_EEB8ne180100Ev, symObjAddr: 0xD420, symBinAddr: 0x10000E910, symSize: 0x1B0 }
  - { offset: 0x1A0E4, size: 0x8, addend: 0x0, symName: __ZNKSt3__117basic_string_viewIcNS_11char_traitsIcEEE7compareES3_, symObjAddr: 0xD5D0, symBinAddr: 0x10000EAC0, symSize: 0x378 }
  - { offset: 0x1A13E, size: 0x8, addend: 0x0, symName: __ZNKSt3__117basic_string_viewIcNS_11char_traitsIcEEE4sizeB8ne180100Ev, symObjAddr: 0xDA10, symBinAddr: 0x10000EF00, symSize: 0x88 }
  - { offset: 0x1A164, size: 0x8, addend: 0x0, symName: __ZNSt3__111char_traitsIcE7compareB8ne180100EPKcS3_m, symObjAddr: 0xDA98, symBinAddr: 0x10000EF88, symSize: 0x38 }
  - { offset: 0x1A1A3, size: 0x8, addend: 0x0, symName: __ZNKSt3__117basic_string_viewIcNS_11char_traitsIcEEE4dataB8ne180100Ev, symObjAddr: 0xDAD0, symBinAddr: 0x10000EFC0, symSize: 0x88 }
  - { offset: 0x1A1D3, size: 0x8, addend: 0x0, symName: __ZNKSt3__16__lessIvvEclB8ne180100ImmEEbRKT_RKT0_, symObjAddr: 0xDD70, symBinAddr: 0x10000F260, symSize: 0xC0 }
  - { offset: 0x1A227, size: 0x8, addend: 0x0, symName: __ZNKSt3__112basic_stringIcNS_11char_traitsIcEENS_9allocatorIcEEE4dataB8ne180100Ev, symObjAddr: 0xDE30, symBinAddr: 0x10000F320, symSize: 0x60 }
  - { offset: 0x1A24D, size: 0x8, addend: 0x0, symName: __ZNSt3__117basic_string_viewIcNS_11char_traitsIcEEEC1B8ne180100EPKcm, symObjAddr: 0xDE90, symBinAddr: 0x10000F380, symSize: 0x68 }
  - { offset: 0x1A295, size: 0x8, addend: 0x0, symName: __ZNKSt3__112basic_stringIcNS_11char_traitsIcEENS_9allocatorIcEEE13__get_pointerB8ne180100Ev, symObjAddr: 0xDF10, symBinAddr: 0x10000F400, symSize: 0x80 }
  - { offset: 0x1A2BB, size: 0x8, addend: 0x0, symName: __ZNKSt3__112basic_stringIcNS_11char_traitsIcEENS_9allocatorIcEEE18__get_long_pointerB8ne180100Ev, symObjAddr: 0xDF90, symBinAddr: 0x10000F480, symSize: 0x180 }
  - { offset: 0x1A2E1, size: 0x8, addend: 0x0, symName: __ZNKSt3__112basic_stringIcNS_11char_traitsIcEENS_9allocatorIcEEE19__get_short_pointerB8ne180100Ev, symObjAddr: 0xE110, symBinAddr: 0x10000F600, symSize: 0x158 }
  - { offset: 0x1A307, size: 0x8, addend: 0x0, symName: __ZNSt3__114pointer_traitsIPKcE10pointer_toB8ne180100ERS1_, symObjAddr: 0xE268, symBinAddr: 0x10000F758, symSize: 0x18 }
  - { offset: 0x1A32A, size: 0x8, addend: 0x0, symName: __ZNSt3__117basic_string_viewIcNS_11char_traitsIcEEEC2B8ne180100EPKcm, symObjAddr: 0xE280, symBinAddr: 0x10000F770, symSize: 0xD0 }
  - { offset: 0x1A372, size: 0x8, addend: 0x0, symName: __ZNSt3__120_CmpUnspecifiedParamC2B8ne180100EMS0_i, symObjAddr: 0xE350, symBinAddr: 0x10000F840, symSize: 0x48 }
  - { offset: 0x1A3A7, size: 0x8, addend: 0x0, symName: __ZNKSt3__116__tree_node_baseIPvE15__parent_unsafeB8ne180100Ev, symObjAddr: 0xE8D0, symBinAddr: 0x10000FDC0, symSize: 0xC0 }
  - { offset: 0x1A3CD, size: 0x8, addend: 0x0, symName: __ZNKSt3__16__treeINS_12basic_stringIcNS_11char_traitsIcEENS_9allocatorIcEEEENS_4lessIS6_EENS4_IS6_EEE6__rootB8ne180100Ev, symObjAddr: 0xE990, symBinAddr: 0x10000FE80, symSize: 0x120 }
  - { offset: 0x1A3F3, size: 0x8, addend: 0x0, symName: __ZNKSt3__16__treeINS_12basic_stringIcNS_11char_traitsIcEENS_9allocatorIcEEEENS_4lessIS6_EENS4_IS6_EEE10__root_ptrB8ne180100Ev, symObjAddr: 0xEAB0, symBinAddr: 0x10000FFA0, symSize: 0x98 }
  - { offset: 0x1A419, size: 0x8, addend: 0x0, symName: __ZNSt3__121__tree_const_iteratorINS_12basic_stringIcNS_11char_traitsIcEENS_9allocatorIcEEEEPNS_11__tree_nodeIS6_PvEElEppB8ne180100Ev, symObjAddr: 0xED20, symBinAddr: 0x100010210, symSize: 0x128 }
  - { offset: 0x1A43F, size: 0x8, addend: 0x0, symName: __ZNSt3__16__treeINS_12basic_stringIcNS_11char_traitsIcEENS_9allocatorIcEEEENS_4lessIS6_EENS4_IS6_EEE12__node_allocB8ne180100Ev, symObjAddr: 0xF290, symBinAddr: 0x100010780, symSize: 0xB8 }
  - { offset: 0x1A465, size: 0x8, addend: 0x0, symName: __ZNSt3__116allocator_traitsINS_9allocatorINS_11__tree_nodeINS_12basic_stringIcNS_11char_traitsIcEENS1_IcEEEEPvEEEEE8allocateB8ne180100ERSA_m, symObjAddr: 0xF348, symBinAddr: 0x100010838, symSize: 0x28 }
  - { offset: 0x1A498, size: 0x8, addend: 0x0, symName: __ZNSt3__122__tree_node_destructorINS_9allocatorINS_11__tree_nodeINS_12basic_stringIcNS_11char_traitsIcEENS1_IcEEEEPvEEEEEC1B8ne180100ERSA_b, symObjAddr: 0xF370, symBinAddr: 0x100010860, symSize: 0xA0 }
  - { offset: 0x1A4E6, size: 0x8, addend: 0x0, symName: __ZNSt3__110unique_ptrINS_11__tree_nodeINS_12basic_stringIcNS_11char_traitsIcEENS_9allocatorIcEEEEPvEENS_22__tree_node_destructorINS5_IS9_EEEEEC1B8ne180100ILb1EvEEPS9_NS_16__dependent_typeINS_27__unique_ptr_deleter_sfinaeISC_EEXT_EE20__good_rval_ref_typeE, symObjAddr: 0xF410, symBinAddr: 0x100010900, symSize: 0x68 }
  - { offset: 0x1A537, size: 0x8, addend: 0x0, symName: __ZNSt3__116allocator_traitsINS_9allocatorINS_11__tree_nodeINS_12basic_stringIcNS_11char_traitsIcEENS1_IcEEEEPvEEEEE9constructB8ne180100IS7_JRKS7_EvvEEvRSA_PT_DpOT0_, symObjAddr: 0xF478, symBinAddr: 0x100010968, symSize: 0x70 }
  - { offset: 0x1A58C, size: 0x8, addend: 0x0, symName: __ZNSt3__122__tree_key_value_typesINS_12basic_stringIcNS_11char_traitsIcEENS_9allocatorIcEEEEE9__get_ptrB8ne180100ERS6_, symObjAddr: 0xF4E8, symBinAddr: 0x1000109D8, symSize: 0x18 }
  - { offset: 0x1A5B0, size: 0x8, addend: 0x0, symName: __ZNKSt3__110unique_ptrINS_11__tree_nodeINS_12basic_stringIcNS_11char_traitsIcEENS_9allocatorIcEEEEPvEENS_22__tree_node_destructorINS5_IS9_EEEEEptB8ne180100Ev, symObjAddr: 0xF500, symBinAddr: 0x1000109F0, symSize: 0xF0 }
  - { offset: 0x1A5D6, size: 0x8, addend: 0x0, symName: __ZNSt3__110unique_ptrINS_11__tree_nodeINS_12basic_stringIcNS_11char_traitsIcEENS_9allocatorIcEEEEPvEENS_22__tree_node_destructorINS5_IS9_EEEEE11get_deleterB8ne180100Ev, symObjAddr: 0xF5F0, symBinAddr: 0x100010AE0, symSize: 0xC0 }
  - { offset: 0x1A5FC, size: 0x8, addend: 0x0, symName: __ZNSt3__117__compressed_pairINS_15__tree_end_nodeIPNS_16__tree_node_baseIPvEEEENS_9allocatorINS_11__tree_nodeINS_12basic_stringIcNS_11char_traitsIcEENS7_IcEEEES3_EEEEE6secondB8ne180100Ev, symObjAddr: 0xF6B0, symBinAddr: 0x100010BA0, symSize: 0xC0 }
  - { offset: 0x1A622, size: 0x8, addend: 0x0, symName: __ZNSt3__122__compressed_pair_elemINS_9allocatorINS_11__tree_nodeINS_12basic_stringIcNS_11char_traitsIcEENS1_IcEEEEPvEEEELi1ELb1EE5__getB8ne180100Ev, symObjAddr: 0xF770, symBinAddr: 0x100010C60, symSize: 0x60 }
  - { offset: 0x1A648, size: 0x8, addend: 0x0, symName: __ZNSt3__19allocatorINS_11__tree_nodeINS_12basic_stringIcNS_11char_traitsIcEENS0_IcEEEEPvEEE8allocateB8ne180100Em, symObjAddr: 0xF7D0, symBinAddr: 0x100010CC0, symSize: 0xB8 }
  - { offset: 0x1A687, size: 0x8, addend: 0x0, symName: __ZNSt3__116allocator_traitsINS_9allocatorINS_11__tree_nodeINS_12basic_stringIcNS_11char_traitsIcEENS1_IcEEEEPvEEEEE8max_sizeB8ne180100ISA_vvEEmRKSA_, symObjAddr: 0xF888, symBinAddr: 0x100010D78, symSize: 0x50 }
  - { offset: 0x1A6B3, size: 0x8, addend: 0x0, symName: __ZNSt3__114numeric_limitsImE3maxB8ne180100Ev, symObjAddr: 0xF9C8, symBinAddr: 0x100010EB8, symSize: 0x20 }
  - { offset: 0x1A6C7, size: 0x8, addend: 0x0, symName: __ZNSt3__123__libcpp_numeric_limitsImLb1EE3maxB8ne180100Ev, symObjAddr: 0xF9E8, symBinAddr: 0x100010ED8, symSize: 0x20 }
  - { offset: 0x1A6DB, size: 0x8, addend: 0x0, symName: __ZNSt3__122__tree_node_destructorINS_9allocatorINS_11__tree_nodeINS_12basic_stringIcNS_11char_traitsIcEENS1_IcEEEEPvEEEEEC2B8ne180100ERSA_b, symObjAddr: 0xFAC0, symBinAddr: 0x100010FB0, symSize: 0x130 }
  - { offset: 0x1A723, size: 0x8, addend: 0x0, symName: __ZNSt3__110unique_ptrINS_11__tree_nodeINS_12basic_stringIcNS_11char_traitsIcEENS_9allocatorIcEEEEPvEENS_22__tree_node_destructorINS5_IS9_EEEEEC2B8ne180100ILb1EvEEPS9_NS_16__dependent_typeINS_27__unique_ptr_deleter_sfinaeISC_EEXT_EE20__good_rval_ref_typeE, symObjAddr: 0xFBF0, symBinAddr: 0x1000110E0, symSize: 0x1E0 }
  - { offset: 0x1A77A, size: 0x8, addend: 0x0, symName: __ZNSt3__117__compressed_pairIPNS_11__tree_nodeINS_12basic_stringIcNS_11char_traitsIcEENS_9allocatorIcEEEEPvEENS_22__tree_node_destructorINS5_IS9_EEEEEC1B8ne180100IRSA_SD_EEOT_OT0_, symObjAddr: 0xFDD0, symBinAddr: 0x1000112C0, symSize: 0x60 }
  - { offset: 0x1A7D2, size: 0x8, addend: 0x0, symName: __ZNSt3__117__compressed_pairIPNS_11__tree_nodeINS_12basic_stringIcNS_11char_traitsIcEENS_9allocatorIcEEEEPvEENS_22__tree_node_destructorINS5_IS9_EEEEEC2B8ne180100IRSA_SD_EEOT_OT0_, symObjAddr: 0xFE30, symBinAddr: 0x100011320, symSize: 0x140 }
  - { offset: 0x1A82A, size: 0x8, addend: 0x0, symName: __ZNSt3__122__compressed_pair_elemIPNS_11__tree_nodeINS_12basic_stringIcNS_11char_traitsIcEENS_9allocatorIcEEEEPvEELi0ELb0EEC2B8ne180100IRSA_vEEOT_, symObjAddr: 0xFF70, symBinAddr: 0x100011460, symSize: 0xF0 }
  - { offset: 0x1A86C, size: 0x8, addend: 0x0, symName: __ZNSt3__122__compressed_pair_elemINS_22__tree_node_destructorINS_9allocatorINS_11__tree_nodeINS_12basic_stringIcNS_11char_traitsIcEENS2_IcEEEEPvEEEEEELi1ELb0EEC2B8ne180100ISC_vEEOT_, symObjAddr: 0x10060, symBinAddr: 0x100011550, symSize: 0x68 }
  - { offset: 0x1A8AE, size: 0x8, addend: 0x0, symName: __ZNKSt3__117__compressed_pairIPNS_11__tree_nodeINS_12basic_stringIcNS_11char_traitsIcEENS_9allocatorIcEEEEPvEENS_22__tree_node_destructorINS5_IS9_EEEEE5firstB8ne180100Ev, symObjAddr: 0x10210, symBinAddr: 0x100011700, symSize: 0xE0 }
  - { offset: 0x1A8D4, size: 0x8, addend: 0x0, symName: __ZNKSt3__122__compressed_pair_elemIPNS_11__tree_nodeINS_12basic_stringIcNS_11char_traitsIcEENS_9allocatorIcEEEEPvEELi0ELb0EE5__getB8ne180100Ev, symObjAddr: 0x102F0, symBinAddr: 0x1000117E0, symSize: 0x80 }
  - { offset: 0x1A8FA, size: 0x8, addend: 0x0, symName: __ZNSt3__117__compressed_pairIPNS_11__tree_nodeINS_12basic_stringIcNS_11char_traitsIcEENS_9allocatorIcEEEEPvEENS_22__tree_node_destructorINS5_IS9_EEEEE6secondB8ne180100Ev, symObjAddr: 0x10370, symBinAddr: 0x100011860, symSize: 0xE0 }
  - { offset: 0x1A920, size: 0x8, addend: 0x0, symName: __ZNSt3__122__compressed_pair_elemINS_22__tree_node_destructorINS_9allocatorINS_11__tree_nodeINS_12basic_stringIcNS_11char_traitsIcEENS2_IcEEEEPvEEEEEELi1ELb0EE5__getB8ne180100Ev, symObjAddr: 0x10450, symBinAddr: 0x100011940, symSize: 0x88 }
  - { offset: 0x1A946, size: 0x8, addend: 0x0, symName: __ZNSt3__16__treeINS_12basic_stringIcNS_11char_traitsIcEENS_9allocatorIcEEEENS_4lessIS6_EENS4_IS6_EEE4sizeB8ne180100Ev, symObjAddr: 0x11890, symBinAddr: 0x100012D80, symSize: 0xC8 }
  - { offset: 0x1A96C, size: 0x8, addend: 0x0, symName: __ZNSt3__116__tree_node_baseIPvE12__set_parentB8ne180100EPS2_, symObjAddr: 0x12AE0, symBinAddr: 0x100013FD0, symSize: 0xC0 }
  - { offset: 0x1A9A1, size: 0x8, addend: 0x0, symName: __ZNSt3__117__compressed_pairImNS_4lessINS_12basic_stringIcNS_11char_traitsIcEENS_9allocatorIcEEEEEEE5firstB8ne180100Ev, symObjAddr: 0x12BA0, symBinAddr: 0x100014090, symSize: 0xE0 }
  - { offset: 0x1A9C7, size: 0x8, addend: 0x0, symName: __ZNSt3__122__compressed_pair_elemImLi0ELb0EE5__getB8ne180100Ev, symObjAddr: 0x12C80, symBinAddr: 0x100014170, symSize: 0x80 }
  - { offset: 0x1A9ED, size: 0x8, addend: 0x0, symName: __ZNSt3__117__compressed_pairIPNS_11__tree_nodeINS_12basic_stringIcNS_11char_traitsIcEENS_9allocatorIcEEEEPvEENS_22__tree_node_destructorINS5_IS9_EEEEE5firstB8ne180100Ev, symObjAddr: 0x12D00, symBinAddr: 0x1000141F0, symSize: 0xE0 }
  - { offset: 0x1AA13, size: 0x8, addend: 0x0, symName: __ZNSt3__122__compressed_pair_elemIPNS_11__tree_nodeINS_12basic_stringIcNS_11char_traitsIcEENS_9allocatorIcEEEEPvEELi0ELb0EE5__getB8ne180100Ev, symObjAddr: 0x12DE0, symBinAddr: 0x1000142D0, symSize: 0x80 }
  - { offset: 0x1AA39, size: 0x8, addend: 0x0, symName: __ZNSt3__110unique_ptrINS_11__tree_nodeINS_12basic_stringIcNS_11char_traitsIcEENS_9allocatorIcEEEEPvEENS_22__tree_node_destructorINS5_IS9_EEEEED2B8ne180100Ev, symObjAddr: 0x12E60, symBinAddr: 0x100014350, symSize: 0x60 }
  - { offset: 0x1AA63, size: 0x8, addend: 0x0, symName: __ZNSt3__110unique_ptrINS_11__tree_nodeINS_12basic_stringIcNS_11char_traitsIcEENS_9allocatorIcEEEEPvEENS_22__tree_node_destructorINS5_IS9_EEEEE5resetB8ne180100EPS9_, symObjAddr: 0x12EC0, symBinAddr: 0x1000143B0, symSize: 0x220 }
  - { offset: 0x1AAA7, size: 0x8, addend: 0x0, symName: __ZNSt3__122__tree_node_destructorINS_9allocatorINS_11__tree_nodeINS_12basic_stringIcNS_11char_traitsIcEENS1_IcEEEEPvEEEEEclB8ne180100EPS9_, symObjAddr: 0x130E0, symBinAddr: 0x1000145D0, symSize: 0x228 }
  - { offset: 0x1AADC, size: 0x8, addend: 0x0, symName: __ZNSt3__116allocator_traitsINS_9allocatorINS_11__tree_nodeINS_12basic_stringIcNS_11char_traitsIcEENS1_IcEEEEPvEEEEE7destroyB8ne180100IS7_vvEEvRSA_PT_, symObjAddr: 0x13308, symBinAddr: 0x1000147F8, symSize: 0x30 }
  - { offset: 0x1AB17, size: 0x8, addend: 0x0, symName: __ZNSt3__116allocator_traitsINS_9allocatorINS_11__tree_nodeINS_12basic_stringIcNS_11char_traitsIcEENS1_IcEEEEPvEEEEE10deallocateB8ne180100ERSA_PS9_m, symObjAddr: 0x13338, symBinAddr: 0x100014828, symSize: 0x40 }
  - { offset: 0x1AB59, size: 0x8, addend: 0x0, symName: __ZNSt3__19allocatorINS_11__tree_nodeINS_12basic_stringIcNS_11char_traitsIcEENS0_IcEEEEPvEEE10deallocateB8ne180100EPS8_m, symObjAddr: 0x133D0, symBinAddr: 0x1000148C0, symSize: 0x78 }
  - { offset: 0x1AB9B, size: 0x8, addend: 0x0, symName: __ZNSt3__115__tree_iteratorINS_12basic_stringIcNS_11char_traitsIcEENS_9allocatorIcEEEEPNS_11__tree_nodeIS6_PvEElEC2B8ne180100ESA_, symObjAddr: 0x13570, symBinAddr: 0x100014A60, symSize: 0xC0 }
  - { offset: 0x1ABD4, size: 0x8, addend: 0x0, symName: __ZNSt3__14pairINS_15__tree_iteratorINS_12basic_stringIcNS_11char_traitsIcEENS_9allocatorIcEEEEPNS_11__tree_nodeIS7_PvEElEEbEC2B8ne180100ISC_RbTnNS_9enable_ifIXclsr10_CheckArgsE17__enable_implicitIT_T0_EEEiE4typeELi0EEEOSH_OSI_, symObjAddr: 0x13630, symBinAddr: 0x100014B20, symSize: 0x150 }
  - { offset: 0x1AC32, size: 0x8, addend: 0x0, symName: __ZNSt3__16__treeINS_12basic_stringIcNS_11char_traitsIcEENS_9allocatorIcEEEENS_4lessIS6_EENS4_IS6_EEED2Ev, symObjAddr: 0x13780, symBinAddr: 0x100014C70, symSize: 0x60 }
  - { offset: 0x1AC5C, size: 0x8, addend: 0x0, symName: __ZNSt3__16__treeINS_12basic_stringIcNS_11char_traitsIcEENS_9allocatorIcEEEENS_4lessIS6_EENS4_IS6_EEE7destroyEPNS_11__tree_nodeIS6_PvEE, symObjAddr: 0x137E0, symBinAddr: 0x100014CD0, symSize: 0x370 }
  - { offset: 0x1ACA7, size: 0x8, addend: 0x0, symName: __ZNSt3__14pairIKNS_12basic_stringIcNS_11char_traitsIcEENS_9allocatorIcEEEENS_3setIS6_NS_4lessIS6_EENS4_IS6_EEEEEC2B8ne180100ILb1ETnNS_9enable_ifIXclsr13_CheckArgsDepIXT_EEE17__enable_implicitIRS7_RKSC_EEEiE4typeELi0EEESG_SI_, symObjAddr: 0x13B50, symBinAddr: 0x100015040, symSize: 0x100 }
  - { offset: 0x1ACFD, size: 0x8, addend: 0x0, symName: __ZNSt3__13setINS_12basic_stringIcNS_11char_traitsIcEENS_9allocatorIcEEEENS_4lessIS6_EENS4_IS6_EEEC1B8ne180100ERKSA_, symObjAddr: 0x13C50, symBinAddr: 0x100015140, symSize: 0x60 }
  - { offset: 0x1AD36, size: 0x8, addend: 0x0, symName: __ZNSt3__13setINS_12basic_stringIcNS_11char_traitsIcEENS_9allocatorIcEEEENS_4lessIS6_EENS4_IS6_EEEC2B8ne180100ERKSA_, symObjAddr: 0x13CB0, symBinAddr: 0x1000151A0, symSize: 0x130 }
  - { offset: 0x1AD6F, size: 0x8, addend: 0x0, symName: __ZNSt3__16__treeINS_12basic_stringIcNS_11char_traitsIcEENS_9allocatorIcEEEENS_4lessIS6_EENS4_IS6_EEEC1ERKSA_, symObjAddr: 0x13DE0, symBinAddr: 0x1000152D0, symSize: 0x60 }
  - { offset: 0x1ADA8, size: 0x8, addend: 0x0, symName: __ZNSt3__13setINS_12basic_stringIcNS_11char_traitsIcEENS_9allocatorIcEEEENS_4lessIS6_EENS4_IS6_EEE6insertB8ne180100INS_21__tree_const_iteratorIS6_PNS_11__tree_nodeIS6_PvEElEEEEvT_SI_, symObjAddr: 0x13E40, symBinAddr: 0x100015330, symSize: 0x2A0 }
  - { offset: 0x1AE1C, size: 0x8, addend: 0x0, symName: __ZNKSt3__13setINS_12basic_stringIcNS_11char_traitsIcEENS_9allocatorIcEEEENS_4lessIS6_EENS4_IS6_EEE5beginB8ne180100Ev, symObjAddr: 0x140E0, symBinAddr: 0x1000155D0, symSize: 0x90 }
  - { offset: 0x1AE42, size: 0x8, addend: 0x0, symName: __ZNSt3__16__treeINS_12basic_stringIcNS_11char_traitsIcEENS_9allocatorIcEEEENS_4lessIS6_EENS4_IS6_EEEC2ERKSA_, symObjAddr: 0x14170, symBinAddr: 0x100015660, symSize: 0x3A8 }
  - { offset: 0x1AE7D, size: 0x8, addend: 0x0, symName: __ZNSt3__116allocator_traitsINS_9allocatorINS_11__tree_nodeINS_12basic_stringIcNS_11char_traitsIcEENS1_IcEEEEPvEEEEE37select_on_container_copy_constructionB8ne180100ISA_vvEESA_RKSA_, symObjAddr: 0x14518, symBinAddr: 0x100015A08, symSize: 0x18 }
  - { offset: 0x1AEAC, size: 0x8, addend: 0x0, symName: __ZNKSt3__16__treeINS_12basic_stringIcNS_11char_traitsIcEENS_9allocatorIcEEEENS_4lessIS6_EENS4_IS6_EEE12__node_allocB8ne180100Ev, symObjAddr: 0x14530, symBinAddr: 0x100015A20, symSize: 0xB0 }
  - { offset: 0x1AED8, size: 0x8, addend: 0x0, symName: __ZNSt3__117__compressed_pairINS_15__tree_end_nodeIPNS_16__tree_node_baseIPvEEEENS_9allocatorINS_11__tree_nodeINS_12basic_stringIcNS_11char_traitsIcEENS7_IcEEEES3_EEEEEC1B8ne180100INS_18__default_init_tagESF_EEOT_OT0_, symObjAddr: 0x145E0, symBinAddr: 0x100015AD0, symSize: 0x60 }
  - { offset: 0x1AF30, size: 0x8, addend: 0x0, symName: __ZNKSt3__16__treeINS_12basic_stringIcNS_11char_traitsIcEENS_9allocatorIcEEEENS_4lessIS6_EENS4_IS6_EEE10value_compB8ne180100Ev, symObjAddr: 0x14640, symBinAddr: 0x100015B30, symSize: 0xB0 }
  - { offset: 0x1AF56, size: 0x8, addend: 0x0, symName: __ZNKSt3__117__compressed_pairINS_15__tree_end_nodeIPNS_16__tree_node_baseIPvEEEENS_9allocatorINS_11__tree_nodeINS_12basic_stringIcNS_11char_traitsIcEENS7_IcEEEES3_EEEEE6secondB8ne180100Ev, symObjAddr: 0x146F0, symBinAddr: 0x100015BE0, symSize: 0xC0 }
  - { offset: 0x1AF7C, size: 0x8, addend: 0x0, symName: __ZNKSt3__122__compressed_pair_elemINS_9allocatorINS_11__tree_nodeINS_12basic_stringIcNS_11char_traitsIcEENS1_IcEEEEPvEEEELi1ELb1EE5__getB8ne180100Ev, symObjAddr: 0x147B0, symBinAddr: 0x100015CA0, symSize: 0x60 }
  - { offset: 0x1AFA2, size: 0x8, addend: 0x0, symName: __ZNSt3__117__compressed_pairINS_15__tree_end_nodeIPNS_16__tree_node_baseIPvEEEENS_9allocatorINS_11__tree_nodeINS_12basic_stringIcNS_11char_traitsIcEENS7_IcEEEES3_EEEEEC2B8ne180100INS_18__default_init_tagESF_EEOT_OT0_, symObjAddr: 0x14810, symBinAddr: 0x100015D00, symSize: 0xE0 }
  - { offset: 0x1AFFA, size: 0x8, addend: 0x0, symName: __ZNSt3__122__compressed_pair_elemINS_15__tree_end_nodeIPNS_16__tree_node_baseIPvEEEELi0ELb0EEC2B8ne180100ENS_18__default_init_tagE, symObjAddr: 0x148F0, symBinAddr: 0x100015DE0, symSize: 0x50 }
  - { offset: 0x1B02F, size: 0x8, addend: 0x0, symName: __ZNSt3__122__compressed_pair_elemINS_9allocatorINS_11__tree_nodeINS_12basic_stringIcNS_11char_traitsIcEENS1_IcEEEEPvEEEELi1ELb1EEC2B8ne180100ISA_vEEOT_, symObjAddr: 0x14940, symBinAddr: 0x100015E30, symSize: 0x40 }
  - { offset: 0x1B071, size: 0x8, addend: 0x0, symName: __ZNKSt3__117__compressed_pairImNS_4lessINS_12basic_stringIcNS_11char_traitsIcEENS_9allocatorIcEEEEEEE6secondB8ne180100Ev, symObjAddr: 0x14980, symBinAddr: 0x100015E70, symSize: 0xC0 }
  - { offset: 0x1B097, size: 0x8, addend: 0x0, symName: __ZNKSt3__122__compressed_pair_elemINS_4lessINS_12basic_stringIcNS_11char_traitsIcEENS_9allocatorIcEEEEEELi1ELb1EE5__getB8ne180100Ev, symObjAddr: 0x14A40, symBinAddr: 0x100015F30, symSize: 0x68 }
  - { offset: 0x1B0BD, size: 0x8, addend: 0x0, symName: __ZNKSt3__16__treeINS_12basic_stringIcNS_11char_traitsIcEENS_9allocatorIcEEEENS_4lessIS6_EENS4_IS6_EEE5beginB8ne180100Ev, symObjAddr: 0x14B40, symBinAddr: 0x100016030, symSize: 0x1F0 }
  - { offset: 0x1B0E4, size: 0x8, addend: 0x0, symName: __ZNKSt3__16__treeINS_12basic_stringIcNS_11char_traitsIcEENS_9allocatorIcEEEENS_4lessIS6_EENS4_IS6_EEE12__begin_nodeB8ne180100Ev, symObjAddr: 0x14D30, symBinAddr: 0x100016220, symSize: 0x80 }
  - { offset: 0x1B10A, size: 0x8, addend: 0x0, symName: __ZNSt3__13mapINS_12basic_stringIcNS_11char_traitsIcEENS_9allocatorIcEEEENS_3setIS6_NS_4lessIS6_EENS4_IS6_EEEES9_NS4_INS_4pairIKS6_SB_EEEEEC2B8ne180100ESt16initializer_listISE_ERKS9_, symObjAddr: 0x14DB0, symBinAddr: 0x1000162A0, symSize: 0x2E0 }
  - { offset: 0x1B158, size: 0x8, addend: 0x0, symName: __ZNSt3__119__map_value_compareINS_12basic_stringIcNS_11char_traitsIcEENS_9allocatorIcEEEENS_12__value_typeIS6_NS_3setIS6_NS_4lessIS6_EENS4_IS6_EEEEEESA_Lb1EEC1B8ne180100ESA_, symObjAddr: 0x15090, symBinAddr: 0x100016580, symSize: 0x40 }
  - { offset: 0x1B191, size: 0x8, addend: 0x0, symName: __ZNSt3__16__treeINS_12__value_typeINS_12basic_stringIcNS_11char_traitsIcEENS_9allocatorIcEEEENS_3setIS7_NS_4lessIS7_EENS5_IS7_EEEEEENS_19__map_value_compareIS7_SD_SA_Lb1EEENS5_ISD_EEEC1ERKSF_, symObjAddr: 0x150D0, symBinAddr: 0x1000165C0, symSize: 0x60 }
  - { offset: 0x1B1CA, size: 0x8, addend: 0x0, symName: __ZNSt3__13mapINS_12basic_stringIcNS_11char_traitsIcEENS_9allocatorIcEEEENS_3setIS6_NS_4lessIS6_EENS4_IS6_EEEES9_NS4_INS_4pairIKS6_SB_EEEEE6insertB8ne180100IPKSE_EEvT_SK_, symObjAddr: 0x15130, symBinAddr: 0x100016620, symSize: 0x280 }
  - { offset: 0x1B238, size: 0x8, addend: 0x0, symName: __ZNKSt16initializer_listINSt3__14pairIKNS0_12basic_stringIcNS0_11char_traitsIcEENS0_9allocatorIcEEEENS0_3setIS7_NS0_4lessIS7_EENS5_IS7_EEEEEEE5beginB8ne180100Ev, symObjAddr: 0x153B0, symBinAddr: 0x1000168A0, symSize: 0x80 }
  - { offset: 0x1B25E, size: 0x8, addend: 0x0, symName: __ZNKSt16initializer_listINSt3__14pairIKNS0_12basic_stringIcNS0_11char_traitsIcEENS0_9allocatorIcEEEENS0_3setIS7_NS0_4lessIS7_EENS5_IS7_EEEEEEE3endB8ne180100Ev, symObjAddr: 0x15430, symBinAddr: 0x100016920, symSize: 0x120 }
  - { offset: 0x1B284, size: 0x8, addend: 0x0, symName: __ZNSt3__16__treeINS_12__value_typeINS_12basic_stringIcNS_11char_traitsIcEENS_9allocatorIcEEEENS_3setIS7_NS_4lessIS7_EENS5_IS7_EEEEEENS_19__map_value_compareIS7_SD_SA_Lb1EEENS5_ISD_EEED1Ev, symObjAddr: 0x15550, symBinAddr: 0x100016A40, symSize: 0x50 }
  - { offset: 0x1B2AE, size: 0x8, addend: 0x0, symName: __ZNSt3__119__map_value_compareINS_12basic_stringIcNS_11char_traitsIcEENS_9allocatorIcEEEENS_12__value_typeIS6_NS_3setIS6_NS_4lessIS6_EENS4_IS6_EEEEEESA_Lb1EEC2B8ne180100ESA_, symObjAddr: 0x155A0, symBinAddr: 0x100016A90, symSize: 0x40 }
  - { offset: 0x1B2E7, size: 0x8, addend: 0x0, symName: __ZNSt3__16__treeINS_12__value_typeINS_12basic_stringIcNS_11char_traitsIcEENS_9allocatorIcEEEENS_3setIS7_NS_4lessIS7_EENS5_IS7_EEEEEENS_19__map_value_compareIS7_SD_SA_Lb1EEENS5_ISD_EEEC2ERKSF_, symObjAddr: 0x155E0, symBinAddr: 0x100016AD0, symSize: 0x270 }
  - { offset: 0x1B322, size: 0x8, addend: 0x0, symName: __ZNSt3__117__compressed_pairINS_15__tree_end_nodeIPNS_16__tree_node_baseIPvEEEENS_9allocatorINS_11__tree_nodeINS_12__value_typeINS_12basic_stringIcNS_11char_traitsIcEENS7_IcEEEENS_3setISE_NS_4lessISE_EENS7_ISE_EEEEEES3_EEEEEC1B8ne180100ILb1EvEEv, symObjAddr: 0x15850, symBinAddr: 0x100016D40, symSize: 0x50 }
  - { offset: 0x1B357, size: 0x8, addend: 0x0, symName: __ZNSt3__117__compressed_pairImNS_19__map_value_compareINS_12basic_stringIcNS_11char_traitsIcEENS_9allocatorIcEEEENS_12__value_typeIS7_NS_3setIS7_NS_4lessIS7_EENS5_IS7_EEEEEESB_Lb1EEEEC1B8ne180100IiRKSF_EEOT_OT0_, symObjAddr: 0x158A0, symBinAddr: 0x100016D90, symSize: 0x60 }
  - { offset: 0x1B3AF, size: 0x8, addend: 0x0, symName: __ZNSt3__16__treeINS_12__value_typeINS_12basic_stringIcNS_11char_traitsIcEENS_9allocatorIcEEEENS_3setIS7_NS_4lessIS7_EENS5_IS7_EEEEEENS_19__map_value_compareIS7_SD_SA_Lb1EEENS5_ISD_EEE10__end_nodeB8ne180100Ev, symObjAddr: 0x15900, symBinAddr: 0x100016DF0, symSize: 0xD0 }
  - { offset: 0x1B3D5, size: 0x8, addend: 0x0, symName: __ZNSt3__16__treeINS_12__value_typeINS_12basic_stringIcNS_11char_traitsIcEENS_9allocatorIcEEEENS_3setIS7_NS_4lessIS7_EENS5_IS7_EEEEEENS_19__map_value_compareIS7_SD_SA_Lb1EEENS5_ISD_EEE12__begin_nodeB8ne180100Ev, symObjAddr: 0x159D0, symBinAddr: 0x100016EC0, symSize: 0x80 }
  - { offset: 0x1B3FB, size: 0x8, addend: 0x0, symName: __ZNSt3__117__compressed_pairINS_15__tree_end_nodeIPNS_16__tree_node_baseIPvEEEENS_9allocatorINS_11__tree_nodeINS_12__value_typeINS_12basic_stringIcNS_11char_traitsIcEENS7_IcEEEENS_3setISE_NS_4lessISE_EENS7_ISE_EEEEEES3_EEEEEC2B8ne180100ILb1EvEEv, symObjAddr: 0x15A50, symBinAddr: 0x100016F40, symSize: 0xB0 }
  - { offset: 0x1B430, size: 0x8, addend: 0x0, symName: __ZNSt3__122__compressed_pair_elemINS_9allocatorINS_11__tree_nodeINS_12__value_typeINS_12basic_stringIcNS_11char_traitsIcEENS1_IcEEEENS_3setIS8_NS_4lessIS8_EENS1_IS8_EEEEEEPvEEEELi1ELb1EEC2B8ne180100ENS_16__value_init_tagE, symObjAddr: 0x15B00, symBinAddr: 0x100016FF0, symSize: 0x60 }
  - { offset: 0x1B465, size: 0x8, addend: 0x0, symName: __ZNSt3__19allocatorINS_11__tree_nodeINS_12__value_typeINS_12basic_stringIcNS_11char_traitsIcEENS0_IcEEEENS_3setIS7_NS_4lessIS7_EENS0_IS7_EEEEEEPvEEEC2B8ne180100Ev, symObjAddr: 0x15B60, symBinAddr: 0x100017050, symSize: 0x60 }
  - { offset: 0x1B48F, size: 0x8, addend: 0x0, symName: __ZNSt3__116__non_trivial_ifILb1ENS_9allocatorINS_11__tree_nodeINS_12__value_typeINS_12basic_stringIcNS_11char_traitsIcEENS1_IcEEEENS_3setIS8_NS_4lessIS8_EENS1_IS8_EEEEEEPvEEEEEC2B8ne180100Ev, symObjAddr: 0x15BC0, symBinAddr: 0x1000170B0, symSize: 0x40 }
  - { offset: 0x1B4B9, size: 0x8, addend: 0x0, symName: __ZNSt3__117__compressed_pairImNS_19__map_value_compareINS_12basic_stringIcNS_11char_traitsIcEENS_9allocatorIcEEEENS_12__value_typeIS7_NS_3setIS7_NS_4lessIS7_EENS5_IS7_EEEEEESB_Lb1EEEEC2B8ne180100IiRKSF_EEOT_OT0_, symObjAddr: 0x15C00, symBinAddr: 0x1000170F0, symSize: 0x110 }
  - { offset: 0x1B511, size: 0x8, addend: 0x0, symName: __ZNSt3__122__compressed_pair_elemINS_19__map_value_compareINS_12basic_stringIcNS_11char_traitsIcEENS_9allocatorIcEEEENS_12__value_typeIS7_NS_3setIS7_NS_4lessIS7_EENS5_IS7_EEEEEESB_Lb1EEELi1ELb1EEC2B8ne180100IRKSF_vEEOT_, symObjAddr: 0x15D10, symBinAddr: 0x100017200, symSize: 0x40 }
  - { offset: 0x1B553, size: 0x8, addend: 0x0, symName: __ZNSt3__117__compressed_pairINS_15__tree_end_nodeIPNS_16__tree_node_baseIPvEEEENS_9allocatorINS_11__tree_nodeINS_12__value_typeINS_12basic_stringIcNS_11char_traitsIcEENS7_IcEEEENS_3setISE_NS_4lessISE_EENS7_ISE_EEEEEES3_EEEEE5firstB8ne180100Ev, symObjAddr: 0x15D50, symBinAddr: 0x100017240, symSize: 0xE0 }
  - { offset: 0x1B579, size: 0x8, addend: 0x0, symName: __ZNKSt3__13mapINS_12basic_stringIcNS_11char_traitsIcEENS_9allocatorIcEEEENS_3setIS6_NS_4lessIS6_EENS4_IS6_EEEES9_NS4_INS_4pairIKS6_SB_EEEEE4cendB8ne180100Ev, symObjAddr: 0x15E30, symBinAddr: 0x100017320, symSize: 0x60 }
  - { offset: 0x1B59F, size: 0x8, addend: 0x0, symName: __ZNSt3__13mapINS_12basic_stringIcNS_11char_traitsIcEENS_9allocatorIcEEEENS_3setIS6_NS_4lessIS6_EENS4_IS6_EEEES9_NS4_INS_4pairIKS6_SB_EEEEE6insertB8ne180100ENS_20__map_const_iteratorINS_21__tree_const_iteratorINS_12__value_typeIS6_SB_EEPNS_11__tree_nodeISK_PvEElEEEERKSE_, symObjAddr: 0x15E90, symBinAddr: 0x100017380, symSize: 0x250 }
  - { offset: 0x1B5E6, size: 0x8, addend: 0x0, symName: __ZNSt3__120__map_const_iteratorINS_21__tree_const_iteratorINS_12__value_typeINS_12basic_stringIcNS_11char_traitsIcEENS_9allocatorIcEEEENS_3setIS8_NS_4lessIS8_EENS6_IS8_EEEEEEPNS_11__tree_nodeISE_PvEElEEEC1B8ne180100ESJ_, symObjAddr: 0x160E0, symBinAddr: 0x1000175D0, symSize: 0x60 }
  - { offset: 0x1B61F, size: 0x8, addend: 0x0, symName: __ZNKSt3__13mapINS_12basic_stringIcNS_11char_traitsIcEENS_9allocatorIcEEEENS_3setIS6_NS_4lessIS6_EENS4_IS6_EEEES9_NS4_INS_4pairIKS6_SB_EEEEE3endB8ne180100Ev, symObjAddr: 0x16140, symBinAddr: 0x100017630, symSize: 0x1C0 }
  - { offset: 0x1B646, size: 0x8, addend: 0x0, symName: __ZNKSt3__16__treeINS_12__value_typeINS_12basic_stringIcNS_11char_traitsIcEENS_9allocatorIcEEEENS_3setIS7_NS_4lessIS7_EENS5_IS7_EEEEEENS_19__map_value_compareIS7_SD_SA_Lb1EEENS5_ISD_EEE3endB8ne180100Ev, symObjAddr: 0x16300, symBinAddr: 0x1000177F0, symSize: 0x190 }
  - { offset: 0x1B66D, size: 0x8, addend: 0x0, symName: __ZNKSt3__16__treeINS_12__value_typeINS_12basic_stringIcNS_11char_traitsIcEENS_9allocatorIcEEEENS_3setIS7_NS_4lessIS7_EENS5_IS7_EEEEEENS_19__map_value_compareIS7_SD_SA_Lb1EEENS5_ISD_EEE10__end_nodeB8ne180100Ev, symObjAddr: 0x16490, symBinAddr: 0x100017980, symSize: 0xD0 }
  - { offset: 0x1B693, size: 0x8, addend: 0x0, symName: __ZNSt3__121__tree_const_iteratorINS_12__value_typeINS_12basic_stringIcNS_11char_traitsIcEENS_9allocatorIcEEEENS_3setIS7_NS_4lessIS7_EENS5_IS7_EEEEEEPNS_11__tree_nodeISD_PvEElEC1B8ne180100EPNS_15__tree_end_nodeIPNS_16__tree_node_baseISF_EEEE, symObjAddr: 0x16560, symBinAddr: 0x100017A50, symSize: 0x60 }
  - { offset: 0x1B6CC, size: 0x8, addend: 0x0, symName: __ZNKSt3__117__compressed_pairINS_15__tree_end_nodeIPNS_16__tree_node_baseIPvEEEENS_9allocatorINS_11__tree_nodeINS_12__value_typeINS_12basic_stringIcNS_11char_traitsIcEENS7_IcEEEENS_3setISE_NS_4lessISE_EENS7_ISE_EEEEEES3_EEEEE5firstB8ne180100Ev, symObjAddr: 0x165C0, symBinAddr: 0x100017AB0, symSize: 0xE0 }
  - { offset: 0x1B6F2, size: 0x8, addend: 0x0, symName: __ZNSt3__121__tree_const_iteratorINS_12__value_typeINS_12basic_stringIcNS_11char_traitsIcEENS_9allocatorIcEEEENS_3setIS7_NS_4lessIS7_EENS5_IS7_EEEEEEPNS_11__tree_nodeISD_PvEElEC2B8ne180100EPNS_15__tree_end_nodeIPNS_16__tree_node_baseISF_EEEE, symObjAddr: 0x166A0, symBinAddr: 0x100017B90, symSize: 0x90 }
  - { offset: 0x1B72B, size: 0x8, addend: 0x0, symName: __ZNSt3__16__treeINS_12__value_typeINS_12basic_stringIcNS_11char_traitsIcEENS_9allocatorIcEEEENS_3setIS7_NS_4lessIS7_EENS5_IS7_EEEEEENS_19__map_value_compareIS7_SD_SA_Lb1EEENS5_ISD_EEE15__insert_uniqueB8ne180100ENS_21__tree_const_iteratorISD_PNS_11__tree_nodeISD_PvEElEERKNS_4pairIKS7_SC_EE, symObjAddr: 0x16730, symBinAddr: 0x100017C20, symSize: 0x140 }
  - { offset: 0x1B76F, size: 0x8, addend: 0x0, symName: __ZNSt3__114__map_iteratorINS_15__tree_iteratorINS_12__value_typeINS_12basic_stringIcNS_11char_traitsIcEENS_9allocatorIcEEEENS_3setIS8_NS_4lessIS8_EENS6_IS8_EEEEEEPNS_11__tree_nodeISE_PvEElEEEC1B8ne180100ESJ_, symObjAddr: 0x16870, symBinAddr: 0x100017D60, symSize: 0x60 }
  - { offset: 0x1B7A8, size: 0x8, addend: 0x0, symName: __ZNSt3__16__treeINS_12__value_typeINS_12basic_stringIcNS_11char_traitsIcEENS_9allocatorIcEEEENS_3setIS7_NS_4lessIS7_EENS5_IS7_EEEEEENS_19__map_value_compareIS7_SD_SA_Lb1EEENS5_ISD_EEE30__emplace_hint_unique_key_argsIS7_JRKNS_4pairIKS7_SC_EEEEENSJ_INS_15__tree_iteratorISD_PNS_11__tree_nodeISD_PvEElEEbEENS_21__tree_const_iteratorISD_SS_lEERKT_DpOT0_, symObjAddr: 0x168D0, symBinAddr: 0x100017DC0, symSize: 0x5D8 }
  - { offset: 0x1B88F, size: 0x8, addend: 0x0, symName: __ZNSt3__122__tree_key_value_typesINS_12__value_typeINS_12basic_stringIcNS_11char_traitsIcEENS_9allocatorIcEEEENS_3setIS7_NS_4lessIS7_EENS5_IS7_EEEEEEE9__get_keyB8ne180100IKNS_4pairIKS7_SC_EETnNS_9enable_ifIXsr17__is_same_uncvrefIT_SI_EE5valueEiE4typeELi0EEERSH_RSL_, symObjAddr: 0x16EA8, symBinAddr: 0x100018398, symSize: 0x58 }
  - { offset: 0x1B8C2, size: 0x8, addend: 0x0, symName: __ZNSt3__16__treeINS_12__value_typeINS_12basic_stringIcNS_11char_traitsIcEENS_9allocatorIcEEEENS_3setIS7_NS_4lessIS7_EENS5_IS7_EEEEEENS_19__map_value_compareIS7_SD_SA_Lb1EEENS5_ISD_EEE12__find_equalIS7_EERPNS_16__tree_node_baseIPvEENS_21__tree_const_iteratorISD_PNS_11__tree_nodeISD_SK_EElEERPNS_15__tree_end_nodeISM_EESN_RKT_, symObjAddr: 0x16F00, symBinAddr: 0x1000183F0, symSize: 0x1110 }
  - { offset: 0x1B978, size: 0x8, addend: 0x0, symName: __ZNSt3__16__treeINS_12__value_typeINS_12basic_stringIcNS_11char_traitsIcEENS_9allocatorIcEEEENS_3setIS7_NS_4lessIS7_EENS5_IS7_EEEEEENS_19__map_value_compareIS7_SD_SA_Lb1EEENS5_ISD_EEE16__construct_nodeIJRKNS_4pairIKS7_SC_EEEEENS_10unique_ptrINS_11__tree_nodeISD_PvEENS_22__tree_node_destructorINS5_ISR_EEEEEEDpOT_, symObjAddr: 0x18010, symBinAddr: 0x100019500, symSize: 0x5C0 }
  - { offset: 0x1B9DB, size: 0x8, addend: 0x0, symName: __ZNSt3__16__treeINS_12__value_typeINS_12basic_stringIcNS_11char_traitsIcEENS_9allocatorIcEEEENS_3setIS7_NS_4lessIS7_EENS5_IS7_EEEEEENS_19__map_value_compareIS7_SD_SA_Lb1EEENS5_ISD_EEE16__insert_node_atEPNS_15__tree_end_nodeIPNS_16__tree_node_baseIPvEEEERSM_SM_, symObjAddr: 0x185D0, symBinAddr: 0x100019AC0, symSize: 0x6C0 }
  - { offset: 0x1BA2E, size: 0x8, addend: 0x0, symName: __ZNKSt3__110unique_ptrINS_11__tree_nodeINS_12__value_typeINS_12basic_stringIcNS_11char_traitsIcEENS_9allocatorIcEEEENS_3setIS8_NS_4lessIS8_EENS6_IS8_EEEEEEPvEENS_22__tree_node_destructorINS6_ISG_EEEEE3getB8ne180100Ev, symObjAddr: 0x18C90, symBinAddr: 0x10001A180, symSize: 0xF0 }
  - { offset: 0x1BA54, size: 0x8, addend: 0x0, symName: __ZNSt3__110unique_ptrINS_11__tree_nodeINS_12__value_typeINS_12basic_stringIcNS_11char_traitsIcEENS_9allocatorIcEEEENS_3setIS8_NS_4lessIS8_EENS6_IS8_EEEEEEPvEENS_22__tree_node_destructorINS6_ISG_EEEEE7releaseB8ne180100Ev, symObjAddr: 0x18D80, symBinAddr: 0x10001A270, symSize: 0x190 }
  - { offset: 0x1BA89, size: 0x8, addend: 0x0, symName: __ZNSt3__110unique_ptrINS_11__tree_nodeINS_12__value_typeINS_12basic_stringIcNS_11char_traitsIcEENS_9allocatorIcEEEENS_3setIS8_NS_4lessIS8_EENS6_IS8_EEEEEEPvEENS_22__tree_node_destructorINS6_ISG_EEEEED1B8ne180100Ev, symObjAddr: 0x18F10, symBinAddr: 0x10001A400, symSize: 0x50 }
  - { offset: 0x1BAB3, size: 0x8, addend: 0x0, symName: __ZNSt3__115__tree_iteratorINS_12__value_typeINS_12basic_stringIcNS_11char_traitsIcEENS_9allocatorIcEEEENS_3setIS7_NS_4lessIS7_EENS5_IS7_EEEEEEPNS_11__tree_nodeISD_PvEElEC1B8ne180100ESH_, symObjAddr: 0x18F60, symBinAddr: 0x10001A450, symSize: 0x60 }
  - { offset: 0x1BAF2, size: 0x8, addend: 0x0, symName: __ZNSt3__14pairINS_15__tree_iteratorINS_12__value_typeINS_12basic_stringIcNS_11char_traitsIcEENS_9allocatorIcEEEENS_3setIS8_NS_4lessIS8_EENS6_IS8_EEEEEEPNS_11__tree_nodeISE_PvEElEEbEC1B8ne180100ISJ_RbTnNS_9enable_ifIXclsr10_CheckArgsE17__enable_implicitIT_T0_EEEiE4typeELi0EEEOSO_OSP_, symObjAddr: 0x18FC0, symBinAddr: 0x10001A4B0, symSize: 0x68 }
  - { offset: 0x1BB50, size: 0x8, addend: 0x0, symName: __ZNSt3__16__treeINS_12__value_typeINS_12basic_stringIcNS_11char_traitsIcEENS_9allocatorIcEEEENS_3setIS7_NS_4lessIS7_EENS5_IS7_EEEEEENS_19__map_value_compareIS7_SD_SA_Lb1EEENS5_ISD_EEE3endB8ne180100Ev, symObjAddr: 0x19100, symBinAddr: 0x10001A5F0, symSize: 0x190 }
  - { offset: 0x1BB77, size: 0x8, addend: 0x0, symName: __ZNSt3__121__tree_const_iteratorINS_12__value_typeINS_12basic_stringIcNS_11char_traitsIcEENS_9allocatorIcEEEENS_3setIS7_NS_4lessIS7_EENS5_IS7_EEEEEEPNS_11__tree_nodeISD_PvEElEC1B8ne180100ENS_15__tree_iteratorISD_SH_lEE, symObjAddr: 0x19290, symBinAddr: 0x10001A780, symSize: 0x60 }
  - { offset: 0x1BBB0, size: 0x8, addend: 0x0, symName: __ZNSt3__16__treeINS_12__value_typeINS_12basic_stringIcNS_11char_traitsIcEENS_9allocatorIcEEEENS_3setIS7_NS_4lessIS7_EENS5_IS7_EEEEEENS_19__map_value_compareIS7_SD_SA_Lb1EEENS5_ISD_EEE10value_compB8ne180100Ev, symObjAddr: 0x192F0, symBinAddr: 0x10001A7E0, symSize: 0xB0 }
  - { offset: 0x1BBD6, size: 0x8, addend: 0x0, symName: __ZNKSt3__119__map_value_compareINS_12basic_stringIcNS_11char_traitsIcEENS_9allocatorIcEEEENS_12__value_typeIS6_NS_3setIS6_NS_4lessIS6_EENS4_IS6_EEEEEESA_Lb1EEclB8ne180100ERKS6_RKSD_, symObjAddr: 0x193A0, symBinAddr: 0x10001A890, symSize: 0x140 }
  - { offset: 0x1BC1A, size: 0x8, addend: 0x0, symName: __ZNKSt3__121__tree_const_iteratorINS_12__value_typeINS_12basic_stringIcNS_11char_traitsIcEENS_9allocatorIcEEEENS_3setIS7_NS_4lessIS7_EENS5_IS7_EEEEEEPNS_11__tree_nodeISD_PvEElEdeB8ne180100Ev, symObjAddr: 0x194E0, symBinAddr: 0x10001A9D0, symSize: 0xC0 }
  - { offset: 0x1BC40, size: 0x8, addend: 0x0, symName: __ZNSt3__16__treeINS_12__value_typeINS_12basic_stringIcNS_11char_traitsIcEENS_9allocatorIcEEEENS_3setIS7_NS_4lessIS7_EENS5_IS7_EEEEEENS_19__map_value_compareIS7_SD_SA_Lb1EEENS5_ISD_EEE5beginB8ne180100Ev, symObjAddr: 0x195A0, symBinAddr: 0x10001AA90, symSize: 0x1F0 }
  - { offset: 0x1BC67, size: 0x8, addend: 0x0, symName: __ZNKSt3__119__map_value_compareINS_12basic_stringIcNS_11char_traitsIcEENS_9allocatorIcEEEENS_12__value_typeIS6_NS_3setIS6_NS_4lessIS6_EENS4_IS6_EEEEEESA_Lb1EEclB8ne180100ERKSD_RKS6_, symObjAddr: 0x19790, symBinAddr: 0x10001AC80, symSize: 0x140 }
  - { offset: 0x1BCAB, size: 0x8, addend: 0x0, symName: __ZNSt3__121__tree_const_iteratorINS_12__value_typeINS_12basic_stringIcNS_11char_traitsIcEENS_9allocatorIcEEEENS_3setIS7_NS_4lessIS7_EENS5_IS7_EEEEEEPNS_11__tree_nodeISD_PvEElEmmB8ne180100Ev, symObjAddr: 0x198D0, symBinAddr: 0x10001ADC0, symSize: 0x120 }
  - { offset: 0x1BCD1, size: 0x8, addend: 0x0, symName: __ZNSt3__16__treeINS_12__value_typeINS_12basic_stringIcNS_11char_traitsIcEENS_9allocatorIcEEEENS_3setIS7_NS_4lessIS7_EENS5_IS7_EEEEEENS_19__map_value_compareIS7_SD_SA_Lb1EEENS5_ISD_EEE12__find_equalIS7_EERPNS_16__tree_node_baseIPvEERPNS_15__tree_end_nodeISM_EERKT_, symObjAddr: 0x199F0, symBinAddr: 0x10001AEE0, symSize: 0xB98 }
  - { offset: 0x1BD3C, size: 0x8, addend: 0x0, symName: __ZNKSt3__121__tree_const_iteratorINS_12__value_typeINS_12basic_stringIcNS_11char_traitsIcEENS_9allocatorIcEEEENS_3setIS7_NS_4lessIS7_EENS5_IS7_EEEEEEPNS_11__tree_nodeISD_PvEElE8__get_npB8ne180100Ev, symObjAddr: 0x1A700, symBinAddr: 0x10001BBF0, symSize: 0xB0 }
  - { offset: 0x1BD62, size: 0x8, addend: 0x0, symName: __ZNSt3__115__tree_iteratorINS_12__value_typeINS_12basic_stringIcNS_11char_traitsIcEENS_9allocatorIcEEEENS_3setIS7_NS_4lessIS7_EENS5_IS7_EEEEEEPNS_11__tree_nodeISD_PvEElEC1B8ne180100EPNS_15__tree_end_nodeIPNS_16__tree_node_baseISF_EEEE, symObjAddr: 0x1A7B0, symBinAddr: 0x10001BCA0, symSize: 0x60 }
  - { offset: 0x1BD9B, size: 0x8, addend: 0x0, symName: __ZNSt3__115__tree_iteratorINS_12__value_typeINS_12basic_stringIcNS_11char_traitsIcEENS_9allocatorIcEEEENS_3setIS7_NS_4lessIS7_EENS5_IS7_EEEEEEPNS_11__tree_nodeISD_PvEElEC2B8ne180100EPNS_15__tree_end_nodeIPNS_16__tree_node_baseISF_EEEE, symObjAddr: 0x1A810, symBinAddr: 0x10001BD00, symSize: 0x90 }
  - { offset: 0x1BDD4, size: 0x8, addend: 0x0, symName: __ZNSt3__121__tree_const_iteratorINS_12__value_typeINS_12basic_stringIcNS_11char_traitsIcEENS_9allocatorIcEEEENS_3setIS7_NS_4lessIS7_EENS5_IS7_EEEEEEPNS_11__tree_nodeISD_PvEElEC2B8ne180100ENS_15__tree_iteratorISD_SH_lEE, symObjAddr: 0x1A8A0, symBinAddr: 0x10001BD90, symSize: 0x90 }
  - { offset: 0x1BE0D, size: 0x8, addend: 0x0, symName: __ZNSt3__117__compressed_pairImNS_19__map_value_compareINS_12basic_stringIcNS_11char_traitsIcEENS_9allocatorIcEEEENS_12__value_typeIS7_NS_3setIS7_NS_4lessIS7_EENS5_IS7_EEEEEESB_Lb1EEEE6secondB8ne180100Ev, symObjAddr: 0x1A930, symBinAddr: 0x10001BE20, symSize: 0xC0 }
  - { offset: 0x1BE33, size: 0x8, addend: 0x0, symName: __ZNSt3__122__compressed_pair_elemINS_19__map_value_compareINS_12basic_stringIcNS_11char_traitsIcEENS_9allocatorIcEEEENS_12__value_typeIS7_NS_3setIS7_NS_4lessIS7_EENS5_IS7_EEEEEESB_Lb1EEELi1ELb1EE5__getB8ne180100Ev, symObjAddr: 0x1A9F0, symBinAddr: 0x10001BEE0, symSize: 0x60 }
  - { offset: 0x1BE59, size: 0x8, addend: 0x0, symName: __ZNKSt3__112__value_typeINS_12basic_stringIcNS_11char_traitsIcEENS_9allocatorIcEEEENS_3setIS6_NS_4lessIS6_EENS4_IS6_EEEEE11__get_valueB8ne180100Ev, symObjAddr: 0x1AA50, symBinAddr: 0x10001BF40, symSize: 0x98 }
  - { offset: 0x1BE7F, size: 0x8, addend: 0x0, symName: __ZNKSt3__16__treeINS_12__value_typeINS_12basic_stringIcNS_11char_traitsIcEENS_9allocatorIcEEEENS_3setIS7_NS_4lessIS7_EENS5_IS7_EEEEEENS_19__map_value_compareIS7_SD_SA_Lb1EEENS5_ISD_EEE6__rootB8ne180100Ev, symObjAddr: 0x1AB30, symBinAddr: 0x10001C020, symSize: 0x120 }
  - { offset: 0x1BEA5, size: 0x8, addend: 0x0, symName: __ZNKSt3__16__treeINS_12__value_typeINS_12basic_stringIcNS_11char_traitsIcEENS_9allocatorIcEEEENS_3setIS7_NS_4lessIS7_EENS5_IS7_EEEEEENS_19__map_value_compareIS7_SD_SA_Lb1EEENS5_ISD_EEE10__root_ptrB8ne180100Ev, symObjAddr: 0x1AC50, symBinAddr: 0x10001C140, symSize: 0x98 }
  - { offset: 0x1BECB, size: 0x8, addend: 0x0, symName: __ZNSt3__121__tree_const_iteratorINS_12__value_typeINS_12basic_stringIcNS_11char_traitsIcEENS_9allocatorIcEEEENS_3setIS7_NS_4lessIS7_EENS5_IS7_EEEEEEPNS_11__tree_nodeISD_PvEElEppB8ne180100Ev, symObjAddr: 0x1AEA0, symBinAddr: 0x10001C390, symSize: 0x120 }
  - { offset: 0x1BEF1, size: 0x8, addend: 0x0, symName: __ZNSt3__16__treeINS_12__value_typeINS_12basic_stringIcNS_11char_traitsIcEENS_9allocatorIcEEEENS_3setIS7_NS_4lessIS7_EENS5_IS7_EEEEEENS_19__map_value_compareIS7_SD_SA_Lb1EEENS5_ISD_EEE12__node_allocB8ne180100Ev, symObjAddr: 0x1AFC0, symBinAddr: 0x10001C4B0, symSize: 0xB8 }
  - { offset: 0x1BF17, size: 0x8, addend: 0x0, symName: __ZNSt3__116allocator_traitsINS_9allocatorINS_11__tree_nodeINS_12__value_typeINS_12basic_stringIcNS_11char_traitsIcEENS1_IcEEEENS_3setIS8_NS_4lessIS8_EENS1_IS8_EEEEEEPvEEEEE8allocateB8ne180100ERSH_m, symObjAddr: 0x1B078, symBinAddr: 0x10001C568, symSize: 0x28 }
  - { offset: 0x1BF4A, size: 0x8, addend: 0x0, symName: __ZNSt3__122__tree_node_destructorINS_9allocatorINS_11__tree_nodeINS_12__value_typeINS_12basic_stringIcNS_11char_traitsIcEENS1_IcEEEENS_3setIS8_NS_4lessIS8_EENS1_IS8_EEEEEEPvEEEEEC1B8ne180100ERSH_b, symObjAddr: 0x1B0A0, symBinAddr: 0x10001C590, symSize: 0xA0 }
  - { offset: 0x1BF98, size: 0x8, addend: 0x0, symName: __ZNSt3__110unique_ptrINS_11__tree_nodeINS_12__value_typeINS_12basic_stringIcNS_11char_traitsIcEENS_9allocatorIcEEEENS_3setIS8_NS_4lessIS8_EENS6_IS8_EEEEEEPvEENS_22__tree_node_destructorINS6_ISG_EEEEEC1B8ne180100ILb1EvEEPSG_NS_16__dependent_typeINS_27__unique_ptr_deleter_sfinaeISJ_EEXT_EE20__good_rval_ref_typeE, symObjAddr: 0x1B140, symBinAddr: 0x10001C630, symSize: 0x68 }
  - { offset: 0x1BFE9, size: 0x8, addend: 0x0, symName: __ZNSt3__116allocator_traitsINS_9allocatorINS_11__tree_nodeINS_12__value_typeINS_12basic_stringIcNS_11char_traitsIcEENS1_IcEEEENS_3setIS8_NS_4lessIS8_EENS1_IS8_EEEEEEPvEEEEE9constructB8ne180100INS_4pairIKS8_SD_EEJRKSM_EvvEEvRSH_PT_DpOT0_, symObjAddr: 0x1B1A8, symBinAddr: 0x10001C698, symSize: 0x70 }
  - { offset: 0x1C03E, size: 0x8, addend: 0x0, symName: __ZNSt3__122__tree_key_value_typesINS_12__value_typeINS_12basic_stringIcNS_11char_traitsIcEENS_9allocatorIcEEEENS_3setIS7_NS_4lessIS7_EENS5_IS7_EEEEEEE9__get_ptrB8ne180100ERSD_, symObjAddr: 0x1B218, symBinAddr: 0x10001C708, symSize: 0x48 }
  - { offset: 0x1C062, size: 0x8, addend: 0x0, symName: __ZNKSt3__110unique_ptrINS_11__tree_nodeINS_12__value_typeINS_12basic_stringIcNS_11char_traitsIcEENS_9allocatorIcEEEENS_3setIS8_NS_4lessIS8_EENS6_IS8_EEEEEEPvEENS_22__tree_node_destructorINS6_ISG_EEEEEptB8ne180100Ev, symObjAddr: 0x1B260, symBinAddr: 0x10001C750, symSize: 0xF0 }
  - { offset: 0x1C088, size: 0x8, addend: 0x0, symName: __ZNSt3__110unique_ptrINS_11__tree_nodeINS_12__value_typeINS_12basic_stringIcNS_11char_traitsIcEENS_9allocatorIcEEEENS_3setIS8_NS_4lessIS8_EENS6_IS8_EEEEEEPvEENS_22__tree_node_destructorINS6_ISG_EEEEE11get_deleterB8ne180100Ev, symObjAddr: 0x1B350, symBinAddr: 0x10001C840, symSize: 0xC0 }
  - { offset: 0x1C0AE, size: 0x8, addend: 0x0, symName: __ZNSt3__117__compressed_pairINS_15__tree_end_nodeIPNS_16__tree_node_baseIPvEEEENS_9allocatorINS_11__tree_nodeINS_12__value_typeINS_12basic_stringIcNS_11char_traitsIcEENS7_IcEEEENS_3setISE_NS_4lessISE_EENS7_ISE_EEEEEES3_EEEEE6secondB8ne180100Ev, symObjAddr: 0x1B410, symBinAddr: 0x10001C900, symSize: 0xC0 }
  - { offset: 0x1C0D4, size: 0x8, addend: 0x0, symName: __ZNSt3__122__compressed_pair_elemINS_9allocatorINS_11__tree_nodeINS_12__value_typeINS_12basic_stringIcNS_11char_traitsIcEENS1_IcEEEENS_3setIS8_NS_4lessIS8_EENS1_IS8_EEEEEEPvEEEELi1ELb1EE5__getB8ne180100Ev, symObjAddr: 0x1B4D0, symBinAddr: 0x10001C9C0, symSize: 0x60 }
  - { offset: 0x1C0FA, size: 0x8, addend: 0x0, symName: __ZNSt3__19allocatorINS_11__tree_nodeINS_12__value_typeINS_12basic_stringIcNS_11char_traitsIcEENS0_IcEEEENS_3setIS7_NS_4lessIS7_EENS0_IS7_EEEEEEPvEEE8allocateB8ne180100Em, symObjAddr: 0x1B530, symBinAddr: 0x10001CA20, symSize: 0xB8 }
  - { offset: 0x1C139, size: 0x8, addend: 0x0, symName: __ZNSt3__116allocator_traitsINS_9allocatorINS_11__tree_nodeINS_12__value_typeINS_12basic_stringIcNS_11char_traitsIcEENS1_IcEEEENS_3setIS8_NS_4lessIS8_EENS1_IS8_EEEEEEPvEEEEE8max_sizeB8ne180100ISH_vvEEmRKSH_, symObjAddr: 0x1B5E8, symBinAddr: 0x10001CAD8, symSize: 0x48 }
  - { offset: 0x1C165, size: 0x8, addend: 0x0, symName: __ZNSt3__122__tree_node_destructorINS_9allocatorINS_11__tree_nodeINS_12__value_typeINS_12basic_stringIcNS_11char_traitsIcEENS1_IcEEEENS_3setIS8_NS_4lessIS8_EENS1_IS8_EEEEEEPvEEEEEC2B8ne180100ERSH_b, symObjAddr: 0x1B630, symBinAddr: 0x10001CB20, symSize: 0x130 }
  - { offset: 0x1C1AD, size: 0x8, addend: 0x0, symName: __ZNSt3__110unique_ptrINS_11__tree_nodeINS_12__value_typeINS_12basic_stringIcNS_11char_traitsIcEENS_9allocatorIcEEEENS_3setIS8_NS_4lessIS8_EENS6_IS8_EEEEEEPvEENS_22__tree_node_destructorINS6_ISG_EEEEEC2B8ne180100ILb1EvEEPSG_NS_16__dependent_typeINS_27__unique_ptr_deleter_sfinaeISJ_EEXT_EE20__good_rval_ref_typeE, symObjAddr: 0x1B760, symBinAddr: 0x10001CC50, symSize: 0x1E0 }
  - { offset: 0x1C204, size: 0x8, addend: 0x0, symName: __ZNSt3__117__compressed_pairIPNS_11__tree_nodeINS_12__value_typeINS_12basic_stringIcNS_11char_traitsIcEENS_9allocatorIcEEEENS_3setIS8_NS_4lessIS8_EENS6_IS8_EEEEEEPvEENS_22__tree_node_destructorINS6_ISG_EEEEEC1B8ne180100IRSH_SK_EEOT_OT0_, symObjAddr: 0x1B940, symBinAddr: 0x10001CE30, symSize: 0x60 }
  - { offset: 0x1C25C, size: 0x8, addend: 0x0, symName: __ZNSt3__117__compressed_pairIPNS_11__tree_nodeINS_12__value_typeINS_12basic_stringIcNS_11char_traitsIcEENS_9allocatorIcEEEENS_3setIS8_NS_4lessIS8_EENS6_IS8_EEEEEEPvEENS_22__tree_node_destructorINS6_ISG_EEEEEC2B8ne180100IRSH_SK_EEOT_OT0_, symObjAddr: 0x1B9A0, symBinAddr: 0x10001CE90, symSize: 0x140 }
  - { offset: 0x1C2B4, size: 0x8, addend: 0x0, symName: __ZNSt3__122__compressed_pair_elemIPNS_11__tree_nodeINS_12__value_typeINS_12basic_stringIcNS_11char_traitsIcEENS_9allocatorIcEEEENS_3setIS8_NS_4lessIS8_EENS6_IS8_EEEEEEPvEELi0ELb0EEC2B8ne180100IRSH_vEEOT_, symObjAddr: 0x1BAE0, symBinAddr: 0x10001CFD0, symSize: 0xF0 }
  - { offset: 0x1C2F6, size: 0x8, addend: 0x0, symName: __ZNSt3__122__compressed_pair_elemINS_22__tree_node_destructorINS_9allocatorINS_11__tree_nodeINS_12__value_typeINS_12basic_stringIcNS_11char_traitsIcEENS2_IcEEEENS_3setIS9_NS_4lessIS9_EENS2_IS9_EEEEEEPvEEEEEELi1ELb0EEC2B8ne180100ISJ_vEEOT_, symObjAddr: 0x1BBD0, symBinAddr: 0x10001D0C0, symSize: 0x68 }
  - { offset: 0x1C338, size: 0x8, addend: 0x0, symName: __ZNSt3__14pairIKNS_12basic_stringIcNS_11char_traitsIcEENS_9allocatorIcEEEENS_3setIS6_NS_4lessIS6_EENS4_IS6_EEEEEC1B8ne180100ERKSD_, symObjAddr: 0x1BD80, symBinAddr: 0x10001D270, symSize: 0x60 }
  - { offset: 0x1C36D, size: 0x8, addend: 0x0, symName: __ZNSt3__14pairIKNS_12basic_stringIcNS_11char_traitsIcEENS_9allocatorIcEEEENS_3setIS6_NS_4lessIS6_EENS4_IS6_EEEEEC2B8ne180100ERKSD_, symObjAddr: 0x1BDE0, symBinAddr: 0x10001D2D0, symSize: 0x100 }
  - { offset: 0x1C3A2, size: 0x8, addend: 0x0, symName: __ZNSt3__112__value_typeINS_12basic_stringIcNS_11char_traitsIcEENS_9allocatorIcEEEENS_3setIS6_NS_4lessIS6_EENS4_IS6_EEEEE11__get_valueB8ne180100Ev, symObjAddr: 0x1BEE0, symBinAddr: 0x10001D3D0, symSize: 0x98 }
  - { offset: 0x1C3C8, size: 0x8, addend: 0x0, symName: __ZNKSt3__117__compressed_pairIPNS_11__tree_nodeINS_12__value_typeINS_12basic_stringIcNS_11char_traitsIcEENS_9allocatorIcEEEENS_3setIS8_NS_4lessIS8_EENS6_IS8_EEEEEEPvEENS_22__tree_node_destructorINS6_ISG_EEEEE5firstB8ne180100Ev, symObjAddr: 0x1BFC0, symBinAddr: 0x10001D4B0, symSize: 0xE0 }
  - { offset: 0x1C3EE, size: 0x8, addend: 0x0, symName: __ZNKSt3__122__compressed_pair_elemIPNS_11__tree_nodeINS_12__value_typeINS_12basic_stringIcNS_11char_traitsIcEENS_9allocatorIcEEEENS_3setIS8_NS_4lessIS8_EENS6_IS8_EEEEEEPvEELi0ELb0EE5__getB8ne180100Ev, symObjAddr: 0x1C0A0, symBinAddr: 0x10001D590, symSize: 0x80 }
  - { offset: 0x1C414, size: 0x8, addend: 0x0, symName: __ZNSt3__117__compressed_pairIPNS_11__tree_nodeINS_12__value_typeINS_12basic_stringIcNS_11char_traitsIcEENS_9allocatorIcEEEENS_3setIS8_NS_4lessIS8_EENS6_IS8_EEEEEEPvEENS_22__tree_node_destructorINS6_ISG_EEEEE6secondB8ne180100Ev, symObjAddr: 0x1C120, symBinAddr: 0x10001D610, symSize: 0xE0 }
  - { offset: 0x1C43A, size: 0x8, addend: 0x0, symName: __ZNSt3__122__compressed_pair_elemINS_22__tree_node_destructorINS_9allocatorINS_11__tree_nodeINS_12__value_typeINS_12basic_stringIcNS_11char_traitsIcEENS2_IcEEEENS_3setIS9_NS_4lessIS9_EENS2_IS9_EEEEEEPvEEEEEELi1ELb0EE5__getB8ne180100Ev, symObjAddr: 0x1C200, symBinAddr: 0x10001D6F0, symSize: 0x80 }
  - { offset: 0x1C460, size: 0x8, addend: 0x0, symName: __ZNSt3__16__treeINS_12__value_typeINS_12basic_stringIcNS_11char_traitsIcEENS_9allocatorIcEEEENS_3setIS7_NS_4lessIS7_EENS5_IS7_EEEEEENS_19__map_value_compareIS7_SD_SA_Lb1EEENS5_ISD_EEE4sizeB8ne180100Ev, symObjAddr: 0x1C280, symBinAddr: 0x10001D770, symSize: 0xC0 }
  - { offset: 0x1C486, size: 0x8, addend: 0x0, symName: __ZNSt3__117__compressed_pairImNS_19__map_value_compareINS_12basic_stringIcNS_11char_traitsIcEENS_9allocatorIcEEEENS_12__value_typeIS7_NS_3setIS7_NS_4lessIS7_EENS5_IS7_EEEEEESB_Lb1EEEE5firstB8ne180100Ev, symObjAddr: 0x1C340, symBinAddr: 0x10001D830, symSize: 0xE0 }
  - { offset: 0x1C4AC, size: 0x8, addend: 0x0, symName: __ZNSt3__117__compressed_pairIPNS_11__tree_nodeINS_12__value_typeINS_12basic_stringIcNS_11char_traitsIcEENS_9allocatorIcEEEENS_3setIS8_NS_4lessIS8_EENS6_IS8_EEEEEEPvEENS_22__tree_node_destructorINS6_ISG_EEEEE5firstB8ne180100Ev, symObjAddr: 0x1C420, symBinAddr: 0x10001D910, symSize: 0xE0 }
  - { offset: 0x1C4D2, size: 0x8, addend: 0x0, symName: __ZNSt3__122__compressed_pair_elemIPNS_11__tree_nodeINS_12__value_typeINS_12basic_stringIcNS_11char_traitsIcEENS_9allocatorIcEEEENS_3setIS8_NS_4lessIS8_EENS6_IS8_EEEEEEPvEELi0ELb0EE5__getB8ne180100Ev, symObjAddr: 0x1C500, symBinAddr: 0x10001D9F0, symSize: 0x80 }
  - { offset: 0x1C4F8, size: 0x8, addend: 0x0, symName: __ZNSt3__110unique_ptrINS_11__tree_nodeINS_12__value_typeINS_12basic_stringIcNS_11char_traitsIcEENS_9allocatorIcEEEENS_3setIS8_NS_4lessIS8_EENS6_IS8_EEEEEEPvEENS_22__tree_node_destructorINS6_ISG_EEEEED2B8ne180100Ev, symObjAddr: 0x1C580, symBinAddr: 0x10001DA70, symSize: 0x60 }
  - { offset: 0x1C522, size: 0x8, addend: 0x0, symName: __ZNSt3__110unique_ptrINS_11__tree_nodeINS_12__value_typeINS_12basic_stringIcNS_11char_traitsIcEENS_9allocatorIcEEEENS_3setIS8_NS_4lessIS8_EENS6_IS8_EEEEEEPvEENS_22__tree_node_destructorINS6_ISG_EEEEE5resetB8ne180100EPSG_, symObjAddr: 0x1C5E0, symBinAddr: 0x10001DAD0, symSize: 0x220 }
  - { offset: 0x1C566, size: 0x8, addend: 0x0, symName: __ZNSt3__122__tree_node_destructorINS_9allocatorINS_11__tree_nodeINS_12__value_typeINS_12basic_stringIcNS_11char_traitsIcEENS1_IcEEEENS_3setIS8_NS_4lessIS8_EENS1_IS8_EEEEEEPvEEEEEclB8ne180100EPSG_, symObjAddr: 0x1C800, symBinAddr: 0x10001DCF0, symSize: 0x238 }
  - { offset: 0x1C59B, size: 0x8, addend: 0x0, symName: __ZNSt3__116allocator_traitsINS_9allocatorINS_11__tree_nodeINS_12__value_typeINS_12basic_stringIcNS_11char_traitsIcEENS1_IcEEEENS_3setIS8_NS_4lessIS8_EENS1_IS8_EEEEEEPvEEEEE7destroyB8ne180100INS_4pairIKS8_SD_EEvvEEvRSH_PT_, symObjAddr: 0x1CA38, symBinAddr: 0x10001DF28, symSize: 0x30 }
  - { offset: 0x1C5D6, size: 0x8, addend: 0x0, symName: __ZNSt3__116allocator_traitsINS_9allocatorINS_11__tree_nodeINS_12__value_typeINS_12basic_stringIcNS_11char_traitsIcEENS1_IcEEEENS_3setIS8_NS_4lessIS8_EENS1_IS8_EEEEEEPvEEEEE10deallocateB8ne180100ERSH_PSG_m, symObjAddr: 0x1CA68, symBinAddr: 0x10001DF58, symSize: 0x40 }
  - { offset: 0x1C618, size: 0x8, addend: 0x0, symName: __ZNSt3__19allocatorINS_11__tree_nodeINS_12__value_typeINS_12basic_stringIcNS_11char_traitsIcEENS0_IcEEEENS_3setIS7_NS_4lessIS7_EENS0_IS7_EEEEEEPvEEE10deallocateB8ne180100EPSF_m, symObjAddr: 0x1CB00, symBinAddr: 0x10001DFF0, symSize: 0x70 }
  - { offset: 0x1C65A, size: 0x8, addend: 0x0, symName: __ZNSt3__115__tree_iteratorINS_12__value_typeINS_12basic_stringIcNS_11char_traitsIcEENS_9allocatorIcEEEENS_3setIS7_NS_4lessIS7_EENS5_IS7_EEEEEEPNS_11__tree_nodeISD_PvEElEC2B8ne180100ESH_, symObjAddr: 0x1CB70, symBinAddr: 0x10001E060, symSize: 0xC0 }
  - { offset: 0x1C693, size: 0x8, addend: 0x0, symName: __ZNSt3__14pairINS_15__tree_iteratorINS_12__value_typeINS_12basic_stringIcNS_11char_traitsIcEENS_9allocatorIcEEEENS_3setIS8_NS_4lessIS8_EENS6_IS8_EEEEEEPNS_11__tree_nodeISE_PvEElEEbEC2B8ne180100ISJ_RbTnNS_9enable_ifIXclsr10_CheckArgsE17__enable_implicitIT_T0_EEEiE4typeELi0EEEOSO_OSP_, symObjAddr: 0x1CC30, symBinAddr: 0x10001E120, symSize: 0x150 }
  - { offset: 0x1C6F1, size: 0x8, addend: 0x0, symName: __ZNSt3__114__map_iteratorINS_15__tree_iteratorINS_12__value_typeINS_12basic_stringIcNS_11char_traitsIcEENS_9allocatorIcEEEENS_3setIS8_NS_4lessIS8_EENS6_IS8_EEEEEEPNS_11__tree_nodeISE_PvEElEEEC2B8ne180100ESJ_, symObjAddr: 0x1CD80, symBinAddr: 0x10001E270, symSize: 0x60 }
  - { offset: 0x1C72A, size: 0x8, addend: 0x0, symName: __ZNSt3__120__map_const_iteratorINS_21__tree_const_iteratorINS_12__value_typeINS_12basic_stringIcNS_11char_traitsIcEENS_9allocatorIcEEEENS_3setIS8_NS_4lessIS8_EENS6_IS8_EEEEEEPNS_11__tree_nodeISE_PvEElEEEC2B8ne180100ESJ_, symObjAddr: 0x1CDE0, symBinAddr: 0x10001E2D0, symSize: 0x60 }
  - { offset: 0x1C763, size: 0x8, addend: 0x0, symName: __ZNSt3__16__treeINS_12__value_typeINS_12basic_stringIcNS_11char_traitsIcEENS_9allocatorIcEEEENS_3setIS7_NS_4lessIS7_EENS5_IS7_EEEEEENS_19__map_value_compareIS7_SD_SA_Lb1EEENS5_ISD_EEED2Ev, symObjAddr: 0x1CE40, symBinAddr: 0x10001E330, symSize: 0x60 }
  - { offset: 0x1C78D, size: 0x8, addend: 0x0, symName: __ZNSt3__16__treeINS_12__value_typeINS_12basic_stringIcNS_11char_traitsIcEENS_9allocatorIcEEEENS_3setIS7_NS_4lessIS7_EENS5_IS7_EEEEEENS_19__map_value_compareIS7_SD_SA_Lb1EEENS5_ISD_EEE7destroyEPNS_11__tree_nodeISD_PvEE, symObjAddr: 0x1CEA0, symBinAddr: 0x10001E390, symSize: 0x380 }
  - { offset: 0x1C7D8, size: 0x8, addend: 0x0, symName: __ZNSt3__14pairIKNS_12basic_stringIcNS_11char_traitsIcEENS_9allocatorIcEEEENS_3setIS6_NS_4lessIS6_EENS4_IS6_EEEEED2Ev, symObjAddr: 0x1D220, symBinAddr: 0x10001E710, symSize: 0x60 }
  - { offset: 0x1C804, size: 0x8, addend: 0x0, symName: __ZNSt3__13setINS_12basic_stringIcNS_11char_traitsIcEENS_9allocatorIcEEEENS_4lessIS6_EENS4_IS6_EEED2B8ne180100Ev, symObjAddr: 0x1D280, symBinAddr: 0x10001E770, symSize: 0x50 }
  - { offset: 0x1C82E, size: 0x8, addend: 0x0, symName: __ZNSt3__13mapINS_12basic_stringIcNS_11char_traitsIcEENS_9allocatorIcEEEENS_3setIS6_NS_4lessIS6_EENS4_IS6_EEEES9_NS4_INS_4pairIKS6_SB_EEEEEC2B8ne180100Ev, symObjAddr: 0x1D2D0, symBinAddr: 0x10001E7C0, symSize: 0x190 }
  - { offset: 0x1C85F, size: 0x8, addend: 0x0, symName: __ZN7testing18PolymorphicMatcherINS_8internal18ContainerEqMatcherINSt3__13mapINS3_12basic_stringIcNS3_11char_traitsIcEENS3_9allocatorIcEEEENS3_3setISA_NS3_4lessISA_EENS8_ISA_EEEESD_NS8_INS3_4pairIKSA_SF_EEEEEEEEEC1EOSM_, symObjAddr: 0x1D460, symBinAddr: 0x10001E950, symSize: 0x60 }
  - { offset: 0x1C895, size: 0x8, addend: 0x0, symName: __ZN7testing8internal29PredicateFormatterFromMatcherINS_18PolymorphicMatcherINS0_18ContainerEqMatcherINSt3__13mapINS4_12basic_stringIcNS4_11char_traitsIcEENS4_9allocatorIcEEEENS4_3setISB_NS4_4lessISB_EENS9_ISB_EEEESE_NS9_INS4_4pairIKSB_SG_EEEEEEEEEEEC1ESN_, symObjAddr: 0x1D4C0, symBinAddr: 0x10001E9B0, symSize: 0x60 }
  - { offset: 0x1C8CF, size: 0x8, addend: 0x0, symName: __ZN7testing18PolymorphicMatcherINS_8internal18ContainerEqMatcherINSt3__13mapINS3_12basic_stringIcNS3_11char_traitsIcEENS3_9allocatorIcEEEENS3_3setISA_NS3_4lessISA_EENS8_ISA_EEEESD_NS8_INS3_4pairIKSA_SF_EEEEEEEEEC2EOSM_, symObjAddr: 0x1D520, symBinAddr: 0x10001EA10, symSize: 0xC0 }
  - { offset: 0x1C90B, size: 0x8, addend: 0x0, symName: __ZN7testing8internal18ContainerEqMatcherINSt3__13mapINS2_12basic_stringIcNS2_11char_traitsIcEENS2_9allocatorIcEEEENS2_3setIS9_NS2_4lessIS9_EENS7_IS9_EEEESC_NS7_INS2_4pairIKS9_SE_EEEEEEEC1EOSK_, symObjAddr: 0x1D5E0, symBinAddr: 0x10001EAD0, symSize: 0x60 }
  - { offset: 0x1C941, size: 0x8, addend: 0x0, symName: __ZN7testing8internal18ContainerEqMatcherINSt3__13mapINS2_12basic_stringIcNS2_11char_traitsIcEENS2_9allocatorIcEEEENS2_3setIS9_NS2_4lessIS9_EENS7_IS9_EEEESC_NS7_INS2_4pairIKS9_SE_EEEEEEEC2EOSK_, symObjAddr: 0x1D640, symBinAddr: 0x10001EB30, symSize: 0xC0 }
  - { offset: 0x1C977, size: 0x8, addend: 0x0, symName: __ZNSt3__13mapINS_12basic_stringIcNS_11char_traitsIcEENS_9allocatorIcEEEENS_3setIS6_NS_4lessIS6_EENS4_IS6_EEEES9_NS4_INS_4pairIKS6_SB_EEEEEC1B8ne180100ERKSG_, symObjAddr: 0x1D700, symBinAddr: 0x10001EBF0, symSize: 0x60 }
  - { offset: 0x1C9B0, size: 0x8, addend: 0x0, symName: __ZNSt3__13mapINS_12basic_stringIcNS_11char_traitsIcEENS_9allocatorIcEEEENS_3setIS6_NS_4lessIS6_EENS4_IS6_EEEES9_NS4_INS_4pairIKS6_SB_EEEEEC2B8ne180100ERKSG_, symObjAddr: 0x1D760, symBinAddr: 0x10001EC50, symSize: 0x130 }
  - { offset: 0x1C9E9, size: 0x8, addend: 0x0, symName: __ZNSt3__16__treeINS_12__value_typeINS_12basic_stringIcNS_11char_traitsIcEENS_9allocatorIcEEEENS_3setIS7_NS_4lessIS7_EENS5_IS7_EEEEEENS_19__map_value_compareIS7_SD_SA_Lb1EEENS5_ISD_EEEC1ERKSH_, symObjAddr: 0x1D890, symBinAddr: 0x10001ED80, symSize: 0x60 }
  - { offset: 0x1CA22, size: 0x8, addend: 0x0, symName: __ZNSt3__13mapINS_12basic_stringIcNS_11char_traitsIcEENS_9allocatorIcEEEENS_3setIS6_NS_4lessIS6_EENS4_IS6_EEEES9_NS4_INS_4pairIKS6_SB_EEEEE6insertB8ne180100INS_20__map_const_iteratorINS_21__tree_const_iteratorINS_12__value_typeIS6_SB_EEPNS_11__tree_nodeISL_PvEElEEEEEEvT_SS_, symObjAddr: 0x1D8F0, symBinAddr: 0x10001EDE0, symSize: 0x290 }
  - { offset: 0x1CA96, size: 0x8, addend: 0x0, symName: __ZNKSt3__13mapINS_12basic_stringIcNS_11char_traitsIcEENS_9allocatorIcEEEENS_3setIS6_NS_4lessIS6_EENS4_IS6_EEEES9_NS4_INS_4pairIKS6_SB_EEEEE5beginB8ne180100Ev, symObjAddr: 0x1DB80, symBinAddr: 0x10001F070, symSize: 0x1C0 }
  - { offset: 0x1CABD, size: 0x8, addend: 0x0, symName: __ZNSt3__16__treeINS_12__value_typeINS_12basic_stringIcNS_11char_traitsIcEENS_9allocatorIcEEEENS_3setIS7_NS_4lessIS7_EENS5_IS7_EEEEEENS_19__map_value_compareIS7_SD_SA_Lb1EEENS5_ISD_EEEC2ERKSH_, symObjAddr: 0x1DD40, symBinAddr: 0x10001F230, symSize: 0x3A8 }
  - { offset: 0x1CAF8, size: 0x8, addend: 0x0, symName: __ZNSt3__116allocator_traitsINS_9allocatorINS_11__tree_nodeINS_12__value_typeINS_12basic_stringIcNS_11char_traitsIcEENS1_IcEEEENS_3setIS8_NS_4lessIS8_EENS1_IS8_EEEEEEPvEEEEE37select_on_container_copy_constructionB8ne180100ISH_vvEESH_RKSH_, symObjAddr: 0x1E0E8, symBinAddr: 0x10001F5D8, symSize: 0x18 }
  - { offset: 0x1CB27, size: 0x8, addend: 0x0, symName: __ZNKSt3__16__treeINS_12__value_typeINS_12basic_stringIcNS_11char_traitsIcEENS_9allocatorIcEEEENS_3setIS7_NS_4lessIS7_EENS5_IS7_EEEEEENS_19__map_value_compareIS7_SD_SA_Lb1EEENS5_ISD_EEE12__node_allocB8ne180100Ev, symObjAddr: 0x1E100, symBinAddr: 0x10001F5F0, symSize: 0xB0 }
  - { offset: 0x1CB53, size: 0x8, addend: 0x0, symName: __ZNSt3__117__compressed_pairINS_15__tree_end_nodeIPNS_16__tree_node_baseIPvEEEENS_9allocatorINS_11__tree_nodeINS_12__value_typeINS_12basic_stringIcNS_11char_traitsIcEENS7_IcEEEENS_3setISE_NS_4lessISE_EENS7_ISE_EEEEEES3_EEEEEC1B8ne180100INS_18__default_init_tagESM_EEOT_OT0_, symObjAddr: 0x1E1B0, symBinAddr: 0x10001F6A0, symSize: 0x60 }
  - { offset: 0x1CBAB, size: 0x8, addend: 0x0, symName: __ZNKSt3__16__treeINS_12__value_typeINS_12basic_stringIcNS_11char_traitsIcEENS_9allocatorIcEEEENS_3setIS7_NS_4lessIS7_EENS5_IS7_EEEEEENS_19__map_value_compareIS7_SD_SA_Lb1EEENS5_ISD_EEE10value_compB8ne180100Ev, symObjAddr: 0x1E210, symBinAddr: 0x10001F700, symSize: 0xB0 }
  - { offset: 0x1CBD1, size: 0x8, addend: 0x0, symName: __ZNKSt3__117__compressed_pairINS_15__tree_end_nodeIPNS_16__tree_node_baseIPvEEEENS_9allocatorINS_11__tree_nodeINS_12__value_typeINS_12basic_stringIcNS_11char_traitsIcEENS7_IcEEEENS_3setISE_NS_4lessISE_EENS7_ISE_EEEEEES3_EEEEE6secondB8ne180100Ev, symObjAddr: 0x1E2C0, symBinAddr: 0x10001F7B0, symSize: 0xC0 }
  - { offset: 0x1CBF7, size: 0x8, addend: 0x0, symName: __ZNKSt3__122__compressed_pair_elemINS_9allocatorINS_11__tree_nodeINS_12__value_typeINS_12basic_stringIcNS_11char_traitsIcEENS1_IcEEEENS_3setIS8_NS_4lessIS8_EENS1_IS8_EEEEEEPvEEEELi1ELb1EE5__getB8ne180100Ev, symObjAddr: 0x1E380, symBinAddr: 0x10001F870, symSize: 0x60 }
  - { offset: 0x1CC1D, size: 0x8, addend: 0x0, symName: __ZNSt3__117__compressed_pairINS_15__tree_end_nodeIPNS_16__tree_node_baseIPvEEEENS_9allocatorINS_11__tree_nodeINS_12__value_typeINS_12basic_stringIcNS_11char_traitsIcEENS7_IcEEEENS_3setISE_NS_4lessISE_EENS7_ISE_EEEEEES3_EEEEEC2B8ne180100INS_18__default_init_tagESM_EEOT_OT0_, symObjAddr: 0x1E3E0, symBinAddr: 0x10001F8D0, symSize: 0xE0 }
  - { offset: 0x1CC75, size: 0x8, addend: 0x0, symName: __ZNSt3__122__compressed_pair_elemINS_9allocatorINS_11__tree_nodeINS_12__value_typeINS_12basic_stringIcNS_11char_traitsIcEENS1_IcEEEENS_3setIS8_NS_4lessIS8_EENS1_IS8_EEEEEEPvEEEELi1ELb1EEC2B8ne180100ISH_vEEOT_, symObjAddr: 0x1E4C0, symBinAddr: 0x10001F9B0, symSize: 0x40 }
  - { offset: 0x1CCB7, size: 0x8, addend: 0x0, symName: __ZNKSt3__117__compressed_pairImNS_19__map_value_compareINS_12basic_stringIcNS_11char_traitsIcEENS_9allocatorIcEEEENS_12__value_typeIS7_NS_3setIS7_NS_4lessIS7_EENS5_IS7_EEEEEESB_Lb1EEEE6secondB8ne180100Ev, symObjAddr: 0x1E500, symBinAddr: 0x10001F9F0, symSize: 0xC0 }
  - { offset: 0x1CCDD, size: 0x8, addend: 0x0, symName: __ZNKSt3__122__compressed_pair_elemINS_19__map_value_compareINS_12basic_stringIcNS_11char_traitsIcEENS_9allocatorIcEEEENS_12__value_typeIS7_NS_3setIS7_NS_4lessIS7_EENS5_IS7_EEEEEESB_Lb1EEELi1ELb1EE5__getB8ne180100Ev, symObjAddr: 0x1E5C0, symBinAddr: 0x10001FAB0, symSize: 0x68 }
  - { offset: 0x1CD03, size: 0x8, addend: 0x0, symName: __ZNKSt3__120__map_const_iteratorINS_21__tree_const_iteratorINS_12__value_typeINS_12basic_stringIcNS_11char_traitsIcEENS_9allocatorIcEEEENS_3setIS8_NS_4lessIS8_EENS6_IS8_EEEEEEPNS_11__tree_nodeISE_PvEElEEEdeB8ne180100Ev, symObjAddr: 0x1E6C0, symBinAddr: 0x10001FBB0, symSize: 0x100 }
  - { offset: 0x1CD29, size: 0x8, addend: 0x0, symName: __ZNSt3__120__map_const_iteratorINS_21__tree_const_iteratorINS_12__value_typeINS_12basic_stringIcNS_11char_traitsIcEENS_9allocatorIcEEEENS_3setIS8_NS_4lessIS8_EENS6_IS8_EEEEEEPNS_11__tree_nodeISE_PvEElEEEppB8ne180100Ev, symObjAddr: 0x1E7C0, symBinAddr: 0x10001FCB0, symSize: 0xC8 }
  - { offset: 0x1CD4F, size: 0x8, addend: 0x0, symName: __ZNKSt3__121__tree_const_iteratorINS_12__value_typeINS_12basic_stringIcNS_11char_traitsIcEENS_9allocatorIcEEEENS_3setIS7_NS_4lessIS7_EENS5_IS7_EEEEEEPNS_11__tree_nodeISD_PvEElEptB8ne180100Ev, symObjAddr: 0x1E920, symBinAddr: 0x10001FE10, symSize: 0xD8 }
  - { offset: 0x1CD75, size: 0x8, addend: 0x0, symName: __ZNSt3__114pointer_traitsIPKNS_12__value_typeINS_12basic_stringIcNS_11char_traitsIcEENS_9allocatorIcEEEENS_3setIS7_NS_4lessIS7_EENS5_IS7_EEEEEEE10pointer_toB8ne180100ERSE_, symObjAddr: 0x1E9F8, symBinAddr: 0x10001FEE8, symSize: 0x18 }
  - { offset: 0x1CD98, size: 0x8, addend: 0x0, symName: __ZNKSt3__16__treeINS_12__value_typeINS_12basic_stringIcNS_11char_traitsIcEENS_9allocatorIcEEEENS_3setIS7_NS_4lessIS7_EENS5_IS7_EEEEEENS_19__map_value_compareIS7_SD_SA_Lb1EEENS5_ISD_EEE5beginB8ne180100Ev, symObjAddr: 0x1EA10, symBinAddr: 0x10001FF00, symSize: 0x1F0 }
  - { offset: 0x1CDBF, size: 0x8, addend: 0x0, symName: __ZNKSt3__16__treeINS_12__value_typeINS_12basic_stringIcNS_11char_traitsIcEENS_9allocatorIcEEEENS_3setIS7_NS_4lessIS7_EENS5_IS7_EEEEEENS_19__map_value_compareIS7_SD_SA_Lb1EEENS5_ISD_EEE12__begin_nodeB8ne180100Ev, symObjAddr: 0x1EC00, symBinAddr: 0x1000200F0, symSize: 0x80 }
  - { offset: 0x1CDE5, size: 0x8, addend: 0x0, symName: __ZN7testing8internal29PredicateFormatterFromMatcherINS_18PolymorphicMatcherINS0_18ContainerEqMatcherINSt3__13mapINS4_12basic_stringIcNS4_11char_traitsIcEENS4_9allocatorIcEEEENS4_3setISB_NS4_4lessISB_EENS9_ISB_EEEESE_NS9_INS4_4pairIKSB_SG_EEEEEEEEEEEC2ESN_, symObjAddr: 0x1EC80, symBinAddr: 0x100020170, symSize: 0x98 }
  - { offset: 0x1CE1F, size: 0x8, addend: 0x0, symName: __ZN7testing8internal18ContainerEqMatcherINSt3__13mapINS2_12basic_stringIcNS2_11char_traitsIcEENS2_9allocatorIcEEEENS2_3setIS9_NS2_4lessIS9_EENS7_IS9_EEEESC_NS7_INS2_4pairIKS9_SE_EEEEEEEC1ERKSJ_, symObjAddr: 0x1EDB0, symBinAddr: 0x1000202A0, symSize: 0x60 }
  - { offset: 0x1CE58, size: 0x8, addend: 0x0, symName: __ZN7testing8internal18ContainerEqMatcherINSt3__13mapINS2_12basic_stringIcNS2_11char_traitsIcEENS2_9allocatorIcEEEENS2_3setIS9_NS2_4lessIS9_EENS7_IS9_EEEESC_NS7_INS2_4pairIKS9_SE_EEEEEEED1Ev, symObjAddr: 0x1EE10, symBinAddr: 0x100020300, symSize: 0x50 }
  - { offset: 0x1CE85, size: 0x8, addend: 0x0, symName: __ZN7testing18PolymorphicMatcherINS_8internal18ContainerEqMatcherINSt3__13mapINS3_12basic_stringIcNS3_11char_traitsIcEENS3_9allocatorIcEEEENS3_3setISA_NS3_4lessISA_EENS8_ISA_EEEESD_NS8_INS3_4pairIKSA_SF_EEEEEEEEEC1ERKSL_, symObjAddr: 0x1EE60, symBinAddr: 0x100020350, symSize: 0x60 }
  - { offset: 0x1CEBE, size: 0x8, addend: 0x0, symName: __ZN7testing18PolymorphicMatcherINS_8internal18ContainerEqMatcherINSt3__13mapINS3_12basic_stringIcNS3_11char_traitsIcEENS3_9allocatorIcEEEENS3_3setISA_NS3_4lessISA_EENS8_ISA_EEEESD_NS8_INS3_4pairIKSA_SF_EEEEEEEEEC2ERKSL_, symObjAddr: 0x1EEC0, symBinAddr: 0x1000203B0, symSize: 0x90 }
  - { offset: 0x1CEF7, size: 0x8, addend: 0x0, symName: __ZN7testing8internal18ContainerEqMatcherINSt3__13mapINS2_12basic_stringIcNS2_11char_traitsIcEENS2_9allocatorIcEEEENS2_3setIS9_NS2_4lessIS9_EENS7_IS9_EEEESC_NS7_INS2_4pairIKS9_SE_EEEEEEEC1ERKSK_, symObjAddr: 0x1EF50, symBinAddr: 0x100020440, symSize: 0x60 }
  - { offset: 0x1CF2D, size: 0x8, addend: 0x0, symName: __ZN7testing8internal18ContainerEqMatcherINSt3__13mapINS2_12basic_stringIcNS2_11char_traitsIcEENS2_9allocatorIcEEEENS2_3setIS9_NS2_4lessIS9_EENS7_IS9_EEEESC_NS7_INS2_4pairIKS9_SE_EEEEEEEC2ERKSK_, symObjAddr: 0x1EFB0, symBinAddr: 0x1000204A0, symSize: 0x90 }
  - { offset: 0x1CF63, size: 0x8, addend: 0x0, symName: __ZN7testing8internal18ContainerEqMatcherINSt3__13mapINS2_12basic_stringIcNS2_11char_traitsIcEENS2_9allocatorIcEEEENS2_3setIS9_NS2_4lessIS9_EENS7_IS9_EEEESC_NS7_INS2_4pairIKS9_SE_EEEEEEEC2ERKSJ_, symObjAddr: 0x1F040, symBinAddr: 0x100020530, symSize: 0x98 }
  - { offset: 0x1CF9C, size: 0x8, addend: 0x0, symName: __ZN7testing8internal16StlContainerViewINSt3__13mapINS2_12basic_stringIcNS2_11char_traitsIcEENS2_9allocatorIcEEEENS2_3setIS9_NS2_4lessIS9_EENS7_IS9_EEEESC_NS7_INS2_4pairIKS9_SE_EEEEEEE4CopyERKSJ_, symObjAddr: 0x1F0D8, symBinAddr: 0x1000205C8, symSize: 0x98 }
  - { offset: 0x1CFC0, size: 0x8, addend: 0x0, symName: __ZN7testing8internal18ContainerEqMatcherINSt3__13mapINS2_12basic_stringIcNS2_11char_traitsIcEENS2_9allocatorIcEEEENS2_3setIS9_NS2_4lessIS9_EENS7_IS9_EEEESC_NS7_INS2_4pairIKS9_SE_EEEEEEED2Ev, symObjAddr: 0x1F170, symBinAddr: 0x100020660, symSize: 0x58 }
  - { offset: 0x1CFED, size: 0x8, addend: 0x0, symName: __ZNK7testing8internal11MatcherBaseIRKNSt3__13mapINS2_12basic_stringIcNS2_11char_traitsIcEENS2_9allocatorIcEEEENS2_3setIS9_NS2_4lessIS9_EENS7_IS9_EEEESC_NS7_INS2_4pairIKS9_SE_EEEEEEE7MatchesESL_, symObjAddr: 0x1F230, symBinAddr: 0x100020720, symSize: 0x300 }
  - { offset: 0x1D035, size: 0x8, addend: 0x0, symName: __ZNSt3__118basic_stringstreamIcNS_11char_traitsIcEENS_9allocatorIcEEEC1B8ne180100Ev, symObjAddr: 0x1F530, symBinAddr: 0x100020A20, symSize: 0x388 }
  - { offset: 0x1D05F, size: 0x8, addend: 0x0, symName: __ZNK7testing8internal11MatcherBaseIRKNSt3__13mapINS2_12basic_stringIcNS2_11char_traitsIcEENS2_9allocatorIcEEEENS2_3setIS9_NS2_4lessIS9_EENS7_IS9_EEEESC_NS7_INS2_4pairIKS9_SE_EEEEEEE10DescribeToEPNS2_13basic_ostreamIcS6_EE, symObjAddr: 0x1F960, symBinAddr: 0x100020E50, symSize: 0x580 }
  - { offset: 0x1D0B0, size: 0x8, addend: 0x0, symName: __ZN7testing25StringMatchResultListenerC1Ev, symObjAddr: 0x1FEE0, symBinAddr: 0x1000213D0, symSize: 0x58 }
  - { offset: 0x1D0DA, size: 0x8, addend: 0x0, symName: __ZNK7testing25StringMatchResultListener3strEv, symObjAddr: 0x20E60, symBinAddr: 0x100022350, symSize: 0x1D0 }
  - { offset: 0x1D100, size: 0x8, addend: 0x0, symName: __ZN7testing15AssertionResultlsINSt3__112basic_stringIcNS2_11char_traitsIcEENS2_9allocatorIcEEEEEERS0_RKT_, symObjAddr: 0x21030, symBinAddr: 0x100022520, symSize: 0x2E0 }
  - { offset: 0x1D13F, size: 0x8, addend: 0x0, symName: __ZNKRSt3__118basic_stringstreamIcNS_11char_traitsIcEENS_9allocatorIcEEE3strB8ne180100Ev, symObjAddr: 0x21310, symBinAddr: 0x100022800, symSize: 0x1D0 }
  - { offset: 0x1D165, size: 0x8, addend: 0x0, symName: __ZN7testing25StringMatchResultListenerD1Ev, symObjAddr: 0x214E0, symBinAddr: 0x1000229D0, symSize: 0x50 }
  - { offset: 0x1D197, size: 0x8, addend: 0x0, symName: __ZNSt3__118basic_stringstreamIcNS_11char_traitsIcEENS_9allocatorIcEEED1Ev, symObjAddr: 0x21530, symBinAddr: 0x100022A20, symSize: 0x70 }
  - { offset: 0x1D1C4, size: 0x8, addend: 0x0, symName: __ZN7testing7MatcherIRKNSt3__13mapINS1_12basic_stringIcNS1_11char_traitsIcEENS1_9allocatorIcEEEENS1_3setIS8_NS1_4lessIS8_EENS6_IS8_EEEESB_NS6_INS1_4pairIKS8_SD_EEEEEEED1Ev, symObjAddr: 0x215A0, symBinAddr: 0x100022A90, symSize: 0x58 }
  - { offset: 0x1D1F6, size: 0x8, addend: 0x0, symName: __ZN7testing8internal15MatcherCastImplIRKNSt3__13mapINS2_12basic_stringIcNS2_11char_traitsIcEENS2_9allocatorIcEEEENS2_3setIS9_NS2_4lessIS9_EENS7_IS9_EEEESC_NS7_INS2_4pairIKS9_SE_EEEEEENS_18PolymorphicMatcherINS0_18ContainerEqMatcherISJ_EEEEE4CastERKSP_, symObjAddr: 0x21668, symBinAddr: 0x100022B58, symSize: 0x70 }
  - { offset: 0x1D21A, size: 0x8, addend: 0x0, symName: __ZN7testing8internal15MatcherCastImplIRKNSt3__13mapINS2_12basic_stringIcNS2_11char_traitsIcEENS2_9allocatorIcEEEENS2_3setIS9_NS2_4lessIS9_EENS7_IS9_EEEESC_NS7_INS2_4pairIKS9_SE_EEEEEENS_18PolymorphicMatcherINS0_18ContainerEqMatcherISJ_EEEEE8CastImplILb0EEENS_7MatcherISL_EERKSP_NS2_17integral_constantIbLb1EEENSW_IbXT_EEE, symObjAddr: 0x216D8, symBinAddr: 0x100022BC8, symSize: 0x58 }
  - { offset: 0x1D260, size: 0x8, addend: 0x0, symName: __ZNK7testing18PolymorphicMatcherINS_8internal18ContainerEqMatcherINSt3__13mapINS3_12basic_stringIcNS3_11char_traitsIcEENS3_9allocatorIcEEEENS3_3setISA_NS3_4lessISA_EENS8_ISA_EEEESD_NS8_INS3_4pairIKSA_SF_EEEEEEEEEcvNS_7MatcherIT_EEIRKSK_EEv, symObjAddr: 0x21730, symBinAddr: 0x100022C20, symSize: 0x170 }
  - { offset: 0x1D29E, size: 0x8, addend: 0x0, symName: __ZN7testing18PolymorphicMatcherINS_8internal18ContainerEqMatcherINSt3__13mapINS3_12basic_stringIcNS3_11char_traitsIcEENS3_9allocatorIcEEEENS3_3setISA_NS3_4lessISA_EENS8_ISA_EEEESD_NS8_INS3_4pairIKSA_SF_EEEEEEEEE15MonomorphicImplIRKSK_EC1ERKSL_, symObjAddr: 0x218A0, symBinAddr: 0x100022D90, symSize: 0x60 }
  - { offset: 0x1D2D7, size: 0x8, addend: 0x0, symName: __ZN7testing7MatcherIRKNSt3__13mapINS1_12basic_stringIcNS1_11char_traitsIcEENS1_9allocatorIcEEEENS1_3setIS8_NS1_4lessIS8_EENS6_IS8_EEEESB_NS6_INS1_4pairIKS8_SD_EEEEEEEC1EPKNS_16MatcherInterfaceISK_EE, symObjAddr: 0x21900, symBinAddr: 0x100022DF0, symSize: 0x60 }
  - { offset: 0x1D310, size: 0x8, addend: 0x0, symName: __ZN7testing18PolymorphicMatcherINS_8internal18ContainerEqMatcherINSt3__13mapINS3_12basic_stringIcNS3_11char_traitsIcEENS3_9allocatorIcEEEENS3_3setISA_NS3_4lessISA_EENS8_ISA_EEEESD_NS8_INS3_4pairIKSA_SF_EEEEEEEEE15MonomorphicImplIRKSK_EC2ERKSL_, symObjAddr: 0x21960, symBinAddr: 0x100022E50, symSize: 0x130 }
  - { offset: 0x1D34E, size: 0x8, addend: 0x0, symName: __ZN7testing16MatcherInterfaceIRKNSt3__13mapINS1_12basic_stringIcNS1_11char_traitsIcEENS1_9allocatorIcEEEENS1_3setIS8_NS1_4lessIS8_EENS6_IS8_EEEESB_NS6_INS1_4pairIKS8_SD_EEEEEEEC2Ev, symObjAddr: 0x21A90, symBinAddr: 0x100022F80, symSize: 0xC0 }
  - { offset: 0x1D37A, size: 0x8, addend: 0x0, symName: __ZN7testing16MatcherInterfaceIRKNSt3__13mapINS1_12basic_stringIcNS1_11char_traitsIcEENS1_9allocatorIcEEEENS1_3setIS8_NS1_4lessIS8_EENS6_IS8_EEEESB_NS6_INS1_4pairIKS8_SD_EEEEEEED2Ev, symObjAddr: 0x21B50, symBinAddr: 0x100023040, symSize: 0x50 }
  - { offset: 0x1D3A6, size: 0x8, addend: 0x0, symName: __ZN7testing18PolymorphicMatcherINS_8internal18ContainerEqMatcherINSt3__13mapINS3_12basic_stringIcNS3_11char_traitsIcEENS3_9allocatorIcEEEENS3_3setISA_NS3_4lessISA_EENS8_ISA_EEEESD_NS8_INS3_4pairIKSA_SF_EEEEEEEEE15MonomorphicImplIRKSK_ED1Ev, symObjAddr: 0x21BA0, symBinAddr: 0x100023090, symSize: 0x50 }
  - { offset: 0x1D3D3, size: 0x8, addend: 0x0, symName: __ZN7testing18PolymorphicMatcherINS_8internal18ContainerEqMatcherINSt3__13mapINS3_12basic_stringIcNS3_11char_traitsIcEENS3_9allocatorIcEEEENS3_3setISA_NS3_4lessISA_EENS8_ISA_EEEESD_NS8_INS3_4pairIKSA_SF_EEEEEEEEE15MonomorphicImplIRKSK_ED0Ev, symObjAddr: 0x21BF0, symBinAddr: 0x1000230E0, symSize: 0x60 }
  - { offset: 0x1D400, size: 0x8, addend: 0x0, symName: __ZNK7testing18PolymorphicMatcherINS_8internal18ContainerEqMatcherINSt3__13mapINS3_12basic_stringIcNS3_11char_traitsIcEENS3_9allocatorIcEEEENS3_3setISA_NS3_4lessISA_EENS8_ISA_EEEESD_NS8_INS3_4pairIKSA_SF_EEEEEEEEE15MonomorphicImplIRKSK_E10DescribeToEPNS3_13basic_ostreamIcS7_EE, symObjAddr: 0x21C50, symBinAddr: 0x100023140, symSize: 0x120 }
  - { offset: 0x1D435, size: 0x8, addend: 0x0, symName: __ZNK7testing18PolymorphicMatcherINS_8internal18ContainerEqMatcherINSt3__13mapINS3_12basic_stringIcNS3_11char_traitsIcEENS3_9allocatorIcEEEENS3_3setISA_NS3_4lessISA_EENS8_ISA_EEEESD_NS8_INS3_4pairIKSA_SF_EEEEEEEEE15MonomorphicImplIRKSK_E18DescribeNegationToEPNS3_13basic_ostreamIcS7_EE, symObjAddr: 0x21D70, symBinAddr: 0x100023260, symSize: 0x120 }
  - { offset: 0x1D46A, size: 0x8, addend: 0x0, symName: __ZNK7testing18PolymorphicMatcherINS_8internal18ContainerEqMatcherINSt3__13mapINS3_12basic_stringIcNS3_11char_traitsIcEENS3_9allocatorIcEEEENS3_3setISA_NS3_4lessISA_EENS8_ISA_EEEESD_NS8_INS3_4pairIKSA_SF_EEEEEEEEE15MonomorphicImplIRKSK_E15MatchAndExplainESP_PNS_19MatchResultListenerE, symObjAddr: 0x21E90, symBinAddr: 0x100023380, symSize: 0x160 }
  - { offset: 0x1D4AE, size: 0x8, addend: 0x0, symName: __ZN7testing25MatcherDescriberInterfaceC2Ev, symObjAddr: 0x21FF0, symBinAddr: 0x1000234E0, symSize: 0x90 }
  - { offset: 0x1D4DA, size: 0x8, addend: 0x0, symName: __ZN7testing16MatcherInterfaceIRKNSt3__13mapINS1_12basic_stringIcNS1_11char_traitsIcEENS1_9allocatorIcEEEENS1_3setIS8_NS1_4lessIS8_EENS6_IS8_EEEESB_NS6_INS1_4pairIKS8_SD_EEEEEEED1Ev, symObjAddr: 0x22080, symBinAddr: 0x100023570, symSize: 0x50 }
  - { offset: 0x1D506, size: 0x8, addend: 0x0, symName: __ZN7testing16MatcherInterfaceIRKNSt3__13mapINS1_12basic_stringIcNS1_11char_traitsIcEENS1_9allocatorIcEEEENS1_3setIS8_NS1_4lessIS8_EENS6_IS8_EEEESB_NS6_INS1_4pairIKS8_SD_EEEEEEED0Ev, symObjAddr: 0x220D0, symBinAddr: 0x1000235C0, symSize: 0x50 }
  - { offset: 0x1D532, size: 0x8, addend: 0x0, symName: __ZNK7testing25MatcherDescriberInterface18DescribeNegationToEPNSt3__113basic_ostreamIcNS1_11char_traitsIcEEEE, symObjAddr: 0x22120, symBinAddr: 0x100023610, symSize: 0x1D0 }
  - { offset: 0x1D566, size: 0x8, addend: 0x0, symName: __ZN7testing25MatcherDescriberInterfaceD1Ev, symObjAddr: 0x222F0, symBinAddr: 0x1000237E0, symSize: 0x50 }
  - { offset: 0x1D590, size: 0x8, addend: 0x0, symName: __ZN7testing25MatcherDescriberInterfaceD0Ev, symObjAddr: 0x22340, symBinAddr: 0x100023830, symSize: 0x50 }
  - { offset: 0x1D5BA, size: 0x8, addend: 0x0, symName: __ZN7testing25MatcherDescriberInterfaceD2Ev, symObjAddr: 0x22390, symBinAddr: 0x100023880, symSize: 0x50 }
  - { offset: 0x1D5E4, size: 0x8, addend: 0x0, symName: __ZN7testing18PolymorphicMatcherINS_8internal18ContainerEqMatcherINSt3__13mapINS3_12basic_stringIcNS3_11char_traitsIcEENS3_9allocatorIcEEEENS3_3setISA_NS3_4lessISA_EENS8_ISA_EEEESD_NS8_INS3_4pairIKSA_SF_EEEEEEEEE15MonomorphicImplIRKSK_ED2Ev, symObjAddr: 0x223E0, symBinAddr: 0x1000238D0, symSize: 0xA0 }
  - { offset: 0x1D611, size: 0x8, addend: 0x0, symName: __ZNK7testing8internal18ContainerEqMatcherINSt3__13mapINS2_12basic_stringIcNS2_11char_traitsIcEENS2_9allocatorIcEEEENS2_3setIS9_NS2_4lessIS9_EENS7_IS9_EEEESC_NS7_INS2_4pairIKS9_SE_EEEEEEE10DescribeToEPNS2_13basic_ostreamIcS6_EE, symObjAddr: 0x22480, symBinAddr: 0x100023970, symSize: 0xD8 }
  - { offset: 0x1D646, size: 0x8, addend: 0x0, symName: __ZN7testing8internal16UniversalPrinterINSt3__13mapINS2_12basic_stringIcNS2_11char_traitsIcEENS2_9allocatorIcEEEENS2_3setIS9_NS2_4lessIS9_EENS7_IS9_EEEESC_NS7_INS2_4pairIKS9_SE_EEEEEEE5PrintERKSJ_PNS2_13basic_ostreamIcS6_EE, symObjAddr: 0x225B8, symBinAddr: 0x100023AA8, symSize: 0x60 }
  - { offset: 0x1D679, size: 0x8, addend: 0x0, symName: __ZN7testing8internal16ContainerPrinter10PrintValueINSt3__13mapINS3_12basic_stringIcNS3_11char_traitsIcEENS3_9allocatorIcEEEENS3_3setISA_NS3_4lessISA_EENS8_ISA_EEEESD_NS8_INS3_4pairIKSA_SF_EEEEEEvEEvRKT_PNS3_13basic_ostreamIcS7_EE, symObjAddr: 0x226D8, symBinAddr: 0x100023BC8, symSize: 0x560 }
  - { offset: 0x1D750, size: 0x8, addend: 0x0, symName: __ZNKSt3__113basic_ostreamIcNS_11char_traitsIcEEE6sentrycvbB8ne180100Ev, symObjAddr: 0x23E20, symBinAddr: 0x100025310, symSize: 0xC8 }
  - { offset: 0x1D776, size: 0x8, addend: 0x0, symName: __ZNSt3__119ostreambuf_iteratorIcNS_11char_traitsIcEEEC1B8ne180100ERNS_13basic_ostreamIcS2_EE, symObjAddr: 0x248D0, symBinAddr: 0x100025DC0, symSize: 0x60 }
  - { offset: 0x1D7AE, size: 0x8, addend: 0x0, symName: __ZNKSt3__18ios_base5flagsB8ne180100Ev, symObjAddr: 0x24930, symBinAddr: 0x100025E20, symSize: 0x120 }
  - { offset: 0x1D7D6, size: 0x8, addend: 0x0, symName: __ZNKSt3__19basic_iosIcNS_11char_traitsIcEEE4fillB8ne180100Ev, symObjAddr: 0x24A50, symBinAddr: 0x100025F40, symSize: 0x3A0 }
  - { offset: 0x1D7FC, size: 0x8, addend: 0x0, symName: __ZNKSt3__119ostreambuf_iteratorIcNS_11char_traitsIcEEE6failedB8ne180100Ev, symObjAddr: 0x24DF0, symBinAddr: 0x1000262E0, symSize: 0x80 }
  - { offset: 0x1D822, size: 0x8, addend: 0x0, symName: __ZNSt3__19basic_iosIcNS_11char_traitsIcEEE8setstateB8ne180100Ej, symObjAddr: 0x24E70, symBinAddr: 0x100026360, symSize: 0x100 }
  - { offset: 0x1D857, size: 0x8, addend: 0x0, symName: __ZNKSt3__18ios_base5widthB8ne180100Ev, symObjAddr: 0x24F70, symBinAddr: 0x100026460, symSize: 0x110 }
  - { offset: 0x1D87F, size: 0x8, addend: 0x0, symName: __ZNSt3__115basic_streambufIcNS_11char_traitsIcEEE5sputnB8ne180100EPKcl, symObjAddr: 0x25080, symBinAddr: 0x100026570, symSize: 0x160 }
  - { offset: 0x1D8C1, size: 0x8, addend: 0x0, symName: __ZNSt3__112basic_stringIcNS_11char_traitsIcEENS_9allocatorIcEEEC1B8ne180100Emc, symObjAddr: 0x251E0, symBinAddr: 0x1000266D0, symSize: 0x60 }
  - { offset: 0x1D909, size: 0x8, addend: 0x0, symName: __ZNSt3__112basic_stringIcNS_11char_traitsIcEENS_9allocatorIcEEE4dataB8ne180100Ev, symObjAddr: 0x25240, symBinAddr: 0x100026730, symSize: 0x60 }
  - { offset: 0x1D92F, size: 0x8, addend: 0x0, symName: __ZNSt3__18ios_base5widthB8ne180100El, symObjAddr: 0x252A0, symBinAddr: 0x100026790, symSize: 0x1E0 }
  - { offset: 0x1D975, size: 0x8, addend: 0x0, symName: __ZNSt3__112basic_stringIcNS_11char_traitsIcEENS_9allocatorIcEEEC2B8ne180100Emc, symObjAddr: 0x25480, symBinAddr: 0x100026970, symSize: 0x1B8 }
  - { offset: 0x1D9C0, size: 0x8, addend: 0x0, symName: __ZNSt3__112basic_stringIcNS_11char_traitsIcEENS_9allocatorIcEEE13__get_pointerB8ne180100Ev, symObjAddr: 0x25650, symBinAddr: 0x100026B40, symSize: 0x80 }
  - { offset: 0x1D9E6, size: 0x8, addend: 0x0, symName: __ZNSt3__112basic_stringIcNS_11char_traitsIcEENS_9allocatorIcEEE18__get_long_pointerB8ne180100Ev, symObjAddr: 0x256D0, symBinAddr: 0x100026BC0, symSize: 0x180 }
  - { offset: 0x1DA0C, size: 0x8, addend: 0x0, symName: __ZNSt3__112basic_stringIcNS_11char_traitsIcEENS_9allocatorIcEEE19__get_short_pointerB8ne180100Ev, symObjAddr: 0x25850, symBinAddr: 0x100026D40, symSize: 0x158 }
  - { offset: 0x1DA32, size: 0x8, addend: 0x0, symName: __ZNSt3__114pointer_traitsIPcE10pointer_toB8ne180100ERc, symObjAddr: 0x259A8, symBinAddr: 0x100026E98, symSize: 0x18 }
  - { offset: 0x1DA55, size: 0x8, addend: 0x0, symName: __ZNSt3__119ostreambuf_iteratorIcNS_11char_traitsIcEEEC2B8ne180100ERNS_13basic_ostreamIcS2_EE, symObjAddr: 0x259C0, symBinAddr: 0x100026EB0, symSize: 0x290 }
  - { offset: 0x1DA8D, size: 0x8, addend: 0x0, symName: __ZNKSt3__19basic_iosIcNS_11char_traitsIcEEE5rdbufB8ne180100Ev, symObjAddr: 0x25C50, symBinAddr: 0x100027140, symSize: 0x100 }
  - { offset: 0x1DAB3, size: 0x8, addend: 0x0, symName: __ZNKSt3__18ios_base5rdbufB8ne180100Ev, symObjAddr: 0x25D50, symBinAddr: 0x100027240, symSize: 0x118 }
  - { offset: 0x1DAD9, size: 0x8, addend: 0x0, symName: __ZNSt3__111char_traitsIcE11eq_int_typeB8ne180100Eii, symObjAddr: 0x25E68, symBinAddr: 0x100027358, symSize: 0x30 }
  - { offset: 0x1DB0C, size: 0x8, addend: 0x0, symName: __ZNSt3__111char_traitsIcE3eofB8ne180100Ev, symObjAddr: 0x25E98, symBinAddr: 0x100027388, symSize: 0x18 }
  - { offset: 0x1DB20, size: 0x8, addend: 0x0, symName: __ZNKSt3__19basic_iosIcNS_11char_traitsIcEEE5widenB8ne180100Ec, symObjAddr: 0x25EB0, symBinAddr: 0x1000273A0, symSize: 0x3E8 }
  - { offset: 0x1DB99, size: 0x8, addend: 0x0, symName: __ZNKSt3__15ctypeIcE5widenB8ne180100Ec, symObjAddr: 0x263F0, symBinAddr: 0x1000278E0, symSize: 0x150 }
  - { offset: 0x1DBCE, size: 0x8, addend: 0x0, symName: __ZNSt3__18ios_base8setstateB8ne180100Ej, symObjAddr: 0x26540, symBinAddr: 0x100027A30, symSize: 0x1C8 }
  - { offset: 0x1DC05, size: 0x8, addend: 0x0, symName: __ZN7testing8internal16UniversalPrinterINSt3__14pairIKNS2_12basic_stringIcNS2_11char_traitsIcEENS2_9allocatorIcEEEENS2_3setIS9_NS2_4lessIS9_EENS7_IS9_EEEEEEE5PrintERKSG_PNS2_13basic_ostreamIcS6_EE, symObjAddr: 0x26708, symBinAddr: 0x100027BF8, symSize: 0x60 }
  - { offset: 0x1DC38, size: 0x8, addend: 0x0, symName: __ZN7testing8internal16UniversalPrinterINSt3__112basic_stringIcNS2_11char_traitsIcEENS2_9allocatorIcEEEEE5PrintERKS8_PNS2_13basic_ostreamIcS5_EE, symObjAddr: 0x268D8, symBinAddr: 0x100027DC8, symSize: 0x60 }
  - { offset: 0x1DC6B, size: 0x8, addend: 0x0, symName: __ZN7testing8internal16UniversalPrinterINSt3__13setINS2_12basic_stringIcNS2_11char_traitsIcEENS2_9allocatorIcEEEENS2_4lessIS9_EENS7_IS9_EEEEE5PrintERKSD_PNS2_13basic_ostreamIcS6_EE, symObjAddr: 0x26938, symBinAddr: 0x100027E28, symSize: 0x60 }
  - { offset: 0x1DC9E, size: 0x8, addend: 0x0, symName: __ZN7testing8internal16ContainerPrinter10PrintValueINSt3__13setINS3_12basic_stringIcNS3_11char_traitsIcEENS3_9allocatorIcEEEENS3_4lessISA_EENS8_ISA_EEEEvEEvRKT_PNS3_13basic_ostreamIcS7_EE, symObjAddr: 0x26AB8, symBinAddr: 0x100027FA8, symSize: 0x560 }
  - { offset: 0x1DD54, size: 0x8, addend: 0x0, symName: __ZNK7testing8internal18ContainerEqMatcherINSt3__13mapINS2_12basic_stringIcNS2_11char_traitsIcEENS2_9allocatorIcEEEENS2_3setIS9_NS2_4lessIS9_EENS7_IS9_EEEESC_NS7_INS2_4pairIKS9_SE_EEEEEEE18DescribeNegationToEPNS2_13basic_ostreamIcS6_EE, symObjAddr: 0x27070, symBinAddr: 0x100028560, symSize: 0xD0 }
  - { offset: 0x1DD89, size: 0x8, addend: 0x0, symName: __ZNK7testing8internal18ContainerEqMatcherINSt3__13mapINS2_12basic_stringIcNS2_11char_traitsIcEENS2_9allocatorIcEEEENS2_3setIS9_NS2_4lessIS9_EENS7_IS9_EEEESC_NS7_INS2_4pairIKS9_SE_EEEEEEE15MatchAndExplainISJ_EEbRKT_PNS_19MatchResultListenerE, symObjAddr: 0x27140, symBinAddr: 0x100028630, symSize: 0xCA8 }
  - { offset: 0x1DE6A, size: 0x8, addend: 0x0, symName: __ZN7testing8internal16StlContainerViewINSt3__13mapINS2_12basic_stringIcNS2_11char_traitsIcEENS2_9allocatorIcEEEENS2_3setIS9_NS2_4lessIS9_EENS7_IS9_EEEESC_NS7_INS2_4pairIKS9_SE_EEEEEEE14ConstReferenceERKSJ_, symObjAddr: 0x27DE8, symBinAddr: 0x1000292D8, symSize: 0x60 }
  - { offset: 0x1DE8E, size: 0x8, addend: 0x0, symName: __ZN7testing19MatchResultListener6streamEv, symObjAddr: 0x27F90, symBinAddr: 0x100029480, symSize: 0x118 }
  - { offset: 0x1DEB4, size: 0x8, addend: 0x0, symName: __ZNKSt3__13mapINS_12basic_stringIcNS_11char_traitsIcEENS_9allocatorIcEEEENS_3setIS6_NS_4lessIS6_EENS4_IS6_EEEES9_NS4_INS_4pairIKS6_SB_EEEEE4sizeB8ne180100Ev, symObjAddr: 0x283C0, symBinAddr: 0x1000298B0, symSize: 0xF8 }
  - { offset: 0x1DEDA, size: 0x8, addend: 0x0, symName: __ZNKSt3__16__treeINS_12__value_typeINS_12basic_stringIcNS_11char_traitsIcEENS_9allocatorIcEEEENS_3setIS7_NS_4lessIS7_EENS5_IS7_EEEEEENS_19__map_value_compareIS7_SD_SA_Lb1EEENS5_ISD_EEE4sizeB8ne180100Ev, symObjAddr: 0x28520, symBinAddr: 0x100029A10, symSize: 0xC0 }
  - { offset: 0x1DF00, size: 0x8, addend: 0x0, symName: __ZNKSt3__117__compressed_pairImNS_19__map_value_compareINS_12basic_stringIcNS_11char_traitsIcEENS_9allocatorIcEEEENS_12__value_typeIS7_NS_3setIS7_NS_4lessIS7_EENS5_IS7_EEEEEESB_Lb1EEEE5firstB8ne180100Ev, symObjAddr: 0x285E0, symBinAddr: 0x100029AD0, symSize: 0xE0 }
  - { offset: 0x1DF26, size: 0x8, addend: 0x0, symName: __ZNKSt3__122__compressed_pair_elemImLi0ELb0EE5__getB8ne180100Ev, symObjAddr: 0x286C0, symBinAddr: 0x100029BB0, symSize: 0x88 }
  - { offset: 0x1DF56, size: 0x8, addend: 0x0, symName: __ZNKSt3__110__equal_toclB8ne180100INS_4pairIKNS_12basic_stringIcNS_11char_traitsIcEENS_9allocatorIcEEEENS_3setIS8_NS_4lessIS8_EENS6_IS8_EEEEEESF_EEbRKT_RKT0_, symObjAddr: 0x28C60, symBinAddr: 0x10002A150, symSize: 0xC8 }
  - { offset: 0x1DFAA, size: 0x8, addend: 0x0, symName: __ZNKSt3__13setINS_12basic_stringIcNS_11char_traitsIcEENS_9allocatorIcEEEENS_4lessIS6_EENS4_IS6_EEE4sizeB8ne180100Ev, symObjAddr: 0x29320, symBinAddr: 0x10002A810, symSize: 0xF8 }
  - { offset: 0x1DFD0, size: 0x8, addend: 0x0, symName: __ZNKSt3__16__treeINS_12basic_stringIcNS_11char_traitsIcEENS_9allocatorIcEEEENS_4lessIS6_EENS4_IS6_EEE4sizeB8ne180100Ev, symObjAddr: 0x29480, symBinAddr: 0x10002A970, symSize: 0xC0 }
  - { offset: 0x1DFF6, size: 0x8, addend: 0x0, symName: __ZNKSt3__117__compressed_pairImNS_4lessINS_12basic_stringIcNS_11char_traitsIcEENS_9allocatorIcEEEEEEE5firstB8ne180100Ev, symObjAddr: 0x29540, symBinAddr: 0x10002AA30, symSize: 0xE8 }
  - { offset: 0x1E01C, size: 0x8, addend: 0x0, symName: __ZNKSt3__110__equal_toclB8ne180100INS_12basic_stringIcNS_11char_traitsIcEENS_9allocatorIcEEEES7_EEbRKT_RKT0_, symObjAddr: 0x29B40, symBinAddr: 0x10002B030, symSize: 0xC8 }
  - { offset: 0x1E070, size: 0x8, addend: 0x0, symName: __ZNSt3__118__unwrap_iter_implINS_21__tree_const_iteratorINS_12basic_stringIcNS_11char_traitsIcEENS_9allocatorIcEEEEPNS_11__tree_nodeIS7_PvEElEELb0EE8__unwrapB8ne180100ESC_, symObjAddr: 0x29C08, symBinAddr: 0x10002B0F8, symSize: 0x30 }
  - { offset: 0x1E093, size: 0x8, addend: 0x0, symName: __ZNSt3__118__unwrap_iter_implINS_20__map_const_iteratorINS_21__tree_const_iteratorINS_12__value_typeINS_12basic_stringIcNS_11char_traitsIcEENS_9allocatorIcEEEENS_3setIS9_NS_4lessIS9_EENS7_IS9_EEEEEEPNS_11__tree_nodeISF_PvEElEEEELb0EE8__unwrapB8ne180100ESL_, symObjAddr: 0x29C38, symBinAddr: 0x10002B128, symSize: 0x30 }
  - { offset: 0x1E0B6, size: 0x8, addend: 0x0, symName: __ZN7testing7MatcherIRKNSt3__13mapINS1_12basic_stringIcNS1_11char_traitsIcEENS1_9allocatorIcEEEENS1_3setIS8_NS1_4lessIS8_EENS6_IS8_EEEESB_NS6_INS1_4pairIKS8_SD_EEEEEEEC2EPKNS_16MatcherInterfaceISK_EE, symObjAddr: 0x29D00, symBinAddr: 0x10002B1F0, symSize: 0xD0 }
  - { offset: 0x1E0EF, size: 0x8, addend: 0x0, symName: __ZN7testing8internal11MatcherBaseIRKNSt3__13mapINS2_12basic_stringIcNS2_11char_traitsIcEENS2_9allocatorIcEEEENS2_3setIS9_NS2_4lessIS9_EENS7_IS9_EEEESC_NS7_INS2_4pairIKS9_SE_EEEEEEEC2ISL_EEPKNS_16MatcherInterfaceIT_EE, symObjAddr: 0x29DD0, symBinAddr: 0x10002B2C0, symSize: 0x360 }
  - { offset: 0x1E136, size: 0x8, addend: 0x0, symName: __ZN7testing7MatcherIRKNSt3__13mapINS1_12basic_stringIcNS1_11char_traitsIcEENS1_9allocatorIcEEEENS1_3setIS8_NS1_4lessIS8_EENS6_IS8_EEEESB_NS6_INS1_4pairIKS8_SD_EEEEEEED0Ev, symObjAddr: 0x2A130, symBinAddr: 0x10002B620, symSize: 0x60 }
  - { offset: 0x1E162, size: 0x8, addend: 0x0, symName: __ZNK7testing8internal11MatcherBaseIRKNSt3__13mapINS2_12basic_stringIcNS2_11char_traitsIcEENS2_9allocatorIcEEEENS2_3setIS9_NS2_4lessIS9_EENS7_IS9_EEEESC_NS7_INS2_4pairIKS9_SE_EEEEEEE18DescribeNegationToEPNS2_13basic_ostreamIcS6_EE, symObjAddr: 0x2A190, symBinAddr: 0x10002B680, symSize: 0x580 }
  - { offset: 0x1E198, size: 0x8, addend: 0x0, symName: __ZN7testing8internal11MatcherBaseIRKNSt3__13mapINS2_12basic_stringIcNS2_11char_traitsIcEENS2_9allocatorIcEEEENS2_3setIS9_NS2_4lessIS9_EENS7_IS9_EEEESC_NS7_INS2_4pairIKS9_SE_EEEEEEE4InitIRPKNS_16MatcherInterfaceISL_EEEEvOT_, symObjAddr: 0x2A710, symBinAddr: 0x10002BC00, symSize: 0x250 }
  - { offset: 0x1E1D6, size: 0x8, addend: 0x0, symName: __ZN7testing8internal11MatcherBaseIRKNSt3__13mapINS2_12basic_stringIcNS2_11char_traitsIcEENS2_9allocatorIcEEEENS2_3setIS9_NS2_4lessIS9_EENS7_IS9_EEEESC_NS7_INS2_4pairIKS9_SE_EEEEEEED1Ev, symObjAddr: 0x2A960, symBinAddr: 0x10002BE50, symSize: 0x50 }
  - { offset: 0x1E200, size: 0x8, addend: 0x0, symName: __ZN7testing8internal11MatcherBaseIRKNSt3__13mapINS2_12basic_stringIcNS2_11char_traitsIcEENS2_9allocatorIcEEEENS2_3setIS9_NS2_4lessIS9_EENS7_IS9_EEEESC_NS7_INS2_4pairIKS9_SE_EEEEEEED0Ev, symObjAddr: 0x2A9B0, symBinAddr: 0x10002BEA0, symSize: 0x60 }
  - { offset: 0x1E22A, size: 0x8, addend: 0x0, symName: __ZN7testing8internal11MatcherBaseIRKNSt3__13mapINS2_12basic_stringIcNS2_11char_traitsIcEENS2_9allocatorIcEEEENS2_3setIS9_NS2_4lessIS9_EENS7_IS9_EEEESC_NS7_INS2_4pairIKS9_SE_EEEEEEE11ValuePolicyIPKNS_16MatcherInterfaceISL_EELb1EE4InitERSM_SR_, symObjAddr: 0x2AA68, symBinAddr: 0x10002BF58, symSize: 0x330 }
  - { offset: 0x1E25F, size: 0x8, addend: 0x0, symName: __ZN7testing8internal11MatcherBaseIRKNSt3__13mapINS2_12basic_stringIcNS2_11char_traitsIcEENS2_9allocatorIcEEEENS2_3setIS9_NS2_4lessIS9_EENS7_IS9_EEEESC_NS7_INS2_4pairIKS9_SE_EEEEEEE19MatchAndExplainImplINSM_11ValuePolicyIPKNS_16MatcherInterfaceISL_EELb1EEEEEDTcldtclsrT_3Getfp_E15MatchAndExplainfp0_fp1_EERKSM_SL_PNS_19MatchResultListenerE, symObjAddr: 0x2AD98, symBinAddr: 0x10002C288, symSize: 0x1F0 }
  - { offset: 0x1E2AA, size: 0x8, addend: 0x0, symName: __ZN7testing8internal11MatcherBaseIRKNSt3__13mapINS2_12basic_stringIcNS2_11char_traitsIcEENS2_9allocatorIcEEEENS2_3setIS9_NS2_4lessIS9_EENS7_IS9_EEEESC_NS7_INS2_4pairIKS9_SE_EEEEEEE12DescribeImplINSM_11ValuePolicyIPKNS_16MatcherInterfaceISL_EELb1EEEEEvRKSM_PNS2_13basic_ostreamIcS6_EEb, symObjAddr: 0x2AF88, symBinAddr: 0x10002C478, symSize: 0x3B0 }
  - { offset: 0x1E2F5, size: 0x8, addend: 0x0, symName: __ZN7testing8internal11MatcherBaseIRKNSt3__13mapINS2_12basic_stringIcNS2_11char_traitsIcEENS2_9allocatorIcEEEENS2_3setIS9_NS2_4lessIS9_EENS7_IS9_EEEESC_NS7_INS2_4pairIKS9_SE_EEEEEEE16GetDescriberImplINSM_11ValuePolicyIPKNS_16MatcherInterfaceISL_EELb1EEEEEPKNS_25MatcherDescriberInterfaceERKSM_, symObjAddr: 0x2B338, symBinAddr: 0x10002C828, symSize: 0x2A0 }
  - { offset: 0x1E323, size: 0x8, addend: 0x0, symName: __ZN7testing8internal13SharedPayloadINSt3__110unique_ptrIKNS_16MatcherInterfaceIRKNS2_3mapINS2_12basic_stringIcNS2_11char_traitsIcEENS2_9allocatorIcEEEENS2_3setISB_NS2_4lessISB_EENS9_ISB_EEEESE_NS9_INS2_4pairIKSB_SG_EEEEEEEENS2_14default_deleteISP_EEEEE7DestroyEPNS0_17SharedPayloadBaseE, symObjAddr: 0x2B5D8, symBinAddr: 0x10002CAC8, symSize: 0xB0 }
  - { offset: 0x1E346, size: 0x8, addend: 0x0, symName: __ZN7testing8internal11MatcherBaseIRKNSt3__13mapINS2_12basic_stringIcNS2_11char_traitsIcEENS2_9allocatorIcEEEENS2_3setIS9_NS2_4lessIS9_EENS7_IS9_EEEESC_NS7_INS2_4pairIKS9_SE_EEEEEEE11ValuePolicyIPKNS_16MatcherInterfaceISL_EELb1EE3GetERKSM_, symObjAddr: 0x2B688, symBinAddr: 0x10002CB78, symSize: 0x188 }
  - { offset: 0x1E36A, size: 0x8, addend: 0x0, symName: __ZNKSt3__110unique_ptrIKN7testing16MatcherInterfaceIRKNS_3mapINS_12basic_stringIcNS_11char_traitsIcEENS_9allocatorIcEEEENS_3setIS9_NS_4lessIS9_EENS7_IS9_EEEESC_NS7_INS_4pairIKS9_SE_EEEEEEEENS_14default_deleteISN_EEEdeB8ne180100Ev, symObjAddr: 0x2B810, symBinAddr: 0x10002CD00, symSize: 0x120 }
  - { offset: 0x1E390, size: 0x8, addend: 0x0, symName: __ZNKSt3__117__compressed_pairIPKN7testing16MatcherInterfaceIRKNS_3mapINS_12basic_stringIcNS_11char_traitsIcEENS_9allocatorIcEEEENS_3setIS9_NS_4lessIS9_EENS7_IS9_EEEESC_NS7_INS_4pairIKS9_SE_EEEEEEEENS_14default_deleteISN_EEE5firstB8ne180100Ev, symObjAddr: 0x2B930, symBinAddr: 0x10002CE20, symSize: 0xE0 }
  - { offset: 0x1E3B6, size: 0x8, addend: 0x0, symName: __ZNKSt3__122__compressed_pair_elemIPKN7testing16MatcherInterfaceIRKNS_3mapINS_12basic_stringIcNS_11char_traitsIcEENS_9allocatorIcEEEENS_3setIS9_NS_4lessIS9_EENS7_IS9_EEEESC_NS7_INS_4pairIKS9_SE_EEEEEEEELi0ELb0EE5__getB8ne180100Ev, symObjAddr: 0x2BA10, symBinAddr: 0x10002CF00, symSize: 0x88 }
  - { offset: 0x1E3FD, size: 0x8, addend: 0x0, symName: __ZNSt3__112__tuple_leafILm1EPKN7testing16MatcherInterfaceIRKNS_3mapINS_12basic_stringIcNS_11char_traitsIcEENS_9allocatorIcEEEENS_3setIS9_NS_4lessIS9_EENS7_IS9_EEEESC_NS7_INS_4pairIKS9_SE_EEEEEEEELb0EE3getB8ne180100Ev, symObjAddr: 0x2BD30, symBinAddr: 0x10002D220, symSize: 0x80 }
  - { offset: 0x1E4A3, size: 0x8, addend: 0x0, symName: __ZNSt3__15tupleIJPKN7testing8internal11MatcherBaseIRKNS_3mapINS_12basic_stringIcNS_11char_traitsIcEENS_9allocatorIcEEEENS_3setISA_NS_4lessISA_EENS8_ISA_EEEESD_NS8_INS_4pairIKSA_SF_EEEEEEEEPKNS1_16MatcherInterfaceISM_EEEEC1B8ne180100IJSP_ST_ETnNS_9enable_ifIXsr4_AndINS_17integral_constantIbXeqsZT_sZT_EEENSU_17_EnableUTypesCtorIJDpT_EEEEE5valueEiE4typeELi0EEEDpOS10_, symObjAddr: 0x2BDB0, symBinAddr: 0x10002D2A0, symSize: 0x60 }
  - { offset: 0x1E501, size: 0x8, addend: 0x0, symName: __ZNSt3__15tupleIJPKN7testing8internal11MatcherBaseIRKNS_3mapINS_12basic_stringIcNS_11char_traitsIcEENS_9allocatorIcEEEENS_3setISA_NS_4lessISA_EENS8_ISA_EEEESD_NS8_INS_4pairIKSA_SF_EEEEEEEEPKNS1_16MatcherInterfaceISM_EEEEC2B8ne180100IJSP_ST_ETnNS_9enable_ifIXsr4_AndINS_17integral_constantIbXeqsZT_sZT_EEENSU_17_EnableUTypesCtorIJDpT_EEEEE5valueEiE4typeELi0EEEDpOS10_, symObjAddr: 0x2BE10, symBinAddr: 0x10002D300, symSize: 0xD0 }
  - { offset: 0x1E55F, size: 0x8, addend: 0x0, symName: __ZNSt3__112__tuple_implINS_15__tuple_indicesIJLm0ELm1EEEEJPKN7testing8internal11MatcherBaseIRKNS_3mapINS_12basic_stringIcNS_11char_traitsIcEENS_9allocatorIcEEEENS_3setISC_NS_4lessISC_EENSA_ISC_EEEESF_NSA_INS_4pairIKSC_SH_EEEEEEEEPKNS3_16MatcherInterfaceISO_EEEEC1B8ne180100IJLm0ELm1EEJSR_SV_ETpTnmJEJEJSR_SV_EEENS1_IJXspT_EEEENS_13__tuple_typesIJDpT0_EEENS1_IJXspT1_EEEENSZ_IJDpT2_EEEDpOT3_, symObjAddr: 0x2BEE0, symBinAddr: 0x10002D3D0, symSize: 0x60 }
  - { offset: 0x1E615, size: 0x8, addend: 0x0, symName: __ZNSt3__112__tuple_implINS_15__tuple_indicesIJLm0ELm1EEEEJPKN7testing8internal11MatcherBaseIRKNS_3mapINS_12basic_stringIcNS_11char_traitsIcEENS_9allocatorIcEEEENS_3setISC_NS_4lessISC_EENSA_ISC_EEEESF_NSA_INS_4pairIKSC_SH_EEEEEEEEPKNS3_16MatcherInterfaceISO_EEEEC2B8ne180100IJLm0ELm1EEJSR_SV_ETpTnmJEJEJSR_SV_EEENS1_IJXspT_EEEENS_13__tuple_typesIJDpT0_EEENS1_IJXspT1_EEEENSZ_IJDpT2_EEEDpOT3_, symObjAddr: 0x2BF40, symBinAddr: 0x10002D430, symSize: 0x140 }
  - { offset: 0x1E6CB, size: 0x8, addend: 0x0, symName: __ZNSt3__112__tuple_leafILm0EPKN7testing8internal11MatcherBaseIRKNS_3mapINS_12basic_stringIcNS_11char_traitsIcEENS_9allocatorIcEEEENS_3setISA_NS_4lessISA_EENS8_ISA_EEEESD_NS8_INS_4pairIKSA_SF_EEEEEEEELb0EEC2B8ne180100ISP_vEEOT_, symObjAddr: 0x2C080, symBinAddr: 0x10002D570, symSize: 0xF0 }
  - { offset: 0x1E70E, size: 0x8, addend: 0x0, symName: __ZNSt3__112__tuple_leafILm1EPKN7testing16MatcherInterfaceIRKNS_3mapINS_12basic_stringIcNS_11char_traitsIcEENS_9allocatorIcEEEENS_3setIS9_NS_4lessIS9_EENS7_IS9_EEEESC_NS7_INS_4pairIKS9_SE_EEEEEEEELb0EEC2B8ne180100ISO_vEEOT_, symObjAddr: 0x2C170, symBinAddr: 0x10002D660, symSize: 0xF0 }
  - { offset: 0x1E751, size: 0x8, addend: 0x0, symName: __ZN7testing8internal13SharedPayloadINSt3__110unique_ptrIKNS_16MatcherInterfaceIRKNS2_3mapINS2_12basic_stringIcNS2_11char_traitsIcEENS2_9allocatorIcEEEENS2_3setISB_NS2_4lessISB_EENS9_ISB_EEEESE_NS9_INS2_4pairIKSB_SG_EEEEEEEENS2_14default_deleteISP_EEEEED1Ev, symObjAddr: 0x2C260, symBinAddr: 0x10002D750, symSize: 0x50 }
  - { offset: 0x1E77D, size: 0x8, addend: 0x0, symName: __ZN7testing8internal13SharedPayloadINSt3__110unique_ptrIKNS_16MatcherInterfaceIRKNS2_3mapINS2_12basic_stringIcNS2_11char_traitsIcEENS2_9allocatorIcEEEENS2_3setISB_NS2_4lessISB_EENS9_ISB_EEEESE_NS9_INS2_4pairIKSB_SG_EEEEEEEENS2_14default_deleteISP_EEEEED2Ev, symObjAddr: 0x2C2B0, symBinAddr: 0x10002D7A0, symSize: 0x60 }
  - { offset: 0x1E7A9, size: 0x8, addend: 0x0, symName: __ZNSt3__110unique_ptrIKN7testing16MatcherInterfaceIRKNS_3mapINS_12basic_stringIcNS_11char_traitsIcEENS_9allocatorIcEEEENS_3setIS9_NS_4lessIS9_EENS7_IS9_EEEESC_NS7_INS_4pairIKS9_SE_EEEEEEEENS_14default_deleteISN_EEED1B8ne180100Ev, symObjAddr: 0x2C310, symBinAddr: 0x10002D800, symSize: 0x50 }
  - { offset: 0x1E7D3, size: 0x8, addend: 0x0, symName: __ZNSt3__110unique_ptrIKN7testing16MatcherInterfaceIRKNS_3mapINS_12basic_stringIcNS_11char_traitsIcEENS_9allocatorIcEEEENS_3setIS9_NS_4lessIS9_EENS7_IS9_EEEESC_NS7_INS_4pairIKS9_SE_EEEEEEEENS_14default_deleteISN_EEED2B8ne180100Ev, symObjAddr: 0x2C360, symBinAddr: 0x10002D850, symSize: 0x60 }
  - { offset: 0x1E7FD, size: 0x8, addend: 0x0, symName: __ZNSt3__110unique_ptrIKN7testing16MatcherInterfaceIRKNS_3mapINS_12basic_stringIcNS_11char_traitsIcEENS_9allocatorIcEEEENS_3setIS9_NS_4lessIS9_EENS7_IS9_EEEESC_NS7_INS_4pairIKS9_SE_EEEEEEEENS_14default_deleteISN_EEE5resetB8ne180100EPSN_, symObjAddr: 0x2C3C0, symBinAddr: 0x10002D8B0, symSize: 0x210 }
  - { offset: 0x1E841, size: 0x8, addend: 0x0, symName: __ZNSt3__117__compressed_pairIPKN7testing16MatcherInterfaceIRKNS_3mapINS_12basic_stringIcNS_11char_traitsIcEENS_9allocatorIcEEEENS_3setIS9_NS_4lessIS9_EENS7_IS9_EEEESC_NS7_INS_4pairIKS9_SE_EEEEEEEENS_14default_deleteISN_EEE5firstB8ne180100Ev, symObjAddr: 0x2C5D0, symBinAddr: 0x10002DAC0, symSize: 0xE0 }
  - { offset: 0x1E867, size: 0x8, addend: 0x0, symName: __ZNSt3__117__compressed_pairIPKN7testing16MatcherInterfaceIRKNS_3mapINS_12basic_stringIcNS_11char_traitsIcEENS_9allocatorIcEEEENS_3setIS9_NS_4lessIS9_EENS7_IS9_EEEESC_NS7_INS_4pairIKS9_SE_EEEEEEEENS_14default_deleteISN_EEE6secondB8ne180100Ev, symObjAddr: 0x2C6B0, symBinAddr: 0x10002DBA0, symSize: 0xC0 }
  - { offset: 0x1E88D, size: 0x8, addend: 0x0, symName: __ZNKSt3__114default_deleteIKN7testing16MatcherInterfaceIRKNS_3mapINS_12basic_stringIcNS_11char_traitsIcEENS_9allocatorIcEEEENS_3setIS9_NS_4lessIS9_EENS7_IS9_EEEESC_NS7_INS_4pairIKS9_SE_EEEEEEEEEclB8ne180100EPSN_, symObjAddr: 0x2C770, symBinAddr: 0x10002DC60, symSize: 0x190 }
  - { offset: 0x1E8C1, size: 0x8, addend: 0x0, symName: __ZNSt3__122__compressed_pair_elemIPKN7testing16MatcherInterfaceIRKNS_3mapINS_12basic_stringIcNS_11char_traitsIcEENS_9allocatorIcEEEENS_3setIS9_NS_4lessIS9_EENS7_IS9_EEEESC_NS7_INS_4pairIKS9_SE_EEEEEEEELi0ELb0EE5__getB8ne180100Ev, symObjAddr: 0x2C900, symBinAddr: 0x10002DDF0, symSize: 0x80 }
  - { offset: 0x1E8E7, size: 0x8, addend: 0x0, symName: __ZNSt3__122__compressed_pair_elemINS_14default_deleteIKN7testing16MatcherInterfaceIRKNS_3mapINS_12basic_stringIcNS_11char_traitsIcEENS_9allocatorIcEEEENS_3setISA_NS_4lessISA_EENS8_ISA_EEEESD_NS8_INS_4pairIKSA_SF_EEEEEEEEEELi1ELb1EE5__getB8ne180100Ev, symObjAddr: 0x2C980, symBinAddr: 0x10002DE70, symSize: 0x60 }
  - { offset: 0x1E90D, size: 0x8, addend: 0x0, symName: __ZNSt3__110unique_ptrIKN7testing16MatcherInterfaceIRKNS_3mapINS_12basic_stringIcNS_11char_traitsIcEENS_9allocatorIcEEEENS_3setIS9_NS_4lessIS9_EENS7_IS9_EEEESC_NS7_INS_4pairIKS9_SE_EEEEEEEENS_14default_deleteISN_EEEC1B8ne180100ILb1EvEEPSN_, symObjAddr: 0x2C9E0, symBinAddr: 0x10002DED0, symSize: 0x60 }
  - { offset: 0x1E950, size: 0x8, addend: 0x0, symName: __ZN7testing8internal13SharedPayloadINSt3__110unique_ptrIKNS_16MatcherInterfaceIRKNS2_3mapINS2_12basic_stringIcNS2_11char_traitsIcEENS2_9allocatorIcEEEENS2_3setISB_NS2_4lessISB_EENS9_ISB_EEEESE_NS9_INS2_4pairIKSB_SG_EEEEEEEENS2_14default_deleteISP_EEEEEC1EOSS_, symObjAddr: 0x2CA40, symBinAddr: 0x10002DF30, symSize: 0x60 }
  - { offset: 0x1E988, size: 0x8, addend: 0x0, symName: __ZNSt3__110unique_ptrIKN7testing16MatcherInterfaceIRKNS_3mapINS_12basic_stringIcNS_11char_traitsIcEENS_9allocatorIcEEEENS_3setIS9_NS_4lessIS9_EENS7_IS9_EEEESC_NS7_INS_4pairIKS9_SE_EEEEEEEENS_14default_deleteISN_EEEC2B8ne180100ILb1EvEEPSN_, symObjAddr: 0x2CAA0, symBinAddr: 0x10002DF90, symSize: 0x1D0 }
  - { offset: 0x1E9D6, size: 0x8, addend: 0x0, symName: __ZNSt3__117__compressed_pairIPKN7testing16MatcherInterfaceIRKNS_3mapINS_12basic_stringIcNS_11char_traitsIcEENS_9allocatorIcEEEENS_3setIS9_NS_4lessIS9_EENS7_IS9_EEEESC_NS7_INS_4pairIKS9_SE_EEEEEEEENS_14default_deleteISN_EEEC1B8ne180100IRSO_NS_16__value_init_tagEEEOT_OT0_, symObjAddr: 0x2CC70, symBinAddr: 0x10002E160, symSize: 0x60 }
  - { offset: 0x1EA2E, size: 0x8, addend: 0x0, symName: __ZNSt3__117__compressed_pairIPKN7testing16MatcherInterfaceIRKNS_3mapINS_12basic_stringIcNS_11char_traitsIcEENS_9allocatorIcEEEENS_3setIS9_NS_4lessIS9_EENS7_IS9_EEEESC_NS7_INS_4pairIKS9_SE_EEEEEEEENS_14default_deleteISN_EEEC2B8ne180100IRSO_NS_16__value_init_tagEEEOT_OT0_, symObjAddr: 0x2CCD0, symBinAddr: 0x10002E1C0, symSize: 0xF0 }
  - { offset: 0x1EA86, size: 0x8, addend: 0x0, symName: __ZNSt3__122__compressed_pair_elemIPKN7testing16MatcherInterfaceIRKNS_3mapINS_12basic_stringIcNS_11char_traitsIcEENS_9allocatorIcEEEENS_3setIS9_NS_4lessIS9_EENS7_IS9_EEEESC_NS7_INS_4pairIKS9_SE_EEEEEEEELi0ELb0EEC2B8ne180100IRSO_vEEOT_, symObjAddr: 0x2CDC0, symBinAddr: 0x10002E2B0, symSize: 0xF0 }
  - { offset: 0x1EAC8, size: 0x8, addend: 0x0, symName: __ZNSt3__122__compressed_pair_elemINS_14default_deleteIKN7testing16MatcherInterfaceIRKNS_3mapINS_12basic_stringIcNS_11char_traitsIcEENS_9allocatorIcEEEENS_3setISA_NS_4lessISA_EENS8_ISA_EEEESD_NS8_INS_4pairIKSA_SF_EEEEEEEEEELi1ELb1EEC2B8ne180100ENS_16__value_init_tagE, symObjAddr: 0x2CEB0, symBinAddr: 0x10002E3A0, symSize: 0x40 }
  - { offset: 0x1EAFD, size: 0x8, addend: 0x0, symName: __ZN7testing8internal13SharedPayloadINSt3__110unique_ptrIKNS_16MatcherInterfaceIRKNS2_3mapINS2_12basic_stringIcNS2_11char_traitsIcEENS2_9allocatorIcEEEENS2_3setISB_NS2_4lessISB_EENS9_ISB_EEEESE_NS9_INS2_4pairIKSB_SG_EEEEEEEENS2_14default_deleteISP_EEEEEC2EOSS_, symObjAddr: 0x2CEF0, symBinAddr: 0x10002E3E0, symSize: 0xD0 }
  - { offset: 0x1EB35, size: 0x8, addend: 0x0, symName: __ZN7testing8internal17SharedPayloadBaseC2Ev, symObjAddr: 0x2CFC0, symBinAddr: 0x10002E4B0, symSize: 0x60 }
  - { offset: 0x1EB61, size: 0x8, addend: 0x0, symName: __ZNSt3__110unique_ptrIKN7testing16MatcherInterfaceIRKNS_3mapINS_12basic_stringIcNS_11char_traitsIcEENS_9allocatorIcEEEENS_3setIS9_NS_4lessIS9_EENS7_IS9_EEEESC_NS7_INS_4pairIKS9_SE_EEEEEEEENS_14default_deleteISN_EEEC1B8ne180100EOSQ_, symObjAddr: 0x2D020, symBinAddr: 0x10002E510, symSize: 0x60 }
  - { offset: 0x1EB99, size: 0x8, addend: 0x0, symName: __ZNSt3__16atomicIiEC1B8ne180100Ei, symObjAddr: 0x2D080, symBinAddr: 0x10002E570, symSize: 0x60 }
  - { offset: 0x1EBD1, size: 0x8, addend: 0x0, symName: __ZNSt3__16atomicIiEC2B8ne180100Ei, symObjAddr: 0x2D0E0, symBinAddr: 0x10002E5D0, symSize: 0x90 }
  - { offset: 0x1EC09, size: 0x8, addend: 0x0, symName: __ZNSt3__113__atomic_baseIiLb1EEC2B8ne180100Ei, symObjAddr: 0x2D170, symBinAddr: 0x10002E660, symSize: 0x90 }
  - { offset: 0x1EC41, size: 0x8, addend: 0x0, symName: __ZNSt3__113__atomic_baseIiLb0EEC2B8ne180100Ei, symObjAddr: 0x2D200, symBinAddr: 0x10002E6F0, symSize: 0x60 }
  - { offset: 0x1EC79, size: 0x8, addend: 0x0, symName: __ZNSt3__117__cxx_atomic_implIiNS_22__cxx_atomic_base_implIiEEEC1B8ne180100Ei, symObjAddr: 0x2D260, symBinAddr: 0x10002E750, symSize: 0x60 }
  - { offset: 0x1ECB2, size: 0x8, addend: 0x0, symName: __ZNSt3__117__cxx_atomic_implIiNS_22__cxx_atomic_base_implIiEEEC2B8ne180100Ei, symObjAddr: 0x2D2C0, symBinAddr: 0x10002E7B0, symSize: 0x90 }
  - { offset: 0x1ECEB, size: 0x8, addend: 0x0, symName: __ZNSt3__122__cxx_atomic_base_implIiEC2Ei, symObjAddr: 0x2D350, symBinAddr: 0x10002E840, symSize: 0xA0 }
  - { offset: 0x1ED24, size: 0x8, addend: 0x0, symName: __ZNSt3__110unique_ptrIKN7testing16MatcherInterfaceIRKNS_3mapINS_12basic_stringIcNS_11char_traitsIcEENS_9allocatorIcEEEENS_3setIS9_NS_4lessIS9_EENS7_IS9_EEEESC_NS7_INS_4pairIKS9_SE_EEEEEEEENS_14default_deleteISN_EEEC2B8ne180100EOSQ_, symObjAddr: 0x2D3F0, symBinAddr: 0x10002E8E0, symSize: 0x230 }
  - { offset: 0x1ED5E, size: 0x8, addend: 0x0, symName: __ZNSt3__110unique_ptrIKN7testing16MatcherInterfaceIRKNS_3mapINS_12basic_stringIcNS_11char_traitsIcEENS_9allocatorIcEEEENS_3setIS9_NS_4lessIS9_EENS7_IS9_EEEESC_NS7_INS_4pairIKS9_SE_EEEEEEEENS_14default_deleteISN_EEE7releaseB8ne180100Ev, symObjAddr: 0x2D620, symBinAddr: 0x10002EB10, symSize: 0x190 }
  - { offset: 0x1ED93, size: 0x8, addend: 0x0, symName: __ZNSt3__110unique_ptrIKN7testing16MatcherInterfaceIRKNS_3mapINS_12basic_stringIcNS_11char_traitsIcEENS_9allocatorIcEEEENS_3setIS9_NS_4lessIS9_EENS7_IS9_EEEESC_NS7_INS_4pairIKS9_SE_EEEEEEEENS_14default_deleteISN_EEE11get_deleterB8ne180100Ev, symObjAddr: 0x2D7B0, symBinAddr: 0x10002ECA0, symSize: 0xB0 }
  - { offset: 0x1EDBF, size: 0x8, addend: 0x0, symName: __ZNSt3__117__compressed_pairIPKN7testing16MatcherInterfaceIRKNS_3mapINS_12basic_stringIcNS_11char_traitsIcEENS_9allocatorIcEEEENS_3setIS9_NS_4lessIS9_EENS7_IS9_EEEESC_NS7_INS_4pairIKS9_SE_EEEEEEEENS_14default_deleteISN_EEEC1B8ne180100ISO_SQ_EEOT_OT0_, symObjAddr: 0x2D860, symBinAddr: 0x10002ED50, symSize: 0x60 }
  - { offset: 0x1EE17, size: 0x8, addend: 0x0, symName: __ZNSt3__117__compressed_pairIPKN7testing16MatcherInterfaceIRKNS_3mapINS_12basic_stringIcNS_11char_traitsIcEENS_9allocatorIcEEEENS_3setIS9_NS_4lessIS9_EENS7_IS9_EEEESC_NS7_INS_4pairIKS9_SE_EEEEEEEENS_14default_deleteISN_EEEC2B8ne180100ISO_SQ_EEOT_OT0_, symObjAddr: 0x2D8C0, symBinAddr: 0x10002EDB0, symSize: 0x110 }
  - { offset: 0x1EE6F, size: 0x8, addend: 0x0, symName: __ZNSt3__122__compressed_pair_elemIPKN7testing16MatcherInterfaceIRKNS_3mapINS_12basic_stringIcNS_11char_traitsIcEENS_9allocatorIcEEEENS_3setIS9_NS_4lessIS9_EENS7_IS9_EEEESC_NS7_INS_4pairIKS9_SE_EEEEEEEELi0ELb0EEC2B8ne180100ISO_vEEOT_, symObjAddr: 0x2D9D0, symBinAddr: 0x10002EEC0, symSize: 0xF0 }
  - { offset: 0x1EEB1, size: 0x8, addend: 0x0, symName: __ZNSt3__122__compressed_pair_elemINS_14default_deleteIKN7testing16MatcherInterfaceIRKNS_3mapINS_12basic_stringIcNS_11char_traitsIcEENS_9allocatorIcEEEENS_3setISA_NS_4lessISA_EENS8_ISA_EEEESD_NS8_INS_4pairIKSA_SF_EEEEEEEEEELi1ELb1EEC2B8ne180100ISP_vEEOT_, symObjAddr: 0x2DAC0, symBinAddr: 0x10002EFB0, symSize: 0x40 }
  - { offset: 0x1EEF3, size: 0x8, addend: 0x0, symName: __ZN7testing8internal11MatcherBaseIRKNSt3__13mapINS2_12basic_stringIcNS2_11char_traitsIcEENS2_9allocatorIcEEEENS2_3setIS9_NS2_4lessIS9_EENS7_IS9_EEEESC_NS7_INS2_4pairIKS9_SE_EEEEEEED2Ev, symObjAddr: 0x2DB00, symBinAddr: 0x10002EFF0, symSize: 0x130 }
  - { offset: 0x1EF1D, size: 0x8, addend: 0x0, symName: __ZN7testing8internal11MatcherBaseIRKNSt3__13mapINS2_12basic_stringIcNS2_11char_traitsIcEENS2_9allocatorIcEEEENS2_3setIS9_NS2_4lessIS9_EENS7_IS9_EEEESC_NS7_INS2_4pairIKS9_SE_EEEEEEE7DestroyEv, symObjAddr: 0x2DC30, symBinAddr: 0x10002F120, symSize: 0x4A0 }
  - { offset: 0x1EF43, size: 0x8, addend: 0x0, symName: __ZNK7testing8internal11MatcherBaseIRKNSt3__13mapINS2_12basic_stringIcNS2_11char_traitsIcEENS2_9allocatorIcEEEENS2_3setIS9_NS2_4lessIS9_EENS7_IS9_EEEESC_NS7_INS2_4pairIKS9_SE_EEEEEEE8IsSharedEv, symObjAddr: 0x2E0D0, symBinAddr: 0x10002F5C0, symSize: 0x280 }
  - { offset: 0x1EF69, size: 0x8, addend: 0x0, symName: __ZN7testing8internal17SharedPayloadBase5UnrefEv, symObjAddr: 0x2E350, symBinAddr: 0x10002F840, symSize: 0xC0 }
  - { offset: 0x1EF8F, size: 0x8, addend: 0x0, symName: __ZNSt3__113__atomic_baseIiLb1EE9fetch_subB8ne180100EiNS_12memory_orderE, symObjAddr: 0x2E410, symBinAddr: 0x10002F900, symSize: 0xC8 }
  - { offset: 0x1EFEC, size: 0x8, addend: 0x0, symName: __ZN7testing8internal8GTestLog9GetStreamEv, symObjAddr: 0x2E750, symBinAddr: 0x10002FC40, symSize: 0x50 }
  - { offset: 0x1F028, size: 0x8, addend: 0x0, symName: __ZN7testing8internal24DummyMatchResultListenerC1Ev, symObjAddr: 0x2E7A0, symBinAddr: 0x10002FC90, symSize: 0x50 }
  - { offset: 0x1F052, size: 0x8, addend: 0x0, symName: __ZNK7testing8internal11MatcherBaseIRKNSt3__13mapINS2_12basic_stringIcNS2_11char_traitsIcEENS2_9allocatorIcEEEENS2_3setIS9_NS2_4lessIS9_EENS7_IS9_EEEESC_NS7_INS2_4pairIKS9_SE_EEEEEEE15MatchAndExplainESL_PNS_19MatchResultListenerE, symObjAddr: 0x2E7F0, symBinAddr: 0x10002FCE0, symSize: 0x5B0 }
  - { offset: 0x1F097, size: 0x8, addend: 0x0, symName: __ZN7testing8internal24DummyMatchResultListenerD1Ev, symObjAddr: 0x2EDA0, symBinAddr: 0x100030290, symSize: 0x50 }
  - { offset: 0x1F0C3, size: 0x8, addend: 0x0, symName: __ZN7testing8internal24DummyMatchResultListenerC2Ev, symObjAddr: 0x2EDF0, symBinAddr: 0x1000302E0, symSize: 0xC0 }
  - { offset: 0x1F0ED, size: 0x8, addend: 0x0, symName: __ZN7testing19MatchResultListenerC2EPNSt3__113basic_ostreamIcNS1_11char_traitsIcEEEE, symObjAddr: 0x2EEB0, symBinAddr: 0x1000303A0, symSize: 0xD0 }
  - { offset: 0x1F125, size: 0x8, addend: 0x0, symName: __ZN7testing8internal24DummyMatchResultListenerD0Ev, symObjAddr: 0x2EF80, symBinAddr: 0x100030470, symSize: 0x60 }
  - { offset: 0x1F151, size: 0x8, addend: 0x0, symName: __ZN7testing8internal24DummyMatchResultListenerD2Ev, symObjAddr: 0x2EFE0, symBinAddr: 0x1000304D0, symSize: 0x50 }
  - { offset: 0x1F17D, size: 0x8, addend: 0x0, symName: __ZN7testing19MatchResultListenerD2Ev, symObjAddr: 0x2F030, symBinAddr: 0x100030520, symSize: 0x50 }
  - { offset: 0x1F1A8, size: 0x8, addend: 0x0, symName: __ZNSt3__19basic_iosIcNS_11char_traitsIcEEEC2B8ne180100Ev, symObjAddr: 0x2F080, symBinAddr: 0x100030570, symSize: 0xC0 }
  - { offset: 0x1F1D2, size: 0x8, addend: 0x0, symName: __ZNSt3__114basic_iostreamIcNS_11char_traitsIcEEEC2B8ne180100EPNS_15basic_streambufIcS2_EE, symObjAddr: 0x2F140, symBinAddr: 0x100030630, symSize: 0x2C0 }
  - { offset: 0x1F218, size: 0x8, addend: 0x0, symName: __ZNSt3__115basic_stringbufIcNS_11char_traitsIcEENS_9allocatorIcEEEC1B8ne180100Ej, symObjAddr: 0x2F400, symBinAddr: 0x1000308F0, symSize: 0x60 }
  - { offset: 0x1F251, size: 0x8, addend: 0x0, symName: __ZNSt3__18ios_baseC2B8ne180100Ev, symObjAddr: 0x2F460, symBinAddr: 0x100030950, symSize: 0x90 }
  - { offset: 0x1F27B, size: 0x8, addend: 0x0, symName: __ZNSt3__113basic_istreamIcNS_11char_traitsIcEEEC2B8ne180100EPNS_15basic_streambufIcS2_EE, symObjAddr: 0x2F4F0, symBinAddr: 0x1000309E0, symSize: 0x360 }
  - { offset: 0x1F2C0, size: 0x8, addend: 0x0, symName: __ZNSt3__113basic_ostreamIcNS_11char_traitsIcEEEC2B8ne180100Ev, symObjAddr: 0x2F850, symBinAddr: 0x100030D40, symSize: 0x170 }
  - { offset: 0x1F2F7, size: 0x8, addend: 0x0, symName: __ZNSt3__19basic_iosIcNS_11char_traitsIcEEE4initB8ne180100EPNS_15basic_streambufIcS2_EE, symObjAddr: 0x2F9C0, symBinAddr: 0x100030EB0, symSize: 0x2B0 }
  - { offset: 0x1F32C, size: 0x8, addend: 0x0, symName: __ZNSt3__115basic_stringbufIcNS_11char_traitsIcEENS_9allocatorIcEEEC2B8ne180100Ej, symObjAddr: 0x2FC70, symBinAddr: 0x100031160, symSize: 0x160 }
  - { offset: 0x1F365, size: 0x8, addend: 0x0, symName: __ZNSt3__112basic_stringIcNS_11char_traitsIcEENS_9allocatorIcEEEC1B8ne180100Ev, symObjAddr: 0x2FDD0, symBinAddr: 0x1000312C0, symSize: 0x50 }
  - { offset: 0x1F38F, size: 0x8, addend: 0x0, symName: __ZNSt3__112basic_stringIcNS_11char_traitsIcEENS_9allocatorIcEEEC2B8ne180100Ev, symObjAddr: 0x2FE20, symBinAddr: 0x100031310, symSize: 0x1C0 }
  - { offset: 0x1F3BA, size: 0x8, addend: 0x0, symName: __ZNSt3__117__compressed_pairINS_12basic_stringIcNS_11char_traitsIcEENS_9allocatorIcEEE5__repES5_EC1B8ne180100INS_16__value_init_tagENS_18__default_init_tagEEEOT_OT0_, symObjAddr: 0x2FFE0, symBinAddr: 0x1000314D0, symSize: 0x60 }
  - { offset: 0x1F412, size: 0x8, addend: 0x0, symName: __ZNSt3__117__compressed_pairINS_12basic_stringIcNS_11char_traitsIcEENS_9allocatorIcEEE5__repES5_EC2B8ne180100INS_16__value_init_tagENS_18__default_init_tagEEEOT_OT0_, symObjAddr: 0x30040, symBinAddr: 0x100031530, symSize: 0xB0 }
  - { offset: 0x1F46A, size: 0x8, addend: 0x0, symName: __ZNSt3__122__compressed_pair_elemINS_12basic_stringIcNS_11char_traitsIcEENS_9allocatorIcEEE5__repELi0ELb0EEC2B8ne180100ENS_16__value_init_tagE, symObjAddr: 0x300F0, symBinAddr: 0x1000315E0, symSize: 0x60 }
  - { offset: 0x1F49F, size: 0x8, addend: 0x0, symName: __ZN7testing25StringMatchResultListenerC2Ev, symObjAddr: 0x30150, symBinAddr: 0x100031640, symSize: 0x200 }
  - { offset: 0x1F4C9, size: 0x8, addend: 0x0, symName: __ZN7testing25StringMatchResultListenerD0Ev, symObjAddr: 0x30350, symBinAddr: 0x100031840, symSize: 0x60 }
  - { offset: 0x1F4F6, size: 0x8, addend: 0x0, symName: __ZNK7testing19MatchResultListener12IsInterestedEv, symObjAddr: 0x303B0, symBinAddr: 0x1000318A0, symSize: 0x118 }
  - { offset: 0x1F54B, size: 0x8, addend: 0x0, symName: __ZNKSt9type_info4nameB8ne180100Ev, symObjAddr: 0x30B50, symBinAddr: 0x100032040, symSize: 0x118 }
  - { offset: 0x1F591, size: 0x8, addend: 0x0, symName: __ZNKSt3__112basic_stringIcNS_11char_traitsIcEENS_9allocatorIcEEE4findB8ne180100EPKcm, symObjAddr: 0x30EA0, symBinAddr: 0x100032390, symSize: 0xA8 }
  - { offset: 0x1F5D5, size: 0x8, addend: 0x0, symName: __ZNSt3__111char_traitsIcE4findB8ne180100EPKcmRS2_, symObjAddr: 0x315C8, symBinAddr: 0x100032AB8, symSize: 0xD0 }
  - { offset: 0x1F614, size: 0x8, addend: 0x0, symName: __ZNKSt3__112basic_stringIcNS_11char_traitsIcEENS_9allocatorIcEEE6lengthB8ne180100Ev, symObjAddr: 0x316E0, symBinAddr: 0x100032BD0, symSize: 0x50 }
  - { offset: 0x1F63A, size: 0x8, addend: 0x0, symName: __ZNKSt3__112basic_stringIcNS_11char_traitsIcEENS_9allocatorIcEEE13find_first_ofB8ne180100EPKcm, symObjAddr: 0x31730, symBinAddr: 0x100032C20, symSize: 0xA8 }
  - { offset: 0x1F67E, size: 0x8, addend: 0x0, symName: __ZNSt3__111char_traitsIcE2eqEcc, symObjAddr: 0x31CD8, symBinAddr: 0x1000331C8, symSize: 0x28 }
  - { offset: 0x1F6AF, size: 0x8, addend: 0x0, symName: __ZNKSt3__112basic_stringIcNS_11char_traitsIcEENS_9allocatorIcEEE5emptyB8ne180100Ev, symObjAddr: 0x31D00, symBinAddr: 0x1000331F0, symSize: 0x60 }
  - { offset: 0x1F6D5, size: 0x8, addend: 0x0, symName: __ZN7testing15AssertionResult13AppendMessageERKNS_7MessageE, symObjAddr: 0x31D60, symBinAddr: 0x100033250, symSize: 0x408 }
  - { offset: 0x1F70B, size: 0x8, addend: 0x0, symName: __ZNSt3__110unique_ptrINS_12basic_stringIcNS_11char_traitsIcEENS_9allocatorIcEEEENS_14default_deleteIS6_EEEaSB8ne180100EOS9_, symObjAddr: 0x32270, symBinAddr: 0x100033760, symSize: 0x130 }
  - { offset: 0x1F73F, size: 0x8, addend: 0x0, symName: __ZNSt3__110unique_ptrINS_12basic_stringIcNS_11char_traitsIcEENS_9allocatorIcEEEENS_14default_deleteIS6_EEED1B8ne180100Ev, symObjAddr: 0x323A0, symBinAddr: 0x100033890, symSize: 0x50 }
  - { offset: 0x1F769, size: 0x8, addend: 0x0, symName: __ZNKSt3__110unique_ptrINS_12basic_stringIcNS_11char_traitsIcEENS_9allocatorIcEEEENS_14default_deleteIS6_EEEptB8ne180100Ev, symObjAddr: 0x323F0, symBinAddr: 0x1000338E0, symSize: 0xF0 }
  - { offset: 0x1F78F, size: 0x8, addend: 0x0, symName: __ZNKSt3__112basic_stringIcNS_11char_traitsIcEENS_9allocatorIcEEE5c_strB8ne180100Ev, symObjAddr: 0x324E0, symBinAddr: 0x1000339D0, symSize: 0x50 }
  - { offset: 0x1F7B5, size: 0x8, addend: 0x0, symName: __ZNKSt3__110unique_ptrINS_12basic_stringIcNS_11char_traitsIcEENS_9allocatorIcEEEENS_14default_deleteIS6_EEEcvbB8ne180100Ev, symObjAddr: 0x32530, symBinAddr: 0x100033A20, symSize: 0xF0 }
  - { offset: 0x1F7DB, size: 0x8, addend: 0x0, symName: __ZNKSt3__117__compressed_pairIPNS_12basic_stringIcNS_11char_traitsIcEENS_9allocatorIcEEEENS_14default_deleteIS6_EEE5firstB8ne180100Ev, symObjAddr: 0x32620, symBinAddr: 0x100033B10, symSize: 0xE0 }
  - { offset: 0x1F801, size: 0x8, addend: 0x0, symName: __ZNKSt3__122__compressed_pair_elemIPNS_12basic_stringIcNS_11char_traitsIcEENS_9allocatorIcEEEELi0ELb0EE5__getB8ne180100Ev, symObjAddr: 0x32700, symBinAddr: 0x100033BF0, symSize: 0x80 }
  - { offset: 0x1F827, size: 0x8, addend: 0x0, symName: __ZNSt3__110unique_ptrINS_12basic_stringIcNS_11char_traitsIcEENS_9allocatorIcEEEENS_14default_deleteIS6_EEEC1B8ne180100ILb1EvEEPS6_, symObjAddr: 0x32780, symBinAddr: 0x100033C70, symSize: 0x60 }
  - { offset: 0x1F86A, size: 0x8, addend: 0x0, symName: __ZNSt3__110unique_ptrINS_12basic_stringIcNS_11char_traitsIcEENS_9allocatorIcEEEENS_14default_deleteIS6_EEEC2B8ne180100ILb1EvEEPS6_, symObjAddr: 0x327E0, symBinAddr: 0x100033CD0, symSize: 0x1D0 }
  - { offset: 0x1F8B2, size: 0x8, addend: 0x0, symName: __ZNSt3__117__compressed_pairIPNS_12basic_stringIcNS_11char_traitsIcEENS_9allocatorIcEEEENS_14default_deleteIS6_EEEC1B8ne180100IRS7_NS_16__value_init_tagEEEOT_OT0_, symObjAddr: 0x329B0, symBinAddr: 0x100033EA0, symSize: 0x60 }
  - { offset: 0x1F90A, size: 0x8, addend: 0x0, symName: __ZNSt3__117__compressed_pairIPNS_12basic_stringIcNS_11char_traitsIcEENS_9allocatorIcEEEENS_14default_deleteIS6_EEEC2B8ne180100IRS7_NS_16__value_init_tagEEEOT_OT0_, symObjAddr: 0x32A10, symBinAddr: 0x100033F00, symSize: 0xF0 }
  - { offset: 0x1F962, size: 0x8, addend: 0x0, symName: __ZNSt3__122__compressed_pair_elemIPNS_12basic_stringIcNS_11char_traitsIcEENS_9allocatorIcEEEELi0ELb0EEC2B8ne180100IRS7_vEEOT_, symObjAddr: 0x32B00, symBinAddr: 0x100033FF0, symSize: 0xF0 }
  - { offset: 0x1F9A4, size: 0x8, addend: 0x0, symName: __ZNSt3__122__compressed_pair_elemINS_14default_deleteINS_12basic_stringIcNS_11char_traitsIcEENS_9allocatorIcEEEEEELi1ELb1EEC2B8ne180100ENS_16__value_init_tagE, symObjAddr: 0x32BF0, symBinAddr: 0x1000340E0, symSize: 0x40 }
  - { offset: 0x1F9D9, size: 0x8, addend: 0x0, symName: __ZNSt3__110unique_ptrINS_12basic_stringIcNS_11char_traitsIcEENS_9allocatorIcEEEENS_14default_deleteIS6_EEE5resetB8ne180100EPS6_, symObjAddr: 0x32C30, symBinAddr: 0x100034120, symSize: 0x210 }
  - { offset: 0x1FA1D, size: 0x8, addend: 0x0, symName: __ZNSt3__110unique_ptrINS_12basic_stringIcNS_11char_traitsIcEENS_9allocatorIcEEEENS_14default_deleteIS6_EEE7releaseB8ne180100Ev, symObjAddr: 0x32E40, symBinAddr: 0x100034330, symSize: 0x190 }
  - { offset: 0x1FA52, size: 0x8, addend: 0x0, symName: __ZNSt3__110unique_ptrINS_12basic_stringIcNS_11char_traitsIcEENS_9allocatorIcEEEENS_14default_deleteIS6_EEE11get_deleterB8ne180100Ev, symObjAddr: 0x32FD0, symBinAddr: 0x1000344C0, symSize: 0xB0 }
  - { offset: 0x1FA78, size: 0x8, addend: 0x0, symName: __ZNSt3__117__compressed_pairIPNS_12basic_stringIcNS_11char_traitsIcEENS_9allocatorIcEEEENS_14default_deleteIS6_EEE6secondB8ne180100Ev, symObjAddr: 0x33080, symBinAddr: 0x100034570, symSize: 0xC0 }
  - { offset: 0x1FA9E, size: 0x8, addend: 0x0, symName: __ZNSt3__117__compressed_pairIPNS_12basic_stringIcNS_11char_traitsIcEENS_9allocatorIcEEEENS_14default_deleteIS6_EEE5firstB8ne180100Ev, symObjAddr: 0x33140, symBinAddr: 0x100034630, symSize: 0xE0 }
  - { offset: 0x1FAC4, size: 0x8, addend: 0x0, symName: __ZNKSt3__114default_deleteINS_12basic_stringIcNS_11char_traitsIcEENS_9allocatorIcEEEEEclB8ne180100EPS6_, symObjAddr: 0x33220, symBinAddr: 0x100034710, symSize: 0x90 }
  - { offset: 0x1FAF8, size: 0x8, addend: 0x0, symName: __ZNSt3__122__compressed_pair_elemIPNS_12basic_stringIcNS_11char_traitsIcEENS_9allocatorIcEEEELi0ELb0EE5__getB8ne180100Ev, symObjAddr: 0x332B0, symBinAddr: 0x1000347A0, symSize: 0x80 }
  - { offset: 0x1FB1E, size: 0x8, addend: 0x0, symName: __ZNSt3__122__compressed_pair_elemINS_14default_deleteINS_12basic_stringIcNS_11char_traitsIcEENS_9allocatorIcEEEEEELi1ELb1EE5__getB8ne180100Ev, symObjAddr: 0x33330, symBinAddr: 0x100034820, symSize: 0x60 }
  - { offset: 0x1FB44, size: 0x8, addend: 0x0, symName: __ZNSt3__110unique_ptrINS_12basic_stringIcNS_11char_traitsIcEENS_9allocatorIcEEEENS_14default_deleteIS6_EEED2B8ne180100Ev, symObjAddr: 0x33390, symBinAddr: 0x100034880, symSize: 0x60 }
  - { offset: 0x1FB6E, size: 0x8, addend: 0x0, symName: __ZNKRSt3__115basic_stringbufIcNS_11char_traitsIcEENS_9allocatorIcEEE3strB8ne180100Ev, symObjAddr: 0x333F0, symBinAddr: 0x1000348E0, symSize: 0x2F0 }
  - { offset: 0x1FB95, size: 0x8, addend: 0x0, symName: __ZNKSt3__115basic_stringbufIcNS_11char_traitsIcEENS_9allocatorIcEEE3strB8ne180100IS4_Qsr14__is_allocatorITL0__EE5valueEENS_12basic_stringIcS2_T_EERKS9_, symObjAddr: 0x336E0, symBinAddr: 0x100034BD0, symSize: 0x2A0 }
  - { offset: 0x1FBD5, size: 0x8, addend: 0x0, symName: __ZNKSt3__112basic_stringIcNS_11char_traitsIcEENS_9allocatorIcEEE13get_allocatorB8ne180100Ev, symObjAddr: 0x33980, symBinAddr: 0x100034E70, symSize: 0x50 }
  - { offset: 0x1FBFB, size: 0x8, addend: 0x0, symName: __ZNKSt3__115basic_stringbufIcNS_11char_traitsIcEENS_9allocatorIcEEE4viewB8ne180100Ev, symObjAddr: 0x339D0, symBinAddr: 0x100034EC0, symSize: 0xAC0 }
  - { offset: 0x1FC22, size: 0x8, addend: 0x0, symName: __ZNSt3__112basic_stringIcNS_11char_traitsIcEENS_9allocatorIcEEEC1INS_17basic_string_viewIcS2_EETnNS_9enable_ifIXaasr33__can_be_converted_to_string_viewIcS2_T_EE5valuentsr17__is_same_uncvrefISA_S5_EE5valueEiE4typeELi0EEERKSA_RKS4_, symObjAddr: 0x34490, symBinAddr: 0x100035980, symSize: 0x60 }
  - { offset: 0x1FC79, size: 0x8, addend: 0x0, symName: __ZNKSt3__115basic_streambufIcNS_11char_traitsIcEEE4pptrB8ne180100Ev, symObjAddr: 0x344F0, symBinAddr: 0x1000359E0, symSize: 0x110 }
  - { offset: 0x1FC9F, size: 0x8, addend: 0x0, symName: __ZNKSt3__115basic_streambufIcNS_11char_traitsIcEEE5pbaseB8ne180100Ev, symObjAddr: 0x34600, symBinAddr: 0x100035AF0, symSize: 0x110 }
  - { offset: 0x1FCCA, size: 0x8, addend: 0x0, symName: __ZNSt3__117basic_string_viewIcNS_11char_traitsIcEEEC1B8ne180100ITkNS_19contiguous_iteratorEPcTkNS_18sized_sentinel_forITL0__EES5_Qaa9is_same_vINS_11conditionalIXsr21__is_primary_templateINS_15iterator_traitsIu14__remove_cvrefIS7_EEEEE5valueENS_26indirectly_readable_traitsISA_EESB_E4type10value_typeET_Ent16is_convertible_vITL0_0_mEEESH_T0_, symObjAddr: 0x34710, symBinAddr: 0x100035C00, symSize: 0x60 }
  - { offset: 0x1FD24, size: 0x8, addend: 0x0, symName: __ZNKSt3__115basic_streambufIcNS_11char_traitsIcEEE5ebackB8ne180100Ev, symObjAddr: 0x34770, symBinAddr: 0x100035C60, symSize: 0x110 }
  - { offset: 0x1FD4A, size: 0x8, addend: 0x0, symName: __ZNKSt3__115basic_streambufIcNS_11char_traitsIcEEE5egptrB8ne180100Ev, symObjAddr: 0x34880, symBinAddr: 0x100035D70, symSize: 0x110 }
  - { offset: 0x1FD70, size: 0x8, addend: 0x0, symName: __ZNSt3__117basic_string_viewIcNS_11char_traitsIcEEEC1B8ne180100Ev, symObjAddr: 0x34990, symBinAddr: 0x100035E80, symSize: 0x50 }
  - { offset: 0x1FD9A, size: 0x8, addend: 0x0, symName: __ZNSt3__117basic_string_viewIcNS_11char_traitsIcEEEC2B8ne180100ITkNS_19contiguous_iteratorEPcTkNS_18sized_sentinel_forITL0__EES5_Qaa9is_same_vINS_11conditionalIXsr21__is_primary_templateINS_15iterator_traitsIu14__remove_cvrefIS7_EEEEE5valueENS_26indirectly_readable_traitsISA_EESB_E4type10value_typeET_Ent16is_convertible_vITL0_0_mEEESH_T0_, symObjAddr: 0x349E0, symBinAddr: 0x100035ED0, symSize: 0xE8 }
  - { offset: 0x1FDF4, size: 0x8, addend: 0x0, symName: __ZNSt3__117basic_string_viewIcNS_11char_traitsIcEEEC2B8ne180100Ev, symObjAddr: 0x34AF0, symBinAddr: 0x100035FE0, symSize: 0xC0 }
  - { offset: 0x1FE1E, size: 0x8, addend: 0x0, symName: __ZNSt3__112basic_stringIcNS_11char_traitsIcEENS_9allocatorIcEEEC2INS_17basic_string_viewIcS2_EETnNS_9enable_ifIXaasr33__can_be_converted_to_string_viewIcS2_T_EE5valuentsr17__is_same_uncvrefISA_S5_EE5valueEiE4typeELi0EEERKSA_RKS4_, symObjAddr: 0x34BB0, symBinAddr: 0x1000360A0, symSize: 0x230 }
  - { offset: 0x1FE99, size: 0x8, addend: 0x0, symName: __ZNSt3__117__compressed_pairINS_12basic_stringIcNS_11char_traitsIcEENS_9allocatorIcEEE5__repES5_EC1B8ne180100INS_18__default_init_tagERKS5_EEOT_OT0_, symObjAddr: 0x34DE0, symBinAddr: 0x1000362D0, symSize: 0x60 }
  - { offset: 0x1FEF1, size: 0x8, addend: 0x0, symName: __ZNSt3__117__compressed_pairINS_12basic_stringIcNS_11char_traitsIcEENS_9allocatorIcEEE5__repES5_EC2B8ne180100INS_18__default_init_tagERKS5_EEOT_OT0_, symObjAddr: 0x34E40, symBinAddr: 0x100036330, symSize: 0xE0 }
  - { offset: 0x1FF49, size: 0x8, addend: 0x0, symName: __ZNSt3__122__compressed_pair_elemINS_9allocatorIcEELi1ELb1EEC2B8ne180100IRKS2_vEEOT_, symObjAddr: 0x34F20, symBinAddr: 0x100036410, symSize: 0x40 }
  - { offset: 0x1FF8B, size: 0x8, addend: 0x0, symName: __ZNKSt3__112basic_stringIcNS_11char_traitsIcEENS_9allocatorIcEEE7__allocB8ne180100Ev, symObjAddr: 0x34F60, symBinAddr: 0x100036450, symSize: 0xB0 }
  - { offset: 0x1FFB1, size: 0x8, addend: 0x0, symName: __ZNKSt3__117__compressed_pairINS_12basic_stringIcNS_11char_traitsIcEENS_9allocatorIcEEE5__repES5_E6secondB8ne180100Ev, symObjAddr: 0x35010, symBinAddr: 0x100036500, symSize: 0xC0 }
  - { offset: 0x1FFD7, size: 0x8, addend: 0x0, symName: __ZNKSt3__122__compressed_pair_elemINS_9allocatorIcEELi1ELb1EE5__getB8ne180100Ev, symObjAddr: 0x350D0, symBinAddr: 0x1000365C0, symSize: 0x60 }
  - { offset: 0x1FFFD, size: 0x8, addend: 0x0, symName: __ZN7testing25StringMatchResultListenerD2Ev, symObjAddr: 0x35130, symBinAddr: 0x100036620, symSize: 0xA0 }
  - { offset: 0x2002A, size: 0x8, addend: 0x0, symName: __ZNSt3__118basic_stringstreamIcNS_11char_traitsIcEENS_9allocatorIcEEED2Ev, symObjAddr: 0x351D0, symBinAddr: 0x1000366C0, symSize: 0x200 }
  - { offset: 0x20064, size: 0x8, addend: 0x0, symName: __ZThn16_NSt3__118basic_stringstreamIcNS_11char_traitsIcEENS_9allocatorIcEEED1Ev, symObjAddr: 0x353D0, symBinAddr: 0x1000368C0, symSize: 0x20 }
  - { offset: 0x2007B, size: 0x8, addend: 0x0, symName: __ZTv0_n24_NSt3__118basic_stringstreamIcNS_11char_traitsIcEENS_9allocatorIcEEED1Ev, symObjAddr: 0x353F0, symBinAddr: 0x1000368E0, symSize: 0x90 }
  - { offset: 0x20097, size: 0x8, addend: 0x0, symName: __ZNSt3__115basic_stringbufIcNS_11char_traitsIcEENS_9allocatorIcEEED1Ev, symObjAddr: 0x35480, symBinAddr: 0x100036970, symSize: 0x50 }
  - { offset: 0x200C4, size: 0x8, addend: 0x0, symName: __ZNSt3__115basic_stringbufIcNS_11char_traitsIcEENS_9allocatorIcEEED2Ev, symObjAddr: 0x354D0, symBinAddr: 0x1000369C0, symSize: 0xA0 }
  - { offset: 0x200F1, size: 0x8, addend: 0x0, symName: __ZN7testing7MatcherIRKNSt3__13mapINS1_12basic_stringIcNS1_11char_traitsIcEENS1_9allocatorIcEEEENS1_3setIS8_NS1_4lessIS8_EENS6_IS8_EEEESB_NS6_INS1_4pairIKS8_SD_EEEEEEED2Ev, symObjAddr: 0x35570, symBinAddr: 0x100036A60, symSize: 0x50 }
  - { offset: 0x2011D, size: 0x8, addend: 0x0, symName: __ZN7testing8internal29PredicateFormatterFromMatcherINS_18PolymorphicMatcherINS0_18ContainerEqMatcherINSt3__13mapINS4_12basic_stringIcNS4_11char_traitsIcEENS4_9allocatorIcEEEENS4_3setISB_NS4_4lessISB_EENS9_ISB_EEEESE_NS9_INS4_4pairIKSB_SG_EEEEEEEEEEED2Ev, symObjAddr: 0x355C0, symBinAddr: 0x100036AB0, symSize: 0x50 }
  - { offset: 0x2014A, size: 0x8, addend: 0x0, symName: __ZN7testing18PolymorphicMatcherINS_8internal18ContainerEqMatcherINSt3__13mapINS3_12basic_stringIcNS3_11char_traitsIcEENS3_9allocatorIcEEEENS3_3setISA_NS3_4lessISA_EENS8_ISA_EEEESD_NS8_INS3_4pairIKSA_SF_EEEEEEEEED2Ev, symObjAddr: 0x35610, symBinAddr: 0x100036B00, symSize: 0x50 }
  - { offset: 0x20177, size: 0x8, addend: 0x0, symName: __ZNKSt3__110unique_ptrINS_18basic_stringstreamIcNS_11char_traitsIcEENS_9allocatorIcEEEENS_14default_deleteIS6_EEEdeB8ne180100Ev, symObjAddr: 0x35660, symBinAddr: 0x100036B50, symSize: 0x120 }
  - { offset: 0x2019D, size: 0x8, addend: 0x0, symName: __ZNKSt3__117__compressed_pairIPNS_18basic_stringstreamIcNS_11char_traitsIcEENS_9allocatorIcEEEENS_14default_deleteIS6_EEE5firstB8ne180100Ev, symObjAddr: 0x35780, symBinAddr: 0x100036C70, symSize: 0xE0 }
  - { offset: 0x201C3, size: 0x8, addend: 0x0, symName: __ZNKSt3__122__compressed_pair_elemIPNS_18basic_stringstreamIcNS_11char_traitsIcEENS_9allocatorIcEEEELi0ELb0EE5__getB8ne180100Ev, symObjAddr: 0x35860, symBinAddr: 0x100036D50, symSize: 0x80 }
  - { offset: 0x201E9, size: 0x8, addend: 0x0, symName: __ZNK7testing15AssertionResult7messageEv, symObjAddr: 0x358E0, symBinAddr: 0x100036DD0, symSize: 0x140 }
  - { offset: 0x2020F, size: 0x8, addend: 0x0, symName: __ZN7testing7MessageD2Ev, symObjAddr: 0x35A20, symBinAddr: 0x100036F10, symSize: 0x50 }
  - { offset: 0x2023B, size: 0x8, addend: 0x0, symName: __ZNSt3__110unique_ptrINS_18basic_stringstreamIcNS_11char_traitsIcEENS_9allocatorIcEEEENS_14default_deleteIS6_EEED1B8ne180100Ev, symObjAddr: 0x35A70, symBinAddr: 0x100036F60, symSize: 0x50 }
  - { offset: 0x20265, size: 0x8, addend: 0x0, symName: __ZNSt3__110unique_ptrINS_18basic_stringstreamIcNS_11char_traitsIcEENS_9allocatorIcEEEENS_14default_deleteIS6_EEED2B8ne180100Ev, symObjAddr: 0x35AC0, symBinAddr: 0x100036FB0, symSize: 0x60 }
  - { offset: 0x2028F, size: 0x8, addend: 0x0, symName: __ZNSt3__110unique_ptrINS_18basic_stringstreamIcNS_11char_traitsIcEENS_9allocatorIcEEEENS_14default_deleteIS6_EEE5resetB8ne180100EPS6_, symObjAddr: 0x35B20, symBinAddr: 0x100037010, symSize: 0x210 }
  - { offset: 0x202D3, size: 0x8, addend: 0x0, symName: __ZNSt3__117__compressed_pairIPNS_18basic_stringstreamIcNS_11char_traitsIcEENS_9allocatorIcEEEENS_14default_deleteIS6_EEE5firstB8ne180100Ev, symObjAddr: 0x35D30, symBinAddr: 0x100037220, symSize: 0xE0 }
  - { offset: 0x202F9, size: 0x8, addend: 0x0, symName: __ZNSt3__117__compressed_pairIPNS_18basic_stringstreamIcNS_11char_traitsIcEENS_9allocatorIcEEEENS_14default_deleteIS6_EEE6secondB8ne180100Ev, symObjAddr: 0x35E10, symBinAddr: 0x100037300, symSize: 0xC0 }
  - { offset: 0x2031F, size: 0x8, addend: 0x0, symName: __ZNKSt3__114default_deleteINS_18basic_stringstreamIcNS_11char_traitsIcEENS_9allocatorIcEEEEEclB8ne180100EPS6_, symObjAddr: 0x35ED0, symBinAddr: 0x1000373C0, symSize: 0x190 }
  - { offset: 0x20353, size: 0x8, addend: 0x0, symName: __ZNSt3__122__compressed_pair_elemIPNS_18basic_stringstreamIcNS_11char_traitsIcEENS_9allocatorIcEEEELi0ELb0EE5__getB8ne180100Ev, symObjAddr: 0x36060, symBinAddr: 0x100037550, symSize: 0x80 }
  - { offset: 0x20379, size: 0x8, addend: 0x0, symName: __ZNSt3__122__compressed_pair_elemINS_14default_deleteINS_18basic_stringstreamIcNS_11char_traitsIcEENS_9allocatorIcEEEEEELi1ELb1EE5__getB8ne180100Ev, symObjAddr: 0x360E0, symBinAddr: 0x1000375D0, symSize: 0x60 }
  - { offset: 0x2039F, size: 0x8, addend: 0x0, symName: __ZN7testing15AssertionResultD2Ev, symObjAddr: 0x36140, symBinAddr: 0x100037630, symSize: 0x60 }
  - { offset: 0x203CB, size: 0x8, addend: 0x0, symName: __ZN7testing8internal29PredicateFormatterFromMatcherINS0_9EqMatcherIiEEEC1ES3_, symObjAddr: 0x361A0, symBinAddr: 0x100037690, symSize: 0x60 }
  - { offset: 0x20404, size: 0x8, addend: 0x0, symName: __ZN7testing8internal29PredicateFormatterFromMatcherINS0_9EqMatcherIiEEEC2ES3_, symObjAddr: 0x36200, symBinAddr: 0x1000376F0, symSize: 0x60 }
  - { offset: 0x2043D, size: 0x8, addend: 0x0, symName: __ZN7testing8internal9EqMatcherIiEC1ERKi, symObjAddr: 0x36260, symBinAddr: 0x100037750, symSize: 0x60 }
  - { offset: 0x20476, size: 0x8, addend: 0x0, symName: __ZN7testing8internal9EqMatcherIiEC2ERKi, symObjAddr: 0x362C0, symBinAddr: 0x1000377B0, symSize: 0xC0 }
  - { offset: 0x204AF, size: 0x8, addend: 0x0, symName: __ZN7testing8internal14ComparisonBaseINS0_9EqMatcherIiEEiNSt3__18equal_toIvEEEC2ERKi, symObjAddr: 0x36380, symBinAddr: 0x100037870, symSize: 0xF8 }
  - { offset: 0x204E8, size: 0x8, addend: 0x0, symName: __ZNK7testing8internal11MatcherBaseIRKiE7MatchesES3_, symObjAddr: 0x364E0, symBinAddr: 0x1000379D0, symSize: 0x300 }
  - { offset: 0x20530, size: 0x8, addend: 0x0, symName: __ZNK7testing8internal11MatcherBaseIRKiE10DescribeToEPNSt3__113basic_ostreamIcNS5_11char_traitsIcEEEE, symObjAddr: 0x367E0, symBinAddr: 0x100037CD0, symSize: 0x588 }
  - { offset: 0x20575, size: 0x8, addend: 0x0, symName: __ZN7testing7MatcherIRKiED1Ev, symObjAddr: 0x37B80, symBinAddr: 0x100039070, symSize: 0x58 }
  - { offset: 0x205A1, size: 0x8, addend: 0x0, symName: __ZN7testing8internal15MatcherCastImplIRKiNS0_9EqMatcherIiEEE4CastERKS5_, symObjAddr: 0x37C48, symBinAddr: 0x100039138, symSize: 0x70 }
  - { offset: 0x205C5, size: 0x8, addend: 0x0, symName: __ZN7testing8internal15MatcherCastImplIRKiNS0_9EqMatcherIiEEE8CastImplILb0EEENS_7MatcherIS3_EERKS5_NSt3__117integral_constantIbLb1EEENSD_IbXT_EEE, symObjAddr: 0x37CB8, symBinAddr: 0x1000391A8, symSize: 0x98 }
  - { offset: 0x2060B, size: 0x8, addend: 0x0, symName: __ZN7testing7MatcherIRKiEC1IRKNS_8internal9EqMatcherIiEEvEEOT_, symObjAddr: 0x37D50, symBinAddr: 0x100039240, symSize: 0x60 }
  - { offset: 0x2064E, size: 0x8, addend: 0x0, symName: __ZN7testing7MatcherIRKiEC2IRKNS_8internal9EqMatcherIiEEvEEOT_, symObjAddr: 0x37DB0, symBinAddr: 0x1000392A0, symSize: 0x100 }
  - { offset: 0x20691, size: 0x8, addend: 0x0, symName: __ZN7testing8internal11MatcherBaseIRKiEC2IRKNS0_9EqMatcherIiEEvEEOT_, symObjAddr: 0x37EB0, symBinAddr: 0x1000393A0, symSize: 0x200 }
  - { offset: 0x206D4, size: 0x8, addend: 0x0, symName: __ZN7testing7MatcherIRKiED0Ev, symObjAddr: 0x380B0, symBinAddr: 0x1000395A0, symSize: 0x60 }
  - { offset: 0x20700, size: 0x8, addend: 0x0, symName: __ZNK7testing8internal11MatcherBaseIRKiE18DescribeNegationToEPNSt3__113basic_ostreamIcNS5_11char_traitsIcEEEE, symObjAddr: 0x38110, symBinAddr: 0x100039600, symSize: 0x580 }
  - { offset: 0x20736, size: 0x8, addend: 0x0, symName: __ZN7testing8internal11MatcherBaseIRKiE4InitIRKNS0_9EqMatcherIiEEEEvOT_, symObjAddr: 0x38690, symBinAddr: 0x100039B80, symSize: 0x200 }
  - { offset: 0x20774, size: 0x8, addend: 0x0, symName: __ZN7testing8internal11MatcherBaseIRKiED1Ev, symObjAddr: 0x38890, symBinAddr: 0x100039D80, symSize: 0x50 }
  - { offset: 0x2079E, size: 0x8, addend: 0x0, symName: __ZN7testing8internal11MatcherBaseIRKiED0Ev, symObjAddr: 0x388E0, symBinAddr: 0x100039DD0, symSize: 0x60 }
  - { offset: 0x207C8, size: 0x8, addend: 0x0, symName: __ZN7testing8internal11MatcherBaseIRKiE11ValuePolicyINS0_9EqMatcherIiEELb1EE4InitERS4_S7_, symObjAddr: 0x38998, symBinAddr: 0x100039E88, symSize: 0x70 }
  - { offset: 0x207FB, size: 0x8, addend: 0x0, symName: __ZN7testing8internal11MatcherBaseIRKiE19MatchAndExplainImplINS4_11ValuePolicyINS0_9EqMatcherIiEELb1EEEEEDTcldtclsrT_3Getfp_E15MatchAndExplainfp0_clptfp1_6streamEEERKS4_S3_PNS_19MatchResultListenerE, symObjAddr: 0x38A08, symBinAddr: 0x100039EF8, symSize: 0x1E0 }
  - { offset: 0x20846, size: 0x8, addend: 0x0, symName: __ZN7testing8internal11MatcherBaseIRKiE12DescribeImplINS4_11ValuePolicyINS0_9EqMatcherIiEELb1EEEEEvRKS4_PNSt3__113basic_ostreamIcNSC_11char_traitsIcEEEEb, symObjAddr: 0x38BE8, symBinAddr: 0x10003A0D8, symSize: 0x1A0 }
  - { offset: 0x20891, size: 0x8, addend: 0x0, symName: __ZN7testing8internal11MatcherBaseIRKiE16GetDescriberImplINS4_11ValuePolicyINS0_9EqMatcherIiEELb1EEEEEPKNS_25MatcherDescriberInterfaceERKS4_, symObjAddr: 0x38D88, symBinAddr: 0x10003A278, symSize: 0x2A0 }
  - { offset: 0x208BF, size: 0x8, addend: 0x0, symName: __ZN7testing8internal11MatcherBaseIRKiE11ValuePolicyINS0_9EqMatcherIiEELb1EE3GetERKS4_, symObjAddr: 0x39028, symBinAddr: 0x10003A518, symSize: 0x58 }
  - { offset: 0x208F2, size: 0x8, addend: 0x0, symName: __ZNK7testing8internal14ComparisonBaseINS0_9EqMatcherIiEEiNSt3__18equal_toIvEEE15MatchAndExplainIiEEbRKT_PNS4_13basic_ostreamIcNS4_11char_traitsIcEEEE, symObjAddr: 0x39080, symBinAddr: 0x10003A570, symSize: 0x250 }
  - { offset: 0x20949, size: 0x8, addend: 0x0, symName: __ZNKSt3__18equal_toIvEclB8ne180100IRKiS4_EEDTeqclsr3stdE7forwardIT_Efp_Eclsr3stdE7forwardIT0_Efp0_EEOS5_OS6_, symObjAddr: 0x392D0, symBinAddr: 0x10003A7C0, symSize: 0x158 }
  - { offset: 0x2099F, size: 0x8, addend: 0x0, symName: __ZN7testing8internal14ComparisonBaseINS0_9EqMatcherIiEEiNSt3__18equal_toIvEEE6UnwrapIiEERKT_SB_, symObjAddr: 0x39428, symBinAddr: 0x10003A918, symSize: 0x58 }
  - { offset: 0x209CC, size: 0x8, addend: 0x0, symName: __ZNK7testing8internal14ComparisonBaseINS0_9EqMatcherIiEEiNSt3__18equal_toIvEEE18DescribeNegationToEPNS4_13basic_ostreamIcNS4_11char_traitsIcEEEE, symObjAddr: 0x39480, symBinAddr: 0x10003A970, symSize: 0x150 }
  - { offset: 0x20A01, size: 0x8, addend: 0x0, symName: __ZNK7testing8internal14ComparisonBaseINS0_9EqMatcherIiEEiNSt3__18equal_toIvEEE10DescribeToEPNS4_13basic_ostreamIcNS4_11char_traitsIcEEEE, symObjAddr: 0x395D0, symBinAddr: 0x10003AAC0, symSize: 0x158 }
  - { offset: 0x20A36, size: 0x8, addend: 0x0, symName: __ZN7testing8internal9EqMatcherIiE11NegatedDescEv, symObjAddr: 0x39728, symBinAddr: 0x10003AC18, symSize: 0x20 }
  - { offset: 0x20A4A, size: 0x8, addend: 0x0, symName: __ZN7testing8internal16UniversalPrinterIiE5PrintERKiPNSt3__113basic_ostreamIcNS5_11char_traitsIcEEEE, symObjAddr: 0x397A8, symBinAddr: 0x10003AC98, symSize: 0x60 }
  - { offset: 0x20A7D, size: 0x8, addend: 0x0, symName: __ZN7testing8internal52internal_stream_operator_without_lexical_name_lookup13StreamPrinter10PrintValueIivEEDTcvvlsdefp0_fp_ERKT_PNSt3__113basic_ostreamIcNS8_11char_traitsIcEEEE, symObjAddr: 0x398C8, symBinAddr: 0x10003ADB8, symSize: 0x150 }
  - { offset: 0x20AB8, size: 0x8, addend: 0x0, symName: __ZN7testing8internal9EqMatcherIiE4DescEv, symObjAddr: 0x39A18, symBinAddr: 0x10003AF08, symSize: 0x20 }
  - { offset: 0x20B03, size: 0x8, addend: 0x0, symName: __ZNSt3__112__tuple_leafILm0EPKN7testing8internal11MatcherBaseIRKiEELb0EE3getB8ne180100Ev, symObjAddr: 0x39CC0, symBinAddr: 0x10003B1B0, symSize: 0x80 }
  - { offset: 0x20BA4, size: 0x8, addend: 0x0, symName: __ZNSt3__15tupleIJPKN7testing8internal11MatcherBaseIRKiEEPKNS2_9EqMatcherIiEEEEC1B8ne180100IJS8_SC_ETnNS_9enable_ifIXsr4_AndINS_17integral_constantIbXeqsZT_sZT_EEENSD_17_EnableUTypesCtorIJDpT_EEEEE5valueEiE4typeELi0EEEDpOSJ_, symObjAddr: 0x39D40, symBinAddr: 0x10003B230, symSize: 0x60 }
  - { offset: 0x20C02, size: 0x8, addend: 0x0, symName: __ZNSt3__15tupleIJPKN7testing8internal11MatcherBaseIRKiEEPKNS2_9EqMatcherIiEEEEC2B8ne180100IJS8_SC_ETnNS_9enable_ifIXsr4_AndINS_17integral_constantIbXeqsZT_sZT_EEENSD_17_EnableUTypesCtorIJDpT_EEEEE5valueEiE4typeELi0EEEDpOSJ_, symObjAddr: 0x39DA0, symBinAddr: 0x10003B290, symSize: 0xD0 }
  - { offset: 0x20C60, size: 0x8, addend: 0x0, symName: __ZNSt3__112__tuple_implINS_15__tuple_indicesIJLm0ELm1EEEEJPKN7testing8internal11MatcherBaseIRKiEEPKNS4_9EqMatcherIiEEEEC1B8ne180100IJLm0ELm1EEJSA_SE_ETpTnmJEJEJSA_SE_EEENS1_IJXspT_EEEENS_13__tuple_typesIJDpT0_EEENS1_IJXspT1_EEEENSI_IJDpT2_EEEDpOT3_, symObjAddr: 0x39E70, symBinAddr: 0x10003B360, symSize: 0x60 }
  - { offset: 0x20D16, size: 0x8, addend: 0x0, symName: __ZNSt3__112__tuple_implINS_15__tuple_indicesIJLm0ELm1EEEEJPKN7testing8internal11MatcherBaseIRKiEEPKNS4_9EqMatcherIiEEEEC2B8ne180100IJLm0ELm1EEJSA_SE_ETpTnmJEJEJSA_SE_EEENS1_IJXspT_EEEENS_13__tuple_typesIJDpT0_EEENS1_IJXspT1_EEEENSI_IJDpT2_EEEDpOT3_, symObjAddr: 0x39ED0, symBinAddr: 0x10003B3C0, symSize: 0x140 }
  - { offset: 0x20DCC, size: 0x8, addend: 0x0, symName: __ZNSt3__112__tuple_leafILm0EPKN7testing8internal11MatcherBaseIRKiEELb0EEC2B8ne180100IS8_vEEOT_, symObjAddr: 0x3A010, symBinAddr: 0x10003B500, symSize: 0xF0 }
  - { offset: 0x20E0F, size: 0x8, addend: 0x0, symName: __ZNSt3__112__tuple_leafILm1EPKN7testing8internal9EqMatcherIiEELb0EEC2B8ne180100IS6_vEEOT_, symObjAddr: 0x3A100, symBinAddr: 0x10003B5F0, symSize: 0xF0 }
  - { offset: 0x20E52, size: 0x8, addend: 0x0, symName: __ZN7testing8internal11MatcherBaseIRKiED2Ev, symObjAddr: 0x3A1F0, symBinAddr: 0x10003B6E0, symSize: 0x130 }
  - { offset: 0x20E7C, size: 0x8, addend: 0x0, symName: __ZN7testing8internal11MatcherBaseIRKiE7DestroyEv, symObjAddr: 0x3A320, symBinAddr: 0x10003B810, symSize: 0x4A0 }
  - { offset: 0x20EA2, size: 0x8, addend: 0x0, symName: __ZNK7testing8internal11MatcherBaseIRKiE8IsSharedEv, symObjAddr: 0x3A7C0, symBinAddr: 0x10003BCB0, symSize: 0x280 }
  - { offset: 0x20EC8, size: 0x8, addend: 0x0, symName: __ZNK7testing8internal11MatcherBaseIRKiE15MatchAndExplainES3_PNS_19MatchResultListenerE, symObjAddr: 0x3AA40, symBinAddr: 0x10003BF30, symSize: 0x5B8 }
  - { offset: 0x20F0D, size: 0x8, addend: 0x0, symName: __ZN7testing7MatcherIRKiED2Ev, symObjAddr: 0x3B030, symBinAddr: 0x10003C520, symSize: 0x50 }
  - { offset: 0x20F39, size: 0x8, addend: 0x0, symName: __ZNSt3__13mapINS_12basic_stringIcNS_11char_traitsIcEENS_9allocatorIcEEEENS_3setIS6_NS_4lessIS6_EENS4_IS6_EEEES9_NS4_INS_4pairIKS6_SB_EEEEED2B8ne180100Ev, symObjAddr: 0x3B080, symBinAddr: 0x10003C570, symSize: 0x50 }
  - { offset: 0x20F63, size: 0x8, addend: 0x0, symName: __ZN7testing8internal12CodeLocationD2Ev, symObjAddr: 0x3B0D0, symBinAddr: 0x10003C5C0, symSize: 0x58 }
  - { offset: 0x20F90, size: 0x8, addend: 0x0, symName: __ZN7testing4Test13SetUpTestCaseEv, symObjAddr: 0x3B168, symBinAddr: 0x10003C658, symSize: 0x10 }
  - { offset: 0x20FA4, size: 0x8, addend: 0x0, symName: __ZN7testing4Test14SetUpTestSuiteEv, symObjAddr: 0x3B178, symBinAddr: 0x10003C668, symSize: 0x10 }
  - { offset: 0x20FB8, size: 0x8, addend: 0x0, symName: __ZN7testing4Test16TearDownTestCaseEv, symObjAddr: 0x3B188, symBinAddr: 0x10003C678, symSize: 0x10 }
  - { offset: 0x20FCC, size: 0x8, addend: 0x0, symName: __ZN7testing4Test17TearDownTestSuiteEv, symObjAddr: 0x3B198, symBinAddr: 0x10003C688, symSize: 0x8 }
  - { offset: 0x236BA, size: 0x8, addend: 0x0, symName: _.str, symObjAddr: 0x25820, symBinAddr: 0x1001CDE40, symSize: 0x0 }
  - { offset: 0x236EA, size: 0x8, addend: 0x0, symName: _.str.1, symObjAddr: 0x25840, symBinAddr: 0x1001CDE60, symSize: 0x0 }
  - { offset: 0x236FA, size: 0x8, addend: 0x0, symName: __ZN12_GLOBAL__N_126CleanToken_NoCleaning_Test10test_info_E, symObjAddr: 0x93FC0, symBinAddr: 0x1002EFA80, symSize: 0x0 }
  - { offset: 0x237C6, size: 0x8, addend: 0x0, symName: __ZN12_GLOBAL__N_130CleanToken_PrefixCleaning_Test10test_info_E, symObjAddr: 0x93FE0, symBinAddr: 0x1002EFAA0, symSize: 0x0 }
  - { offset: 0x23892, size: 0x8, addend: 0x0, symName: __ZN12_GLOBAL__N_130CleanToken_SuffixCleaning_Test10test_info_E, symObjAddr: 0x94000, symBinAddr: 0x1002EFAC0, symSize: 0x0 }
  - { offset: 0x2395E, size: 0x8, addend: 0x0, symName: __ZN12_GLOBAL__N_123CleanToken_ToEmpty_Test10test_info_E, symObjAddr: 0x94020, symBinAddr: 0x1002EFAE0, symSize: 0x0 }
  - { offset: 0x23A2A, size: 0x8, addend: 0x0, symName: __ZN12_GLOBAL__N_125CleanToken_Uppercase_Test10test_info_E, symObjAddr: 0x94040, symBinAddr: 0x1002EFB00, symSize: 0x0 }
  - { offset: 0x24257, size: 0x8, addend: 0x0, symName: __ZN7testing8internal33MakePredicateFormatterFromMatcherINS_18PolymorphicMatcherINS0_18StrEqualityMatcherINSt3__112basic_stringIcNS4_11char_traitsIcEENS4_9allocatorIcEEEEEEEEEENS0_29PredicateFormatterFromMatcherIT_EESE_, symObjAddr: 0x3468, symBinAddr: 0x10003E148, symSize: 0x290 }
  - { offset: 0x24290, size: 0x8, addend: 0x0, symName: __ZN7testing8internal20MatchPrintAndExplainIKNSt3__112basic_stringIcNS2_11char_traitsIcEENS2_9allocatorIcEEEERS9_EEbRT_RKNS_7MatcherIT0_EEPNS_19MatchResultListenerE, symObjAddr: 0x66D8, symBinAddr: 0x100040D88, symSize: 0xE70 }
  - { offset: 0x243C2, size: 0x8, addend: 0x0, symName: __ZN7testing8internal27CaseInsensitiveStringEqualsINSt3__112basic_stringIcNS2_11char_traitsIcEENS2_9allocatorIcEEEEEEbRKT_SB_, symObjAddr: 0x99B8, symBinAddr: 0x100043058, symSize: 0x538 }
  - { offset: 0x2443A, size: 0x8, addend: 0x0, symName: __ZN7testing8internal28CaseInsensitiveCStringEqualsEPKcS2_, symObjAddr: 0xA328, symBinAddr: 0x100043598, symSize: 0x28 }
  - { offset: 0x24477, size: 0x8, addend: 0x0, symName: __ZN7testing8internal11GetTypeNameIKNSt3__112basic_stringIcNS2_11char_traitsIcEENS2_9allocatorIcEEEEEES8_v, symObjAddr: 0x14788, symBinAddr: 0x100048068, symSize: 0x40 }
  - { offset: 0x24E81, size: 0x8, addend: 0x0, symName: __ZN7testing5StrEqIA5_cEENS_18PolymorphicMatcherINS_8internal18StrEqualityMatcherINSt3__112basic_stringIcNS5_11char_traitsIcEENS5_9allocatorIcEEEEEEEERKT_, symObjAddr: 0x36F8, symBinAddr: 0x10003E3D8, symSize: 0x2F8 }
  - { offset: 0x24EB9, size: 0x8, addend: 0x0, symName: __ZN7testing5StrEqIA7_cEENS_18PolymorphicMatcherINS_8internal18StrEqualityMatcherINSt3__112basic_stringIcNS5_11char_traitsIcEENS5_9allocatorIcEEEEEEEERKT_, symObjAddr: 0x4A68, symBinAddr: 0x10003F598, symSize: 0x300 }
  - { offset: 0x24EF1, size: 0x8, addend: 0x0, symName: __ZN7testing5StrEqIA9_cEENS_18PolymorphicMatcherINS_8internal18StrEqualityMatcherINSt3__112basic_stringIcNS5_11char_traitsIcEENS5_9allocatorIcEEEEEEEERKT_, symObjAddr: 0x4D68, symBinAddr: 0x10003F898, symSize: 0x2F8 }
  - { offset: 0x24F29, size: 0x8, addend: 0x0, symName: __ZN7testing22MakePolymorphicMatcherINS_8internal18StrEqualityMatcherINSt3__112basic_stringIcNS3_11char_traitsIcEENS3_9allocatorIcEEEEEEEENS_18PolymorphicMatcherIT_EERKSC_, symObjAddr: 0x53B8, symBinAddr: 0x10003FEE8, symSize: 0x98 }
  - { offset: 0x24F60, size: 0x8, addend: 0x0, symName: __ZN7testing15SafeMatcherCastIRKNSt3__112basic_stringIcNS1_11char_traitsIcEENS1_9allocatorIcEEEENS_18PolymorphicMatcherINS_8internal18StrEqualityMatcherIS7_EEEEEENS_7MatcherIT_EERKT0_, symObjAddr: 0x5968, symBinAddr: 0x100040498, symSize: 0x68 }
  - { offset: 0x2503F, size: 0x8, addend: 0x0, symName: __ZN7testing11MatcherCastIRKNSt3__112basic_stringIcNS1_11char_traitsIcEENS1_9allocatorIcEEEENS_18PolymorphicMatcherINS_8internal18StrEqualityMatcherIS7_EEEEEENS_7MatcherIT_EERKT0_, symObjAddr: 0x7DD8, symBinAddr: 0x100041C58, symSize: 0x70 }
  - { offset: 0x2507F, size: 0x8, addend: 0x0, symName: __ZN7testing5StrEqIA6_cEENS_18PolymorphicMatcherINS_8internal18StrEqualityMatcherINSt3__112basic_stringIcNS5_11char_traitsIcEENS5_9allocatorIcEEEEEEEERKT_, symObjAddr: 0x1C8E8, symBinAddr: 0x10004A3C8, symSize: 0x300 }
  - { offset: 0x250B7, size: 0x8, addend: 0x0, symName: __ZN7testing5StrEqIA10_cEENS_18PolymorphicMatcherINS_8internal18StrEqualityMatcherINSt3__112basic_stringIcNS5_11char_traitsIcEENS5_9allocatorIcEEEEEEEERKT_, symObjAddr: 0x1CBE8, symBinAddr: 0x10004A6C8, symSize: 0x2F8 }
  - { offset: 0x250EF, size: 0x8, addend: 0x0, symName: __ZN7testing5StrEqIA1_cEENS_18PolymorphicMatcherINS_8internal18StrEqualityMatcherINSt3__112basic_stringIcNS5_11char_traitsIcEENS5_9allocatorIcEEEEEEEERKT_, symObjAddr: 0x20E38, symBinAddr: 0x10004E918, symSize: 0x2F8 }
  - { offset: 0x2A2BC, size: 0x8, addend: 0x0, symName: __ZNSt3__13getB8ne180100ILm1EJPKN7testing8internal11MatcherBaseIRKNS_12basic_stringIcNS_11char_traitsIcEENS_9allocatorIcEEEEEEPKNS1_16MatcherInterfaceISB_EEEEEONS_13tuple_elementIXT_ENS_5tupleIJDpT0_EEEE4typeEOSN_, symObjAddr: 0xC3A8, symBinAddr: 0x1000455C8, symSize: 0xC0 }
  - { offset: 0x2A304, size: 0x8, addend: 0x0, symName: __ZNSt3__110make_tupleB8ne180100IJPKN7testing8internal11MatcherBaseIRKNS_12basic_stringIcNS_11char_traitsIcEENS_9allocatorIcEEEEEEPKNS1_16MatcherInterfaceISB_EEEEENS_5tupleIJDpNS_18__unwrap_ref_decayIT_E4typeEEEEDpOSL_, symObjAddr: 0xC468, symBinAddr: 0x100045688, symSize: 0x1D8 }
  - { offset: 0x2B603, size: 0x8, addend: 0x0, symName: _.str.4, symObjAddr: 0x25860, symBinAddr: 0x1001CDE80, symSize: 0x0 }
  - { offset: 0x2B63C, size: 0x8, addend: 0x0, symName: _.str.6, symObjAddr: 0x25880, symBinAddr: 0x1001CDEA0, symSize: 0x0 }
  - { offset: 0x2B669, size: 0x8, addend: 0x0, symName: _.str.8, symObjAddr: 0x258A0, symBinAddr: 0x1001CDEC0, symSize: 0x0 }
  - { offset: 0x2B6A2, size: 0x8, addend: 0x0, symName: _.str.10, symObjAddr: 0x258C0, symBinAddr: 0x1001CDEE0, symSize: 0x0 }
  - { offset: 0x2B6DB, size: 0x8, addend: 0x0, symName: _.str.14, symObjAddr: 0x259C0, symBinAddr: 0x1001CDFE0, symSize: 0x0 }
  - { offset: 0x2B6F8, size: 0x8, addend: 0x0, symName: _.str.15, symObjAddr: 0x259E0, symBinAddr: 0x1001CE000, symSize: 0x0 }
  - { offset: 0x2B715, size: 0x8, addend: 0x0, symName: _.str.16, symObjAddr: 0x25A20, symBinAddr: 0x1001CE040, symSize: 0x0 }
  - { offset: 0x2B732, size: 0x8, addend: 0x0, symName: _.str.17, symObjAddr: 0x25A40, symBinAddr: 0x1001CE060, symSize: 0x0 }
  - { offset: 0x2B74F, size: 0x8, addend: 0x0, symName: _.str.18, symObjAddr: 0x25A80, symBinAddr: 0x1001CE0A0, symSize: 0x0 }
  - { offset: 0x2B76C, size: 0x8, addend: 0x0, symName: _.str.19, symObjAddr: 0x25AA0, symBinAddr: 0x1001CE0C0, symSize: 0x0 }
  - { offset: 0x2B78B, size: 0x8, addend: 0x0, symName: _.str.22, symObjAddr: 0x25AE0, symBinAddr: 0x1001CE100, symSize: 0x0 }
  - { offset: 0x2B79E, size: 0x8, addend: 0x0, symName: _.str.23, symObjAddr: 0x25B00, symBinAddr: 0x1001CE120, symSize: 0x0 }
  - { offset: 0x2B7BD, size: 0x8, addend: 0x0, symName: _.str.24, symObjAddr: 0x25B20, symBinAddr: 0x1001CE140, symSize: 0x0 }
  - { offset: 0x2B7D0, size: 0x8, addend: 0x0, symName: _.str.25, symObjAddr: 0x25B40, symBinAddr: 0x1001CE160, symSize: 0x0 }
  - { offset: 0x2B7EF, size: 0x8, addend: 0x0, symName: _.str.26, symObjAddr: 0x25BE0, symBinAddr: 0x1001CE200, symSize: 0x0 }
  - { offset: 0x2B80C, size: 0x8, addend: 0x0, symName: _.str.27, symObjAddr: 0x25C00, symBinAddr: 0x1001CE220, symSize: 0x0 }
  - { offset: 0x2B829, size: 0x8, addend: 0x0, symName: _.str.28, symObjAddr: 0x25C20, symBinAddr: 0x1001CE240, symSize: 0x0 }
  - { offset: 0x2B83C, size: 0x8, addend: 0x0, symName: _.str.29, symObjAddr: 0x25C40, symBinAddr: 0x1001CE260, symSize: 0x0 }
  - { offset: 0x2B85B, size: 0x8, addend: 0x0, symName: _.str.30, symObjAddr: 0x25C60, symBinAddr: 0x1001CE280, symSize: 0x0 }
  - { offset: 0x2B86E, size: 0x8, addend: 0x0, symName: _.str.31, symObjAddr: 0x25C80, symBinAddr: 0x1001CE2A0, symSize: 0x0 }
  - { offset: 0x2B881, size: 0x8, addend: 0x0, symName: _.str.32, symObjAddr: 0x25CA0, symBinAddr: 0x1001CE2C0, symSize: 0x0 }
  - { offset: 0x2BA78, size: 0x8, addend: 0x0, symName: __ZN7testing8internal11MatcherBaseIRKNSt3__112basic_stringIcNS2_11char_traitsIcEENS2_9allocatorIcEEEEE9GetVTableINSB_11ValuePolicyIPKNS_16MatcherInterfaceISA_EELb1EEEEEPKNSB_6VTableEv, symObjAddr: 0xB320, symBinAddr: 0x100044540, symSize: 0x58 }
  - { offset: 0x2BAC0, size: 0x8, addend: 0x0, symName: _.str.39, symObjAddr: 0x25CE0, symBinAddr: 0x1001CE300, symSize: 0x0 }
  - { offset: 0x2BADF, size: 0x8, addend: 0x0, symName: _.str.49, symObjAddr: 0x25D40, symBinAddr: 0x1001CE360, symSize: 0x0 }
  - { offset: 0x2BAF0, size: 0x8, addend: 0x0, symName: _.str.52, symObjAddr: 0x25D60, symBinAddr: 0x1001CE380, symSize: 0x0 }
  - { offset: 0x2BB0F, size: 0x8, addend: 0x0, symName: _.str.54, symObjAddr: 0x25D80, symBinAddr: 0x1001CE3A0, symSize: 0x0 }
  - { offset: 0x2BB22, size: 0x8, addend: 0x0, symName: _.str.56, symObjAddr: 0x25DA0, symBinAddr: 0x1001CE3C0, symSize: 0x0 }
  - { offset: 0x2BB33, size: 0x8, addend: 0x0, symName: _.str.60, symObjAddr: 0x2DBC0, symBinAddr: 0x1001FA7A0, symSize: 0x0 }
  - { offset: 0x2BB50, size: 0x8, addend: 0x0, symName: _.str.62, symObjAddr: 0x25EA0, symBinAddr: 0x1001CE4C0, symSize: 0x0 }
  - { offset: 0x2BB61, size: 0x8, addend: 0x0, symName: _.str.63, symObjAddr: 0x25EC0, symBinAddr: 0x1001CE4E0, symSize: 0x0 }
  - { offset: 0x2BB72, size: 0x8, addend: 0x0, symName: _.str.64, symObjAddr: 0x25F00, symBinAddr: 0x1001CE520, symSize: 0x0 }
  - { offset: 0x2BB83, size: 0x8, addend: 0x0, symName: _.str.65, symObjAddr: 0x25F20, symBinAddr: 0x1001CE540, symSize: 0x0 }
  - { offset: 0x2BB94, size: 0x8, addend: 0x0, symName: _.str.66, symObjAddr: 0x25F60, symBinAddr: 0x1001CE580, symSize: 0x0 }
  - { offset: 0x2BBA5, size: 0x8, addend: 0x0, symName: _.str.67, symObjAddr: 0x25F80, symBinAddr: 0x1001CE5A0, symSize: 0x0 }
  - { offset: 0x2BBC2, size: 0x8, addend: 0x0, symName: _.str.68, symObjAddr: 0x25FC0, symBinAddr: 0x1001CE5E0, symSize: 0x0 }
  - { offset: 0x2BBD3, size: 0x8, addend: 0x0, symName: _.str.69, symObjAddr: 0x25FE0, symBinAddr: 0x1001CE600, symSize: 0x0 }
  - { offset: 0x2BBE4, size: 0x8, addend: 0x0, symName: _.str.70, symObjAddr: 0x26000, symBinAddr: 0x1001CE620, symSize: 0x0 }
  - { offset: 0x2BBF5, size: 0x8, addend: 0x0, symName: _.str.71, symObjAddr: 0x26040, symBinAddr: 0x1001CE660, symSize: 0x0 }
  - { offset: 0x2BC06, size: 0x8, addend: 0x0, symName: _.str.72, symObjAddr: 0x26060, symBinAddr: 0x1001CE680, symSize: 0x0 }
  - { offset: 0x2BC23, size: 0x8, addend: 0x0, symName: _.str.73, symObjAddr: 0x260A0, symBinAddr: 0x1001CE6C0, symSize: 0x0 }
  - { offset: 0x2BC40, size: 0x8, addend: 0x0, symName: _.str.74, symObjAddr: 0x260C0, symBinAddr: 0x1001CE6E0, symSize: 0x0 }
  - { offset: 0x2BC5D, size: 0x8, addend: 0x0, symName: _.str.75, symObjAddr: 0x26100, symBinAddr: 0x1001CE720, symSize: 0x0 }
  - { offset: 0x2BC6E, size: 0x8, addend: 0x0, symName: _.str.76, symObjAddr: 0x26200, symBinAddr: 0x1001CE820, symSize: 0x0 }
  - { offset: 0x2BC7F, size: 0x8, addend: 0x0, symName: _.str.77, symObjAddr: 0x26240, symBinAddr: 0x1001CE860, symSize: 0x0 }
  - { offset: 0x2BC90, size: 0x8, addend: 0x0, symName: _.str.78, symObjAddr: 0x26260, symBinAddr: 0x1001CE880, symSize: 0x0 }
  - { offset: 0x2BCA1, size: 0x8, addend: 0x0, symName: _.str.79, symObjAddr: 0x262A0, symBinAddr: 0x1001CE8C0, symSize: 0x0 }
  - { offset: 0x2BCB2, size: 0x8, addend: 0x0, symName: _.str.80, symObjAddr: 0x262C0, symBinAddr: 0x1001CE8E0, symSize: 0x0 }
  - { offset: 0x2BCC3, size: 0x8, addend: 0x0, symName: _.str.81, symObjAddr: 0x26300, symBinAddr: 0x1001CE920, symSize: 0x0 }
  - { offset: 0x2BCD4, size: 0x8, addend: 0x0, symName: _.str.82, symObjAddr: 0x26320, symBinAddr: 0x1001CE940, symSize: 0x0 }
  - { offset: 0x2BCE5, size: 0x8, addend: 0x0, symName: _.str.83, symObjAddr: 0x26360, symBinAddr: 0x1001CE980, symSize: 0x0 }
  - { offset: 0x2BCF6, size: 0x8, addend: 0x0, symName: _.str.84, symObjAddr: 0x26380, symBinAddr: 0x1001CE9A0, symSize: 0x0 }
  - { offset: 0x2BD07, size: 0x8, addend: 0x0, symName: _.str.85, symObjAddr: 0x263C0, symBinAddr: 0x1001CE9E0, symSize: 0x0 }
  - { offset: 0x2BD18, size: 0x8, addend: 0x0, symName: _.str.86, symObjAddr: 0x263E0, symBinAddr: 0x1001CEA00, symSize: 0x0 }
  - { offset: 0x2BD29, size: 0x8, addend: 0x0, symName: _.str.87, symObjAddr: 0x26420, symBinAddr: 0x1001CEA40, symSize: 0x0 }
  - { offset: 0x2BD3A, size: 0x8, addend: 0x0, symName: _.str.88, symObjAddr: 0x26520, symBinAddr: 0x1001CEB40, symSize: 0x0 }
  - { offset: 0x2BD4B, size: 0x8, addend: 0x0, symName: _.str.89, symObjAddr: 0x26560, symBinAddr: 0x1001CEB80, symSize: 0x0 }
  - { offset: 0x2BD5C, size: 0x8, addend: 0x0, symName: _.str.90, symObjAddr: 0x26580, symBinAddr: 0x1001CEBA0, symSize: 0x0 }
  - { offset: 0x2BD79, size: 0x8, addend: 0x0, symName: _.str.91, symObjAddr: 0x265E0, symBinAddr: 0x1001CEC00, symSize: 0x0 }
  - { offset: 0x2BD8A, size: 0x8, addend: 0x0, symName: _.str.92, symObjAddr: 0x26640, symBinAddr: 0x1001CEC60, symSize: 0x0 }
  - { offset: 0x2BD9B, size: 0x8, addend: 0x0, symName: _.str.93, symObjAddr: 0x26680, symBinAddr: 0x1001CECA0, symSize: 0x0 }
  - { offset: 0x2BDAC, size: 0x8, addend: 0x0, symName: _.str.94, symObjAddr: 0x266A0, symBinAddr: 0x1001CECC0, symSize: 0x0 }
  - { offset: 0x2BDC9, size: 0x8, addend: 0x0, symName: _.str.95, symObjAddr: 0x266E0, symBinAddr: 0x1001CED00, symSize: 0x0 }
  - { offset: 0x2BDE6, size: 0x8, addend: 0x0, symName: _.str.96, symObjAddr: 0x26720, symBinAddr: 0x1001CED40, symSize: 0x0 }
  - { offset: 0x2BDF7, size: 0x8, addend: 0x0, symName: _.str.97, symObjAddr: 0x26820, symBinAddr: 0x1001CEE40, symSize: 0x0 }
  - { offset: 0x2BE08, size: 0x8, addend: 0x0, symName: _.str.98, symObjAddr: 0x26860, symBinAddr: 0x1001CEE80, symSize: 0x0 }
  - { offset: 0x2BE19, size: 0x8, addend: 0x0, symName: _.str.99, symObjAddr: 0x26880, symBinAddr: 0x1001CEEA0, symSize: 0x0 }
  - { offset: 0x2BE2A, size: 0x8, addend: 0x0, symName: _.str.100, symObjAddr: 0x268C0, symBinAddr: 0x1001CEEE0, symSize: 0x0 }
  - { offset: 0x2BE3B, size: 0x8, addend: 0x0, symName: _.str.101, symObjAddr: 0x268E0, symBinAddr: 0x1001CEF00, symSize: 0x0 }
  - { offset: 0x2BE4C, size: 0x8, addend: 0x0, symName: _.str.102, symObjAddr: 0x26920, symBinAddr: 0x1001CEF40, symSize: 0x0 }
  - { offset: 0x2BE5D, size: 0x8, addend: 0x0, symName: _.str.103, symObjAddr: 0x26940, symBinAddr: 0x1001CEF60, symSize: 0x0 }
  - { offset: 0x2BE6E, size: 0x8, addend: 0x0, symName: _.str.104, symObjAddr: 0x26980, symBinAddr: 0x1001CEFA0, symSize: 0x0 }
  - { offset: 0x2BE7F, size: 0x8, addend: 0x0, symName: _.str.105, symObjAddr: 0x269A0, symBinAddr: 0x1001CEFC0, symSize: 0x0 }
  - { offset: 0x2BE90, size: 0x8, addend: 0x0, symName: _.str.106, symObjAddr: 0x269E0, symBinAddr: 0x1001CF000, symSize: 0x0 }
  - { offset: 0x2BEA1, size: 0x8, addend: 0x0, symName: _.str.107, symObjAddr: 0x26A00, symBinAddr: 0x1001CF020, symSize: 0x0 }
  - { offset: 0x2BEB2, size: 0x8, addend: 0x0, symName: _.str.108, symObjAddr: 0x26A40, symBinAddr: 0x1001CF060, symSize: 0x0 }
  - { offset: 0x2BEC5, size: 0x8, addend: 0x0, symName: _.str.109, symObjAddr: 0x26A60, symBinAddr: 0x1001CF080, symSize: 0x0 }
  - { offset: 0x2BEE4, size: 0x8, addend: 0x0, symName: _.str.110, symObjAddr: 0x26AC0, symBinAddr: 0x1001CF0E0, symSize: 0x0 }
  - { offset: 0x2BF03, size: 0x8, addend: 0x0, symName: _.str.111, symObjAddr: 0x26B60, symBinAddr: 0x1001CF180, symSize: 0x0 }
  - { offset: 0x2BF16, size: 0x8, addend: 0x0, symName: _.str.112, symObjAddr: 0x26B80, symBinAddr: 0x1001CF1A0, symSize: 0x0 }
  - { offset: 0x2C02C, size: 0x8, addend: 0x0, symName: __ZN7testing8internal15TestFactoryImplIN12_GLOBAL__N_126CleanToken_NoCleaning_TestEEC1Ev, symObjAddr: 0xA90, symBinAddr: 0x10003CBC0, symSize: 0x50 }
  - { offset: 0x2C05E, size: 0x8, addend: 0x0, symName: __ZN7testing8internal15TestFactoryImplIN12_GLOBAL__N_130CleanToken_PrefixCleaning_TestEEC1Ev, symObjAddr: 0xB30, symBinAddr: 0x10003CC10, symSize: 0x50 }
  - { offset: 0x2C090, size: 0x8, addend: 0x0, symName: __ZN7testing8internal15TestFactoryImplIN12_GLOBAL__N_130CleanToken_SuffixCleaning_TestEEC1Ev, symObjAddr: 0xB80, symBinAddr: 0x10003CC60, symSize: 0x50 }
  - { offset: 0x2C0C2, size: 0x8, addend: 0x0, symName: __ZN7testing8internal15TestFactoryImplIN12_GLOBAL__N_123CleanToken_ToEmpty_TestEEC1Ev, symObjAddr: 0xBD0, symBinAddr: 0x10003CCB0, symSize: 0x50 }
  - { offset: 0x2C0F4, size: 0x8, addend: 0x0, symName: __ZN7testing8internal15TestFactoryImplIN12_GLOBAL__N_125CleanToken_Uppercase_TestEEC1Ev, symObjAddr: 0xC20, symBinAddr: 0x10003CD00, symSize: 0x50 }
  - { offset: 0x2C121, size: 0x8, addend: 0x0, symName: __ZN7testing8internal15TestFactoryImplIN12_GLOBAL__N_126CleanToken_NoCleaning_TestEEC2Ev, symObjAddr: 0x1EA0, symBinAddr: 0x10003CD50, symSize: 0xC0 }
  - { offset: 0x2C14E, size: 0x8, addend: 0x0, symName: __ZN7testing8internal15TestFactoryImplIN12_GLOBAL__N_126CleanToken_NoCleaning_TestEED1Ev, symObjAddr: 0x1FF0, symBinAddr: 0x10003CE10, symSize: 0x50 }
  - { offset: 0x2C17B, size: 0x8, addend: 0x0, symName: __ZN7testing8internal15TestFactoryImplIN12_GLOBAL__N_126CleanToken_NoCleaning_TestEED0Ev, symObjAddr: 0x2040, symBinAddr: 0x10003CE60, symSize: 0x60 }
  - { offset: 0x2C1A8, size: 0x8, addend: 0x0, symName: __ZN7testing8internal15TestFactoryImplIN12_GLOBAL__N_126CleanToken_NoCleaning_TestEE10CreateTestEv, symObjAddr: 0x20A0, symBinAddr: 0x10003CEC0, symSize: 0xF0 }
  - { offset: 0x2C1CE, size: 0x8, addend: 0x0, symName: __ZN7testing8internal15TestFactoryImplIN12_GLOBAL__N_126CleanToken_NoCleaning_TestEED2Ev, symObjAddr: 0x2230, symBinAddr: 0x10003CFB0, symSize: 0x50 }
  - { offset: 0x2C1FB, size: 0x8, addend: 0x0, symName: __ZN12_GLOBAL__N_126CleanToken_NoCleaning_TestC1Ev, symObjAddr: 0x22D0, symBinAddr: 0x10003D000, symSize: 0x50 }
  - { offset: 0x2C225, size: 0x8, addend: 0x0, symName: __ZN12_GLOBAL__N_126CleanToken_NoCleaning_TestC2Ev, symObjAddr: 0x2320, symBinAddr: 0x10003D050, symSize: 0xC0 }
  - { offset: 0x2C24F, size: 0x8, addend: 0x0, symName: __ZN12_GLOBAL__N_126CleanToken_NoCleaning_TestD1Ev, symObjAddr: 0x23E0, symBinAddr: 0x10003D110, symSize: 0x50 }
  - { offset: 0x2C279, size: 0x8, addend: 0x0, symName: __ZN12_GLOBAL__N_126CleanToken_NoCleaning_TestD0Ev, symObjAddr: 0x2430, symBinAddr: 0x10003D160, symSize: 0x60 }
  - { offset: 0x2C2A3, size: 0x8, addend: 0x0, symName: __ZN12_GLOBAL__N_126CleanToken_NoCleaning_Test8TestBodyEv, symObjAddr: 0x2490, symBinAddr: 0x10003D1C0, symSize: 0xF30 }
  - { offset: 0x2C317, size: 0x8, addend: 0x0, symName: __ZN12_GLOBAL__N_126CleanToken_NoCleaning_TestD2Ev, symObjAddr: 0x3410, symBinAddr: 0x10003E0F0, symSize: 0x58 }
  - { offset: 0x2C452, size: 0x8, addend: 0x0, symName: __ZNK7testing8internal29PredicateFormatterFromMatcherINS_18PolymorphicMatcherINS0_18StrEqualityMatcherINSt3__112basic_stringIcNS4_11char_traitsIcEENS4_9allocatorIcEEEEEEEEEclISA_EENS_15AssertionResultEPKcRKT_, symObjAddr: 0x39F0, symBinAddr: 0x10003E6D0, symSize: 0xE20 }
  - { offset: 0x2C4DC, size: 0x8, addend: 0x0, symName: __ZN7testing8internal29PredicateFormatterFromMatcherINS_18PolymorphicMatcherINS0_18StrEqualityMatcherINSt3__112basic_stringIcNS4_11char_traitsIcEENS4_9allocatorIcEEEEEEEEED1Ev, symObjAddr: 0x4810, symBinAddr: 0x10003F4F0, symSize: 0x50 }
  - { offset: 0x2C509, size: 0x8, addend: 0x0, symName: __ZN7testing18PolymorphicMatcherINS_8internal18StrEqualityMatcherINSt3__112basic_stringIcNS3_11char_traitsIcEENS3_9allocatorIcEEEEEEED1Ev, symObjAddr: 0x4860, symBinAddr: 0x10003F540, symSize: 0x50 }
  - { offset: 0x2C53C, size: 0x8, addend: 0x0, symName: __ZN7testing18PolymorphicMatcherINS_8internal18StrEqualityMatcherINSt3__112basic_stringIcNS3_11char_traitsIcEENS3_9allocatorIcEEEEEEEC1EOSB_, symObjAddr: 0x5060, symBinAddr: 0x10003FB90, symSize: 0x60 }
  - { offset: 0x2C572, size: 0x8, addend: 0x0, symName: __ZN7testing8internal29PredicateFormatterFromMatcherINS_18PolymorphicMatcherINS0_18StrEqualityMatcherINSt3__112basic_stringIcNS4_11char_traitsIcEENS4_9allocatorIcEEEEEEEEEC1ESC_, symObjAddr: 0x50C0, symBinAddr: 0x10003FBF0, symSize: 0x60 }
  - { offset: 0x2C5AC, size: 0x8, addend: 0x0, symName: __ZN7testing18PolymorphicMatcherINS_8internal18StrEqualityMatcherINSt3__112basic_stringIcNS3_11char_traitsIcEENS3_9allocatorIcEEEEEEEC2EOSB_, symObjAddr: 0x5120, symBinAddr: 0x10003FC50, symSize: 0xC0 }
  - { offset: 0x2C5E8, size: 0x8, addend: 0x0, symName: __ZN7testing8internal18StrEqualityMatcherINSt3__112basic_stringIcNS2_11char_traitsIcEENS2_9allocatorIcEEEEEC1EOS9_, symObjAddr: 0x51E0, symBinAddr: 0x10003FD10, symSize: 0x60 }
  - { offset: 0x2C61E, size: 0x8, addend: 0x0, symName: __ZN7testing8internal18StrEqualityMatcherINSt3__112basic_stringIcNS2_11char_traitsIcEENS2_9allocatorIcEEEEEC2EOS9_, symObjAddr: 0x5240, symBinAddr: 0x10003FD70, symSize: 0xE0 }
  - { offset: 0x2C654, size: 0x8, addend: 0x0, symName: __ZN7testing8internal29PredicateFormatterFromMatcherINS_18PolymorphicMatcherINS0_18StrEqualityMatcherINSt3__112basic_stringIcNS4_11char_traitsIcEENS4_9allocatorIcEEEEEEEEEC2ESC_, symObjAddr: 0x5320, symBinAddr: 0x10003FE50, symSize: 0x98 }
  - { offset: 0x2C68E, size: 0x8, addend: 0x0, symName: __ZN7testing8internal18StrEqualityMatcherINSt3__112basic_stringIcNS2_11char_traitsIcEENS2_9allocatorIcEEEEEC1ES8_bb, symObjAddr: 0x5450, symBinAddr: 0x10003FF80, symSize: 0xD0 }
  - { offset: 0x2C6E6, size: 0x8, addend: 0x0, symName: __ZN7testing8internal18StrEqualityMatcherINSt3__112basic_stringIcNS2_11char_traitsIcEENS2_9allocatorIcEEEEED1Ev, symObjAddr: 0x5520, symBinAddr: 0x100040050, symSize: 0x50 }
  - { offset: 0x2C713, size: 0x8, addend: 0x0, symName: __ZN7testing18PolymorphicMatcherINS_8internal18StrEqualityMatcherINSt3__112basic_stringIcNS3_11char_traitsIcEENS3_9allocatorIcEEEEEEEC1ERKSA_, symObjAddr: 0x5570, symBinAddr: 0x1000400A0, symSize: 0x60 }
  - { offset: 0x2C74C, size: 0x8, addend: 0x0, symName: __ZN7testing18PolymorphicMatcherINS_8internal18StrEqualityMatcherINSt3__112basic_stringIcNS3_11char_traitsIcEENS3_9allocatorIcEEEEEEEC2ERKSA_, symObjAddr: 0x55D0, symBinAddr: 0x100040100, symSize: 0x90 }
  - { offset: 0x2C785, size: 0x8, addend: 0x0, symName: __ZN7testing8internal18StrEqualityMatcherINSt3__112basic_stringIcNS2_11char_traitsIcEENS2_9allocatorIcEEEEEC1ERKS9_, symObjAddr: 0x5660, symBinAddr: 0x100040190, symSize: 0x60 }
  - { offset: 0x2C7BB, size: 0x8, addend: 0x0, symName: __ZN7testing8internal18StrEqualityMatcherINSt3__112basic_stringIcNS2_11char_traitsIcEENS2_9allocatorIcEEEEEC2ERKS9_, symObjAddr: 0x56C0, symBinAddr: 0x1000401F0, symSize: 0xB0 }
  - { offset: 0x2C7F1, size: 0x8, addend: 0x0, symName: __ZN7testing8internal18StrEqualityMatcherINSt3__112basic_stringIcNS2_11char_traitsIcEENS2_9allocatorIcEEEEEC2ES8_bb, symObjAddr: 0x5770, symBinAddr: 0x1000402A0, symSize: 0x1A0 }
  - { offset: 0x2C849, size: 0x8, addend: 0x0, symName: __ZN7testing8internal18StrEqualityMatcherINSt3__112basic_stringIcNS2_11char_traitsIcEENS2_9allocatorIcEEEEED2Ev, symObjAddr: 0x5910, symBinAddr: 0x100040440, symSize: 0x58 }
  - { offset: 0x2C876, size: 0x8, addend: 0x0, symName: __ZNK7testing8internal11MatcherBaseIRKNSt3__112basic_stringIcNS2_11char_traitsIcEENS2_9allocatorIcEEEEE7MatchesESA_, symObjAddr: 0x59D0, symBinAddr: 0x100040500, symSize: 0x300 }
  - { offset: 0x2C8BE, size: 0x8, addend: 0x0, symName: __ZNK7testing8internal11MatcherBaseIRKNSt3__112basic_stringIcNS2_11char_traitsIcEENS2_9allocatorIcEEEEE10DescribeToEPNS2_13basic_ostreamIcS5_EE, symObjAddr: 0x6100, symBinAddr: 0x100040800, symSize: 0x580 }
  - { offset: 0x2C914, size: 0x8, addend: 0x0, symName: __ZN7testing7MatcherIRKNSt3__112basic_stringIcNS1_11char_traitsIcEENS1_9allocatorIcEEEEED1Ev, symObjAddr: 0x7D80, symBinAddr: 0x100041C00, symSize: 0x58 }
  - { offset: 0x2C947, size: 0x8, addend: 0x0, symName: __ZN7testing8internal15MatcherCastImplIRKNSt3__112basic_stringIcNS2_11char_traitsIcEENS2_9allocatorIcEEEENS_18PolymorphicMatcherINS0_18StrEqualityMatcherIS8_EEEEE4CastERKSE_, symObjAddr: 0x7E48, symBinAddr: 0x100041CC8, symSize: 0x70 }
  - { offset: 0x2C96B, size: 0x8, addend: 0x0, symName: __ZN7testing8internal15MatcherCastImplIRKNSt3__112basic_stringIcNS2_11char_traitsIcEENS2_9allocatorIcEEEENS_18PolymorphicMatcherINS0_18StrEqualityMatcherIS8_EEEEE8CastImplILb0EEENS_7MatcherISA_EERKSE_NS2_17integral_constantIbLb1EEENSL_IbXT_EEE, symObjAddr: 0x7EB8, symBinAddr: 0x100041D38, symSize: 0x58 }
  - { offset: 0x2C9B1, size: 0x8, addend: 0x0, symName: __ZNK7testing18PolymorphicMatcherINS_8internal18StrEqualityMatcherINSt3__112basic_stringIcNS3_11char_traitsIcEENS3_9allocatorIcEEEEEEEcvNS_7MatcherIT_EEIRKS9_EEv, symObjAddr: 0x7F10, symBinAddr: 0x100041D90, symSize: 0x170 }
  - { offset: 0x2C9EF, size: 0x8, addend: 0x0, symName: __ZN7testing18PolymorphicMatcherINS_8internal18StrEqualityMatcherINSt3__112basic_stringIcNS3_11char_traitsIcEENS3_9allocatorIcEEEEEEE15MonomorphicImplIRKS9_EC1ERKSA_, symObjAddr: 0x8080, symBinAddr: 0x100041F00, symSize: 0x60 }
  - { offset: 0x2CA28, size: 0x8, addend: 0x0, symName: __ZN7testing7MatcherIRKNSt3__112basic_stringIcNS1_11char_traitsIcEENS1_9allocatorIcEEEEEC1EPKNS_16MatcherInterfaceIS9_EE, symObjAddr: 0x80E0, symBinAddr: 0x100041F60, symSize: 0x60 }
  - { offset: 0x2CA61, size: 0x8, addend: 0x0, symName: __ZN7testing18PolymorphicMatcherINS_8internal18StrEqualityMatcherINSt3__112basic_stringIcNS3_11char_traitsIcEENS3_9allocatorIcEEEEEEE15MonomorphicImplIRKS9_EC2ERKSA_, symObjAddr: 0x8140, symBinAddr: 0x100041FC0, symSize: 0x130 }
  - { offset: 0x2CA9F, size: 0x8, addend: 0x0, symName: __ZN7testing16MatcherInterfaceIRKNSt3__112basic_stringIcNS1_11char_traitsIcEENS1_9allocatorIcEEEEEC2Ev, symObjAddr: 0x8270, symBinAddr: 0x1000420F0, symSize: 0xC0 }
  - { offset: 0x2CACB, size: 0x8, addend: 0x0, symName: __ZN7testing16MatcherInterfaceIRKNSt3__112basic_stringIcNS1_11char_traitsIcEENS1_9allocatorIcEEEEED2Ev, symObjAddr: 0x8330, symBinAddr: 0x1000421B0, symSize: 0x50 }
  - { offset: 0x2CAF7, size: 0x8, addend: 0x0, symName: __ZN7testing18PolymorphicMatcherINS_8internal18StrEqualityMatcherINSt3__112basic_stringIcNS3_11char_traitsIcEENS3_9allocatorIcEEEEEEE15MonomorphicImplIRKS9_ED1Ev, symObjAddr: 0x8380, symBinAddr: 0x100042200, symSize: 0x50 }
  - { offset: 0x2CB24, size: 0x8, addend: 0x0, symName: __ZN7testing18PolymorphicMatcherINS_8internal18StrEqualityMatcherINSt3__112basic_stringIcNS3_11char_traitsIcEENS3_9allocatorIcEEEEEEE15MonomorphicImplIRKS9_ED0Ev, symObjAddr: 0x83D0, symBinAddr: 0x100042250, symSize: 0x60 }
  - { offset: 0x2CB51, size: 0x8, addend: 0x0, symName: __ZNK7testing18PolymorphicMatcherINS_8internal18StrEqualityMatcherINSt3__112basic_stringIcNS3_11char_traitsIcEENS3_9allocatorIcEEEEEEE15MonomorphicImplIRKS9_E10DescribeToEPNS3_13basic_ostreamIcS6_EE, symObjAddr: 0x8430, symBinAddr: 0x1000422B0, symSize: 0x120 }
  - { offset: 0x2CB86, size: 0x8, addend: 0x0, symName: __ZNK7testing18PolymorphicMatcherINS_8internal18StrEqualityMatcherINSt3__112basic_stringIcNS3_11char_traitsIcEENS3_9allocatorIcEEEEEEE15MonomorphicImplIRKS9_E18DescribeNegationToEPNS3_13basic_ostreamIcS6_EE, symObjAddr: 0x8550, symBinAddr: 0x1000423D0, symSize: 0x120 }
  - { offset: 0x2CBBB, size: 0x8, addend: 0x0, symName: __ZNK7testing18PolymorphicMatcherINS_8internal18StrEqualityMatcherINSt3__112basic_stringIcNS3_11char_traitsIcEENS3_9allocatorIcEEEEEEE15MonomorphicImplIRKS9_E15MatchAndExplainESE_PNS_19MatchResultListenerE, symObjAddr: 0x8670, symBinAddr: 0x1000424F0, symSize: 0x160 }
  - { offset: 0x2CBFF, size: 0x8, addend: 0x0, symName: __ZN7testing16MatcherInterfaceIRKNSt3__112basic_stringIcNS1_11char_traitsIcEENS1_9allocatorIcEEEEED1Ev, symObjAddr: 0x8860, symBinAddr: 0x100042650, symSize: 0x50 }
  - { offset: 0x2CC2B, size: 0x8, addend: 0x0, symName: __ZN7testing16MatcherInterfaceIRKNSt3__112basic_stringIcNS1_11char_traitsIcEENS1_9allocatorIcEEEEED0Ev, symObjAddr: 0x88B0, symBinAddr: 0x1000426A0, symSize: 0x50 }
  - { offset: 0x2CC57, size: 0x8, addend: 0x0, symName: __ZN7testing18PolymorphicMatcherINS_8internal18StrEqualityMatcherINSt3__112basic_stringIcNS3_11char_traitsIcEENS3_9allocatorIcEEEEEEE15MonomorphicImplIRKS9_ED2Ev, symObjAddr: 0x8BC0, symBinAddr: 0x1000426F0, symSize: 0xA0 }
  - { offset: 0x2CC84, size: 0x8, addend: 0x0, symName: __ZNK7testing8internal18StrEqualityMatcherINSt3__112basic_stringIcNS2_11char_traitsIcEENS2_9allocatorIcEEEEE10DescribeToEPNS2_13basic_ostreamIcS5_EE, symObjAddr: 0x8C60, symBinAddr: 0x100042790, symSize: 0xD0 }
  - { offset: 0x2CCB9, size: 0x8, addend: 0x0, symName: __ZNK7testing8internal18StrEqualityMatcherINSt3__112basic_stringIcNS2_11char_traitsIcEENS2_9allocatorIcEEEEE16DescribeToHelperEbPNS2_13basic_ostreamIcS5_EE, symObjAddr: 0x8D30, symBinAddr: 0x100042860, symSize: 0x218 }
  - { offset: 0x2CCFD, size: 0x8, addend: 0x0, symName: __ZNK7testing8internal18StrEqualityMatcherINSt3__112basic_stringIcNS2_11char_traitsIcEENS2_9allocatorIcEEEEE18DescribeNegationToEPNS2_13basic_ostreamIcS5_EE, symObjAddr: 0x9060, symBinAddr: 0x100042A80, symSize: 0xE0 }
  - { offset: 0x2CD32, size: 0x8, addend: 0x0, symName: __ZNK7testing8internal18StrEqualityMatcherINSt3__112basic_stringIcNS2_11char_traitsIcEENS2_9allocatorIcEEEEE15MatchAndExplainIS8_EEbRKT_PNS_19MatchResultListenerE, symObjAddr: 0x9140, symBinAddr: 0x100042B60, symSize: 0x4F8 }
  - { offset: 0x2CDA2, size: 0x8, addend: 0x0, symName: __ZNKSt3__112basic_stringIcNS_11char_traitsIcEENS_9allocatorIcEEE6substrB8ne180100Emm, symObjAddr: 0xA3A0, symBinAddr: 0x1000435C0, symSize: 0x230 }
  - { offset: 0x2CDE9, size: 0x8, addend: 0x0, symName: __ZNSt3__19allocatorIcEC1B8ne180100Ev, symObjAddr: 0xA5D0, symBinAddr: 0x1000437F0, symSize: 0x40 }
  - { offset: 0x2CE13, size: 0x8, addend: 0x0, symName: __ZN7testing7MatcherIRKNSt3__112basic_stringIcNS1_11char_traitsIcEENS1_9allocatorIcEEEEEC2EPKNS_16MatcherInterfaceIS9_EE, symObjAddr: 0xA610, symBinAddr: 0x100043830, symSize: 0xD0 }
  - { offset: 0x2CE4C, size: 0x8, addend: 0x0, symName: __ZN7testing8internal11MatcherBaseIRKNSt3__112basic_stringIcNS2_11char_traitsIcEENS2_9allocatorIcEEEEEC2ISA_EEPKNS_16MatcherInterfaceIT_EE, symObjAddr: 0xA6E0, symBinAddr: 0x100043900, symSize: 0x360 }
  - { offset: 0x2CE93, size: 0x8, addend: 0x0, symName: __ZN7testing7MatcherIRKNSt3__112basic_stringIcNS1_11char_traitsIcEENS1_9allocatorIcEEEEED0Ev, symObjAddr: 0xAA40, symBinAddr: 0x100043C60, symSize: 0x60 }
  - { offset: 0x2CEC0, size: 0x8, addend: 0x0, symName: __ZNK7testing8internal11MatcherBaseIRKNSt3__112basic_stringIcNS2_11char_traitsIcEENS2_9allocatorIcEEEEE18DescribeNegationToEPNS2_13basic_ostreamIcS5_EE, symObjAddr: 0xAAA0, symBinAddr: 0x100043CC0, symSize: 0x580 }
  - { offset: 0x2CEF6, size: 0x8, addend: 0x0, symName: __ZN7testing8internal11MatcherBaseIRKNSt3__112basic_stringIcNS2_11char_traitsIcEENS2_9allocatorIcEEEEE4InitIRPKNS_16MatcherInterfaceISA_EEEEvOT_, symObjAddr: 0xB020, symBinAddr: 0x100044240, symSize: 0x250 }
  - { offset: 0x2CF34, size: 0x8, addend: 0x0, symName: __ZN7testing8internal11MatcherBaseIRKNSt3__112basic_stringIcNS2_11char_traitsIcEENS2_9allocatorIcEEEEED1Ev, symObjAddr: 0xB270, symBinAddr: 0x100044490, symSize: 0x50 }
  - { offset: 0x2CF5E, size: 0x8, addend: 0x0, symName: __ZN7testing8internal11MatcherBaseIRKNSt3__112basic_stringIcNS2_11char_traitsIcEENS2_9allocatorIcEEEEED0Ev, symObjAddr: 0xB2C0, symBinAddr: 0x1000444E0, symSize: 0x60 }
  - { offset: 0x2CF88, size: 0x8, addend: 0x0, symName: __ZN7testing8internal11MatcherBaseIRKNSt3__112basic_stringIcNS2_11char_traitsIcEENS2_9allocatorIcEEEEE11ValuePolicyIPKNS_16MatcherInterfaceISA_EELb1EE4InitERSB_SG_, symObjAddr: 0xB378, symBinAddr: 0x100044598, symSize: 0x330 }
  - { offset: 0x2CFBD, size: 0x8, addend: 0x0, symName: __ZN7testing8internal11MatcherBaseIRKNSt3__112basic_stringIcNS2_11char_traitsIcEENS2_9allocatorIcEEEEE19MatchAndExplainImplINSB_11ValuePolicyIPKNS_16MatcherInterfaceISA_EELb1EEEEEDTcldtclsrT_3Getfp_E15MatchAndExplainfp0_fp1_EERKSB_SA_PNS_19MatchResultListenerE, symObjAddr: 0xB6A8, symBinAddr: 0x1000448C8, symSize: 0x1F0 }
  - { offset: 0x2D008, size: 0x8, addend: 0x0, symName: __ZN7testing8internal11MatcherBaseIRKNSt3__112basic_stringIcNS2_11char_traitsIcEENS2_9allocatorIcEEEEE12DescribeImplINSB_11ValuePolicyIPKNS_16MatcherInterfaceISA_EELb1EEEEEvRKSB_PNS2_13basic_ostreamIcS5_EEb, symObjAddr: 0xB898, symBinAddr: 0x100044AB8, symSize: 0x3B0 }
  - { offset: 0x2D053, size: 0x8, addend: 0x0, symName: __ZN7testing8internal11MatcherBaseIRKNSt3__112basic_stringIcNS2_11char_traitsIcEENS2_9allocatorIcEEEEE16GetDescriberImplINSB_11ValuePolicyIPKNS_16MatcherInterfaceISA_EELb1EEEEEPKNS_25MatcherDescriberInterfaceERKSB_, symObjAddr: 0xBC48, symBinAddr: 0x100044E68, symSize: 0x2A0 }
  - { offset: 0x2D081, size: 0x8, addend: 0x0, symName: __ZN7testing8internal13SharedPayloadINSt3__110unique_ptrIKNS_16MatcherInterfaceIRKNS2_12basic_stringIcNS2_11char_traitsIcEENS2_9allocatorIcEEEEEENS2_14default_deleteISE_EEEEE7DestroyEPNS0_17SharedPayloadBaseE, symObjAddr: 0xBEE8, symBinAddr: 0x100045108, symSize: 0xB0 }
  - { offset: 0x2D0A4, size: 0x8, addend: 0x0, symName: __ZN7testing8internal11MatcherBaseIRKNSt3__112basic_stringIcNS2_11char_traitsIcEENS2_9allocatorIcEEEEE11ValuePolicyIPKNS_16MatcherInterfaceISA_EELb1EE3GetERKSB_, symObjAddr: 0xBF98, symBinAddr: 0x1000451B8, symSize: 0x188 }
  - { offset: 0x2D0C8, size: 0x8, addend: 0x0, symName: __ZNKSt3__110unique_ptrIKN7testing16MatcherInterfaceIRKNS_12basic_stringIcNS_11char_traitsIcEENS_9allocatorIcEEEEEENS_14default_deleteISC_EEEdeB8ne180100Ev, symObjAddr: 0xC120, symBinAddr: 0x100045340, symSize: 0x120 }
  - { offset: 0x2D0EE, size: 0x8, addend: 0x0, symName: __ZNKSt3__117__compressed_pairIPKN7testing16MatcherInterfaceIRKNS_12basic_stringIcNS_11char_traitsIcEENS_9allocatorIcEEEEEENS_14default_deleteISC_EEE5firstB8ne180100Ev, symObjAddr: 0xC240, symBinAddr: 0x100045460, symSize: 0xE0 }
  - { offset: 0x2D114, size: 0x8, addend: 0x0, symName: __ZNKSt3__122__compressed_pair_elemIPKN7testing16MatcherInterfaceIRKNS_12basic_stringIcNS_11char_traitsIcEENS_9allocatorIcEEEEEELi0ELb0EE5__getB8ne180100Ev, symObjAddr: 0xC320, symBinAddr: 0x100045540, symSize: 0x88 }
  - { offset: 0x2D15B, size: 0x8, addend: 0x0, symName: __ZNSt3__112__tuple_leafILm1EPKN7testing16MatcherInterfaceIRKNS_12basic_stringIcNS_11char_traitsIcEENS_9allocatorIcEEEEEELb0EE3getB8ne180100Ev, symObjAddr: 0xC640, symBinAddr: 0x100045860, symSize: 0x80 }
  - { offset: 0x2D201, size: 0x8, addend: 0x0, symName: __ZNSt3__15tupleIJPKN7testing8internal11MatcherBaseIRKNS_12basic_stringIcNS_11char_traitsIcEENS_9allocatorIcEEEEEEPKNS1_16MatcherInterfaceISB_EEEEC1B8ne180100IJSE_SI_ETnNS_9enable_ifIXsr4_AndINS_17integral_constantIbXeqsZT_sZT_EEENSJ_17_EnableUTypesCtorIJDpT_EEEEE5valueEiE4typeELi0EEEDpOSP_, symObjAddr: 0xC6C0, symBinAddr: 0x1000458E0, symSize: 0x60 }
  - { offset: 0x2D25F, size: 0x8, addend: 0x0, symName: __ZNSt3__15tupleIJPKN7testing8internal11MatcherBaseIRKNS_12basic_stringIcNS_11char_traitsIcEENS_9allocatorIcEEEEEEPKNS1_16MatcherInterfaceISB_EEEEC2B8ne180100IJSE_SI_ETnNS_9enable_ifIXsr4_AndINS_17integral_constantIbXeqsZT_sZT_EEENSJ_17_EnableUTypesCtorIJDpT_EEEEE5valueEiE4typeELi0EEEDpOSP_, symObjAddr: 0xC720, symBinAddr: 0x100045940, symSize: 0xD0 }
  - { offset: 0x2D2BD, size: 0x8, addend: 0x0, symName: __ZNSt3__112__tuple_implINS_15__tuple_indicesIJLm0ELm1EEEEJPKN7testing8internal11MatcherBaseIRKNS_12basic_stringIcNS_11char_traitsIcEENS_9allocatorIcEEEEEEPKNS3_16MatcherInterfaceISD_EEEEC1B8ne180100IJLm0ELm1EEJSG_SK_ETpTnmJEJEJSG_SK_EEENS1_IJXspT_EEEENS_13__tuple_typesIJDpT0_EEENS1_IJXspT1_EEEENSO_IJDpT2_EEEDpOT3_, symObjAddr: 0xC7F0, symBinAddr: 0x100045A10, symSize: 0x60 }
  - { offset: 0x2D373, size: 0x8, addend: 0x0, symName: __ZNSt3__112__tuple_implINS_15__tuple_indicesIJLm0ELm1EEEEJPKN7testing8internal11MatcherBaseIRKNS_12basic_stringIcNS_11char_traitsIcEENS_9allocatorIcEEEEEEPKNS3_16MatcherInterfaceISD_EEEEC2B8ne180100IJLm0ELm1EEJSG_SK_ETpTnmJEJEJSG_SK_EEENS1_IJXspT_EEEENS_13__tuple_typesIJDpT0_EEENS1_IJXspT1_EEEENSO_IJDpT2_EEEDpOT3_, symObjAddr: 0xC850, symBinAddr: 0x100045A70, symSize: 0x140 }
  - { offset: 0x2D429, size: 0x8, addend: 0x0, symName: __ZNSt3__112__tuple_leafILm0EPKN7testing8internal11MatcherBaseIRKNS_12basic_stringIcNS_11char_traitsIcEENS_9allocatorIcEEEEEELb0EEC2B8ne180100ISE_vEEOT_, symObjAddr: 0xC990, symBinAddr: 0x100045BB0, symSize: 0xF0 }
  - { offset: 0x2D46C, size: 0x8, addend: 0x0, symName: __ZNSt3__112__tuple_leafILm1EPKN7testing16MatcherInterfaceIRKNS_12basic_stringIcNS_11char_traitsIcEENS_9allocatorIcEEEEEELb0EEC2B8ne180100ISD_vEEOT_, symObjAddr: 0xCA80, symBinAddr: 0x100045CA0, symSize: 0xF0 }
  - { offset: 0x2D4AF, size: 0x8, addend: 0x0, symName: __ZN7testing8internal13SharedPayloadINSt3__110unique_ptrIKNS_16MatcherInterfaceIRKNS2_12basic_stringIcNS2_11char_traitsIcEENS2_9allocatorIcEEEEEENS2_14default_deleteISE_EEEEED1Ev, symObjAddr: 0xCB70, symBinAddr: 0x100045D90, symSize: 0x50 }
  - { offset: 0x2D4DB, size: 0x8, addend: 0x0, symName: __ZN7testing8internal13SharedPayloadINSt3__110unique_ptrIKNS_16MatcherInterfaceIRKNS2_12basic_stringIcNS2_11char_traitsIcEENS2_9allocatorIcEEEEEENS2_14default_deleteISE_EEEEED2Ev, symObjAddr: 0xCBC0, symBinAddr: 0x100045DE0, symSize: 0x60 }
  - { offset: 0x2D507, size: 0x8, addend: 0x0, symName: __ZNSt3__110unique_ptrIKN7testing16MatcherInterfaceIRKNS_12basic_stringIcNS_11char_traitsIcEENS_9allocatorIcEEEEEENS_14default_deleteISC_EEED1B8ne180100Ev, symObjAddr: 0xCC20, symBinAddr: 0x100045E40, symSize: 0x50 }
  - { offset: 0x2D531, size: 0x8, addend: 0x0, symName: __ZNSt3__110unique_ptrIKN7testing16MatcherInterfaceIRKNS_12basic_stringIcNS_11char_traitsIcEENS_9allocatorIcEEEEEENS_14default_deleteISC_EEED2B8ne180100Ev, symObjAddr: 0xCC70, symBinAddr: 0x100045E90, symSize: 0x60 }
  - { offset: 0x2D55B, size: 0x8, addend: 0x0, symName: __ZNSt3__110unique_ptrIKN7testing16MatcherInterfaceIRKNS_12basic_stringIcNS_11char_traitsIcEENS_9allocatorIcEEEEEENS_14default_deleteISC_EEE5resetB8ne180100EPSC_, symObjAddr: 0xCCD0, symBinAddr: 0x100045EF0, symSize: 0x210 }
  - { offset: 0x2D59F, size: 0x8, addend: 0x0, symName: __ZNSt3__117__compressed_pairIPKN7testing16MatcherInterfaceIRKNS_12basic_stringIcNS_11char_traitsIcEENS_9allocatorIcEEEEEENS_14default_deleteISC_EEE5firstB8ne180100Ev, symObjAddr: 0xCEE0, symBinAddr: 0x100046100, symSize: 0xE0 }
  - { offset: 0x2D5C5, size: 0x8, addend: 0x0, symName: __ZNSt3__117__compressed_pairIPKN7testing16MatcherInterfaceIRKNS_12basic_stringIcNS_11char_traitsIcEENS_9allocatorIcEEEEEENS_14default_deleteISC_EEE6secondB8ne180100Ev, symObjAddr: 0xCFC0, symBinAddr: 0x1000461E0, symSize: 0xC0 }
  - { offset: 0x2D5EB, size: 0x8, addend: 0x0, symName: __ZNKSt3__114default_deleteIKN7testing16MatcherInterfaceIRKNS_12basic_stringIcNS_11char_traitsIcEENS_9allocatorIcEEEEEEEclB8ne180100EPSC_, symObjAddr: 0xD080, symBinAddr: 0x1000462A0, symSize: 0x190 }
  - { offset: 0x2D61F, size: 0x8, addend: 0x0, symName: __ZNSt3__122__compressed_pair_elemIPKN7testing16MatcherInterfaceIRKNS_12basic_stringIcNS_11char_traitsIcEENS_9allocatorIcEEEEEELi0ELb0EE5__getB8ne180100Ev, symObjAddr: 0xD210, symBinAddr: 0x100046430, symSize: 0x80 }
  - { offset: 0x2D645, size: 0x8, addend: 0x0, symName: __ZNSt3__122__compressed_pair_elemINS_14default_deleteIKN7testing16MatcherInterfaceIRKNS_12basic_stringIcNS_11char_traitsIcEENS_9allocatorIcEEEEEEEELi1ELb1EE5__getB8ne180100Ev, symObjAddr: 0xD290, symBinAddr: 0x1000464B0, symSize: 0x60 }
  - { offset: 0x2D66B, size: 0x8, addend: 0x0, symName: __ZNSt3__110unique_ptrIKN7testing16MatcherInterfaceIRKNS_12basic_stringIcNS_11char_traitsIcEENS_9allocatorIcEEEEEENS_14default_deleteISC_EEEC1B8ne180100ILb1EvEEPSC_, symObjAddr: 0xD2F0, symBinAddr: 0x100046510, symSize: 0x60 }
  - { offset: 0x2D6AE, size: 0x8, addend: 0x0, symName: __ZN7testing8internal13SharedPayloadINSt3__110unique_ptrIKNS_16MatcherInterfaceIRKNS2_12basic_stringIcNS2_11char_traitsIcEENS2_9allocatorIcEEEEEENS2_14default_deleteISE_EEEEEC1EOSH_, symObjAddr: 0xD350, symBinAddr: 0x100046570, symSize: 0x60 }
  - { offset: 0x2D6E6, size: 0x8, addend: 0x0, symName: __ZNSt3__110unique_ptrIKN7testing16MatcherInterfaceIRKNS_12basic_stringIcNS_11char_traitsIcEENS_9allocatorIcEEEEEENS_14default_deleteISC_EEEC2B8ne180100ILb1EvEEPSC_, symObjAddr: 0xD3B0, symBinAddr: 0x1000465D0, symSize: 0x1D0 }
  - { offset: 0x2D734, size: 0x8, addend: 0x0, symName: __ZNSt3__117__compressed_pairIPKN7testing16MatcherInterfaceIRKNS_12basic_stringIcNS_11char_traitsIcEENS_9allocatorIcEEEEEENS_14default_deleteISC_EEEC1B8ne180100IRSD_NS_16__value_init_tagEEEOT_OT0_, symObjAddr: 0xD580, symBinAddr: 0x1000467A0, symSize: 0x60 }
  - { offset: 0x2D78C, size: 0x8, addend: 0x0, symName: __ZNSt3__117__compressed_pairIPKN7testing16MatcherInterfaceIRKNS_12basic_stringIcNS_11char_traitsIcEENS_9allocatorIcEEEEEENS_14default_deleteISC_EEEC2B8ne180100IRSD_NS_16__value_init_tagEEEOT_OT0_, symObjAddr: 0xD5E0, symBinAddr: 0x100046800, symSize: 0xF0 }
  - { offset: 0x2D7E4, size: 0x8, addend: 0x0, symName: __ZNSt3__122__compressed_pair_elemIPKN7testing16MatcherInterfaceIRKNS_12basic_stringIcNS_11char_traitsIcEENS_9allocatorIcEEEEEELi0ELb0EEC2B8ne180100IRSD_vEEOT_, symObjAddr: 0xD6D0, symBinAddr: 0x1000468F0, symSize: 0xF0 }
  - { offset: 0x2D826, size: 0x8, addend: 0x0, symName: __ZNSt3__122__compressed_pair_elemINS_14default_deleteIKN7testing16MatcherInterfaceIRKNS_12basic_stringIcNS_11char_traitsIcEENS_9allocatorIcEEEEEEEELi1ELb1EEC2B8ne180100ENS_16__value_init_tagE, symObjAddr: 0xD7C0, symBinAddr: 0x1000469E0, symSize: 0x40 }
  - { offset: 0x2D85B, size: 0x8, addend: 0x0, symName: __ZN7testing8internal13SharedPayloadINSt3__110unique_ptrIKNS_16MatcherInterfaceIRKNS2_12basic_stringIcNS2_11char_traitsIcEENS2_9allocatorIcEEEEEENS2_14default_deleteISE_EEEEEC2EOSH_, symObjAddr: 0xD800, symBinAddr: 0x100046A20, symSize: 0xD0 }
  - { offset: 0x2D893, size: 0x8, addend: 0x0, symName: __ZNSt3__110unique_ptrIKN7testing16MatcherInterfaceIRKNS_12basic_stringIcNS_11char_traitsIcEENS_9allocatorIcEEEEEENS_14default_deleteISC_EEEC1B8ne180100EOSF_, symObjAddr: 0xD930, symBinAddr: 0x100046AF0, symSize: 0x60 }
  - { offset: 0x2D8CB, size: 0x8, addend: 0x0, symName: __ZNSt3__110unique_ptrIKN7testing16MatcherInterfaceIRKNS_12basic_stringIcNS_11char_traitsIcEENS_9allocatorIcEEEEEENS_14default_deleteISC_EEEC2B8ne180100EOSF_, symObjAddr: 0xDD00, symBinAddr: 0x100046B50, symSize: 0x230 }
  - { offset: 0x2D905, size: 0x8, addend: 0x0, symName: __ZNSt3__110unique_ptrIKN7testing16MatcherInterfaceIRKNS_12basic_stringIcNS_11char_traitsIcEENS_9allocatorIcEEEEEENS_14default_deleteISC_EEE7releaseB8ne180100Ev, symObjAddr: 0xDF30, symBinAddr: 0x100046D80, symSize: 0x190 }
  - { offset: 0x2D93A, size: 0x8, addend: 0x0, symName: __ZNSt3__110unique_ptrIKN7testing16MatcherInterfaceIRKNS_12basic_stringIcNS_11char_traitsIcEENS_9allocatorIcEEEEEENS_14default_deleteISC_EEE11get_deleterB8ne180100Ev, symObjAddr: 0xE0C0, symBinAddr: 0x100046F10, symSize: 0xB0 }
  - { offset: 0x2D966, size: 0x8, addend: 0x0, symName: __ZNSt3__117__compressed_pairIPKN7testing16MatcherInterfaceIRKNS_12basic_stringIcNS_11char_traitsIcEENS_9allocatorIcEEEEEENS_14default_deleteISC_EEEC1B8ne180100ISD_SF_EEOT_OT0_, symObjAddr: 0xE170, symBinAddr: 0x100046FC0, symSize: 0x60 }
  - { offset: 0x2D9BE, size: 0x8, addend: 0x0, symName: __ZNSt3__117__compressed_pairIPKN7testing16MatcherInterfaceIRKNS_12basic_stringIcNS_11char_traitsIcEENS_9allocatorIcEEEEEENS_14default_deleteISC_EEEC2B8ne180100ISD_SF_EEOT_OT0_, symObjAddr: 0xE1D0, symBinAddr: 0x100047020, symSize: 0x110 }
  - { offset: 0x2DA16, size: 0x8, addend: 0x0, symName: __ZNSt3__122__compressed_pair_elemIPKN7testing16MatcherInterfaceIRKNS_12basic_stringIcNS_11char_traitsIcEENS_9allocatorIcEEEEEELi0ELb0EEC2B8ne180100ISD_vEEOT_, symObjAddr: 0xE2E0, symBinAddr: 0x100047130, symSize: 0xF0 }
  - { offset: 0x2DA58, size: 0x8, addend: 0x0, symName: __ZNSt3__122__compressed_pair_elemINS_14default_deleteIKN7testing16MatcherInterfaceIRKNS_12basic_stringIcNS_11char_traitsIcEENS_9allocatorIcEEEEEEEELi1ELb1EEC2B8ne180100ISE_vEEOT_, symObjAddr: 0xE3D0, symBinAddr: 0x100047220, symSize: 0x40 }
  - { offset: 0x2DA9A, size: 0x8, addend: 0x0, symName: __ZN7testing8internal11MatcherBaseIRKNSt3__112basic_stringIcNS2_11char_traitsIcEENS2_9allocatorIcEEEEED2Ev, symObjAddr: 0xE410, symBinAddr: 0x100047260, symSize: 0x130 }
  - { offset: 0x2DAC4, size: 0x8, addend: 0x0, symName: __ZN7testing8internal11MatcherBaseIRKNSt3__112basic_stringIcNS2_11char_traitsIcEENS2_9allocatorIcEEEEE7DestroyEv, symObjAddr: 0xE540, symBinAddr: 0x100047390, symSize: 0x4A0 }
  - { offset: 0x2DAEA, size: 0x8, addend: 0x0, symName: __ZNK7testing8internal11MatcherBaseIRKNSt3__112basic_stringIcNS2_11char_traitsIcEENS2_9allocatorIcEEEEE8IsSharedEv, symObjAddr: 0xE9E0, symBinAddr: 0x100047830, symSize: 0x280 }
  - { offset: 0x2DB10, size: 0x8, addend: 0x0, symName: __ZNK7testing8internal11MatcherBaseIRKNSt3__112basic_stringIcNS2_11char_traitsIcEENS2_9allocatorIcEEEEE15MatchAndExplainESA_PNS_19MatchResultListenerE, symObjAddr: 0xF100, symBinAddr: 0x100047AB0, symSize: 0x5B0 }
  - { offset: 0x2DBC1, size: 0x8, addend: 0x0, symName: __ZN7testing7MatcherIRKNSt3__112basic_stringIcNS1_11char_traitsIcEENS1_9allocatorIcEEEEED2Ev, symObjAddr: 0x19CC0, symBinAddr: 0x1000480B0, symSize: 0x50 }
  - { offset: 0x2DBEE, size: 0x8, addend: 0x0, symName: __ZN7testing8internal29PredicateFormatterFromMatcherINS_18PolymorphicMatcherINS0_18StrEqualityMatcherINSt3__112basic_stringIcNS4_11char_traitsIcEENS4_9allocatorIcEEEEEEEEED2Ev, symObjAddr: 0x19D10, symBinAddr: 0x100048100, symSize: 0x50 }
  - { offset: 0x2DC1B, size: 0x8, addend: 0x0, symName: __ZN7testing18PolymorphicMatcherINS_8internal18StrEqualityMatcherINSt3__112basic_stringIcNS3_11char_traitsIcEENS3_9allocatorIcEEEEEEED2Ev, symObjAddr: 0x19D60, symBinAddr: 0x100048150, symSize: 0x50 }
  - { offset: 0x2DC48, size: 0x8, addend: 0x0, symName: __ZN7testing8internal15TestFactoryImplIN12_GLOBAL__N_130CleanToken_PrefixCleaning_TestEEC2Ev, symObjAddr: 0x1A6C0, symBinAddr: 0x1000481A0, symSize: 0xC0 }
  - { offset: 0x2DC75, size: 0x8, addend: 0x0, symName: __ZN7testing8internal15TestFactoryImplIN12_GLOBAL__N_130CleanToken_PrefixCleaning_TestEED1Ev, symObjAddr: 0x1A780, symBinAddr: 0x100048260, symSize: 0x50 }
  - { offset: 0x2DCA2, size: 0x8, addend: 0x0, symName: __ZN7testing8internal15TestFactoryImplIN12_GLOBAL__N_130CleanToken_PrefixCleaning_TestEED0Ev, symObjAddr: 0x1A7D0, symBinAddr: 0x1000482B0, symSize: 0x60 }
  - { offset: 0x2DCCF, size: 0x8, addend: 0x0, symName: __ZN7testing8internal15TestFactoryImplIN12_GLOBAL__N_130CleanToken_PrefixCleaning_TestEE10CreateTestEv, symObjAddr: 0x1A830, symBinAddr: 0x100048310, symSize: 0xF0 }
  - { offset: 0x2DCF5, size: 0x8, addend: 0x0, symName: __ZN7testing8internal15TestFactoryImplIN12_GLOBAL__N_130CleanToken_PrefixCleaning_TestEED2Ev, symObjAddr: 0x1A920, symBinAddr: 0x100048400, symSize: 0x50 }
  - { offset: 0x2DD22, size: 0x8, addend: 0x0, symName: __ZN12_GLOBAL__N_130CleanToken_PrefixCleaning_TestC1Ev, symObjAddr: 0x1A970, symBinAddr: 0x100048450, symSize: 0x50 }
  - { offset: 0x2DD4C, size: 0x8, addend: 0x0, symName: __ZN12_GLOBAL__N_130CleanToken_PrefixCleaning_TestC2Ev, symObjAddr: 0x1A9C0, symBinAddr: 0x1000484A0, symSize: 0xC0 }
  - { offset: 0x2DD76, size: 0x8, addend: 0x0, symName: __ZN12_GLOBAL__N_130CleanToken_PrefixCleaning_TestD1Ev, symObjAddr: 0x1AA80, symBinAddr: 0x100048560, symSize: 0x50 }
  - { offset: 0x2DDA0, size: 0x8, addend: 0x0, symName: __ZN12_GLOBAL__N_130CleanToken_PrefixCleaning_TestD0Ev, symObjAddr: 0x1AAD0, symBinAddr: 0x1000485B0, symSize: 0x60 }
  - { offset: 0x2DDCA, size: 0x8, addend: 0x0, symName: __ZN12_GLOBAL__N_130CleanToken_PrefixCleaning_Test8TestBodyEv, symObjAddr: 0x1AB30, symBinAddr: 0x100048610, symSize: 0x1D60 }
  - { offset: 0x2DE8C, size: 0x8, addend: 0x0, symName: __ZN12_GLOBAL__N_130CleanToken_PrefixCleaning_TestD2Ev, symObjAddr: 0x1C890, symBinAddr: 0x10004A370, symSize: 0x58 }
  - { offset: 0x2DEB6, size: 0x8, addend: 0x0, symName: __ZN7testing8internal15TestFactoryImplIN12_GLOBAL__N_130CleanToken_SuffixCleaning_TestEEC2Ev, symObjAddr: 0x1CEE0, symBinAddr: 0x10004A9C0, symSize: 0xC0 }
  - { offset: 0x2DEE3, size: 0x8, addend: 0x0, symName: __ZN7testing8internal15TestFactoryImplIN12_GLOBAL__N_130CleanToken_SuffixCleaning_TestEED1Ev, symObjAddr: 0x1CFA0, symBinAddr: 0x10004AA80, symSize: 0x50 }
  - { offset: 0x2DF10, size: 0x8, addend: 0x0, symName: __ZN7testing8internal15TestFactoryImplIN12_GLOBAL__N_130CleanToken_SuffixCleaning_TestEED0Ev, symObjAddr: 0x1CFF0, symBinAddr: 0x10004AAD0, symSize: 0x60 }
  - { offset: 0x2DF3D, size: 0x8, addend: 0x0, symName: __ZN7testing8internal15TestFactoryImplIN12_GLOBAL__N_130CleanToken_SuffixCleaning_TestEE10CreateTestEv, symObjAddr: 0x1D050, symBinAddr: 0x10004AB30, symSize: 0xF0 }
  - { offset: 0x2DF63, size: 0x8, addend: 0x0, symName: __ZN7testing8internal15TestFactoryImplIN12_GLOBAL__N_130CleanToken_SuffixCleaning_TestEED2Ev, symObjAddr: 0x1D140, symBinAddr: 0x10004AC20, symSize: 0x50 }
  - { offset: 0x2DF90, size: 0x8, addend: 0x0, symName: __ZN12_GLOBAL__N_130CleanToken_SuffixCleaning_TestC1Ev, symObjAddr: 0x1D190, symBinAddr: 0x10004AC70, symSize: 0x50 }
  - { offset: 0x2DFBA, size: 0x8, addend: 0x0, symName: __ZN12_GLOBAL__N_130CleanToken_SuffixCleaning_TestC2Ev, symObjAddr: 0x1D1E0, symBinAddr: 0x10004ACC0, symSize: 0xC0 }
  - { offset: 0x2DFE4, size: 0x8, addend: 0x0, symName: __ZN12_GLOBAL__N_130CleanToken_SuffixCleaning_TestD1Ev, symObjAddr: 0x1D2A0, symBinAddr: 0x10004AD80, symSize: 0x50 }
  - { offset: 0x2E00E, size: 0x8, addend: 0x0, symName: __ZN12_GLOBAL__N_130CleanToken_SuffixCleaning_TestD0Ev, symObjAddr: 0x1D2F0, symBinAddr: 0x10004ADD0, symSize: 0x60 }
  - { offset: 0x2E038, size: 0x8, addend: 0x0, symName: __ZN12_GLOBAL__N_130CleanToken_SuffixCleaning_Test8TestBodyEv, symObjAddr: 0x1D350, symBinAddr: 0x10004AE30, symSize: 0x1D60 }
  - { offset: 0x2E0FA, size: 0x8, addend: 0x0, symName: __ZN12_GLOBAL__N_130CleanToken_SuffixCleaning_TestD2Ev, symObjAddr: 0x1F0B0, symBinAddr: 0x10004CB90, symSize: 0x50 }
  - { offset: 0x2E124, size: 0x8, addend: 0x0, symName: __ZN7testing8internal15TestFactoryImplIN12_GLOBAL__N_123CleanToken_ToEmpty_TestEEC2Ev, symObjAddr: 0x1F100, symBinAddr: 0x10004CBE0, symSize: 0xC0 }
  - { offset: 0x2E151, size: 0x8, addend: 0x0, symName: __ZN7testing8internal15TestFactoryImplIN12_GLOBAL__N_123CleanToken_ToEmpty_TestEED1Ev, symObjAddr: 0x1F1C0, symBinAddr: 0x10004CCA0, symSize: 0x50 }
  - { offset: 0x2E17E, size: 0x8, addend: 0x0, symName: __ZN7testing8internal15TestFactoryImplIN12_GLOBAL__N_123CleanToken_ToEmpty_TestEED0Ev, symObjAddr: 0x1F210, symBinAddr: 0x10004CCF0, symSize: 0x60 }
  - { offset: 0x2E1AB, size: 0x8, addend: 0x0, symName: __ZN7testing8internal15TestFactoryImplIN12_GLOBAL__N_123CleanToken_ToEmpty_TestEE10CreateTestEv, symObjAddr: 0x1F270, symBinAddr: 0x10004CD50, symSize: 0xF0 }
  - { offset: 0x2E1D1, size: 0x8, addend: 0x0, symName: __ZN7testing8internal15TestFactoryImplIN12_GLOBAL__N_123CleanToken_ToEmpty_TestEED2Ev, symObjAddr: 0x1F360, symBinAddr: 0x10004CE40, symSize: 0x50 }
  - { offset: 0x2E1FE, size: 0x8, addend: 0x0, symName: __ZN12_GLOBAL__N_123CleanToken_ToEmpty_TestC1Ev, symObjAddr: 0x1F3B0, symBinAddr: 0x10004CE90, symSize: 0x50 }
  - { offset: 0x2E228, size: 0x8, addend: 0x0, symName: __ZN12_GLOBAL__N_123CleanToken_ToEmpty_TestC2Ev, symObjAddr: 0x1F400, symBinAddr: 0x10004CEE0, symSize: 0xC0 }
  - { offset: 0x2E252, size: 0x8, addend: 0x0, symName: __ZN12_GLOBAL__N_123CleanToken_ToEmpty_TestD1Ev, symObjAddr: 0x1F4C0, symBinAddr: 0x10004CFA0, symSize: 0x50 }
  - { offset: 0x2E27C, size: 0x8, addend: 0x0, symName: __ZN12_GLOBAL__N_123CleanToken_ToEmpty_TestD0Ev, symObjAddr: 0x1F510, symBinAddr: 0x10004CFF0, symSize: 0x60 }
  - { offset: 0x2E2A6, size: 0x8, addend: 0x0, symName: __ZN12_GLOBAL__N_123CleanToken_ToEmpty_Test8TestBodyEv, symObjAddr: 0x1F570, symBinAddr: 0x10004D050, symSize: 0x1870 }
  - { offset: 0x2E34E, size: 0x8, addend: 0x0, symName: __ZN12_GLOBAL__N_123CleanToken_ToEmpty_TestD2Ev, symObjAddr: 0x20DE0, symBinAddr: 0x10004E8C0, symSize: 0x58 }
  - { offset: 0x2E378, size: 0x8, addend: 0x0, symName: __ZN7testing8internal15TestFactoryImplIN12_GLOBAL__N_125CleanToken_Uppercase_TestEEC2Ev, symObjAddr: 0x21130, symBinAddr: 0x10004EC10, symSize: 0xC0 }
  - { offset: 0x2E3A5, size: 0x8, addend: 0x0, symName: __ZN7testing8internal15TestFactoryImplIN12_GLOBAL__N_125CleanToken_Uppercase_TestEED1Ev, symObjAddr: 0x211F0, symBinAddr: 0x10004ECD0, symSize: 0x50 }
  - { offset: 0x2E3D2, size: 0x8, addend: 0x0, symName: __ZN7testing8internal15TestFactoryImplIN12_GLOBAL__N_125CleanToken_Uppercase_TestEED0Ev, symObjAddr: 0x21240, symBinAddr: 0x10004ED20, symSize: 0x60 }
  - { offset: 0x2E3FF, size: 0x8, addend: 0x0, symName: __ZN7testing8internal15TestFactoryImplIN12_GLOBAL__N_125CleanToken_Uppercase_TestEE10CreateTestEv, symObjAddr: 0x212A0, symBinAddr: 0x10004ED80, symSize: 0xF0 }
  - { offset: 0x2E425, size: 0x8, addend: 0x0, symName: __ZN7testing8internal15TestFactoryImplIN12_GLOBAL__N_125CleanToken_Uppercase_TestEED2Ev, symObjAddr: 0x21390, symBinAddr: 0x10004EE70, symSize: 0x50 }
  - { offset: 0x2E452, size: 0x8, addend: 0x0, symName: __ZN12_GLOBAL__N_125CleanToken_Uppercase_TestC1Ev, symObjAddr: 0x213E0, symBinAddr: 0x10004EEC0, symSize: 0x50 }
  - { offset: 0x2E47C, size: 0x8, addend: 0x0, symName: __ZN12_GLOBAL__N_125CleanToken_Uppercase_TestC2Ev, symObjAddr: 0x21430, symBinAddr: 0x10004EF10, symSize: 0xC0 }
  - { offset: 0x2E4A6, size: 0x8, addend: 0x0, symName: __ZN12_GLOBAL__N_125CleanToken_Uppercase_TestD1Ev, symObjAddr: 0x214F0, symBinAddr: 0x10004EFD0, symSize: 0x50 }
  - { offset: 0x2E4D0, size: 0x8, addend: 0x0, symName: __ZN12_GLOBAL__N_125CleanToken_Uppercase_TestD0Ev, symObjAddr: 0x21540, symBinAddr: 0x10004F020, symSize: 0x60 }
  - { offset: 0x2E4FA, size: 0x8, addend: 0x0, symName: __ZN12_GLOBAL__N_125CleanToken_Uppercase_Test8TestBodyEv, symObjAddr: 0x215A0, symBinAddr: 0x10004F080, symSize: 0x1D60 }
  - { offset: 0x2E5BC, size: 0x8, addend: 0x0, symName: __ZN12_GLOBAL__N_125CleanToken_Uppercase_TestD2Ev, symObjAddr: 0x23300, symBinAddr: 0x100050DE0, symSize: 0x58 }
  - { offset: 0x3060E, size: 0x8, addend: 0x0, symName: _.str, symObjAddr: 0x41440, symBinAddr: 0x1001CF240, symSize: 0x0 }
  - { offset: 0x3063E, size: 0x8, addend: 0x0, symName: _.str.1, symObjAddr: 0x41460, symBinAddr: 0x1001CF260, symSize: 0x0 }
  - { offset: 0x3065B, size: 0x8, addend: 0x0, symName: _.str.2, symObjAddr: 0x41480, symBinAddr: 0x1001CF280, symSize: 0x0 }
  - { offset: 0x30678, size: 0x8, addend: 0x0, symName: _.str.3, symObjAddr: 0x414A0, symBinAddr: 0x1001CF2A0, symSize: 0x0 }
  - { offset: 0x30689, size: 0x8, addend: 0x0, symName: _.str.4, symObjAddr: 0x414C0, symBinAddr: 0x1001CF2C0, symSize: 0x0 }
  - { offset: 0x306A6, size: 0x8, addend: 0x0, symName: _.str.5, symObjAddr: 0x414E0, symBinAddr: 0x1001CF2E0, symSize: 0x0 }
  - { offset: 0x306C3, size: 0x8, addend: 0x0, symName: _.str.6, symObjAddr: 0x41500, symBinAddr: 0x1001CF300, symSize: 0x0 }
  - { offset: 0x306E0, size: 0x8, addend: 0x0, symName: _.str.7, symObjAddr: 0x41520, symBinAddr: 0x1001CF320, symSize: 0x0 }
  - { offset: 0x306FD, size: 0x8, addend: 0x0, symName: _.str.8, symObjAddr: 0x41540, symBinAddr: 0x1001CF340, symSize: 0x0 }
  - { offset: 0x3070E, size: 0x8, addend: 0x0, symName: _.str.9, symObjAddr: 0x41560, symBinAddr: 0x1001CF360, symSize: 0x0 }
  - { offset: 0x3072B, size: 0x8, addend: 0x0, symName: _.str.10, symObjAddr: 0x41580, symBinAddr: 0x1001CF380, symSize: 0x0 }
  - { offset: 0x3073C, size: 0x8, addend: 0x0, symName: _.str.11, symObjAddr: 0x415A0, symBinAddr: 0x1001CF3A0, symSize: 0x0 }
  - { offset: 0x30759, size: 0x8, addend: 0x0, symName: _.str.12, symObjAddr: 0x415C0, symBinAddr: 0x1001CF3C0, symSize: 0x0 }
  - { offset: 0x3077C, size: 0x8, addend: 0x0, symName: __ZN12_GLOBAL__N_15INDEXE, symObjAddr: 0x110600, symBinAddr: 0x1002EFB20, symSize: 0x0 }
  - { offset: 0x3078F, size: 0x8, addend: 0x0, symName: __ZN12_GLOBAL__N_132FindQueryMatches_SingleTerm_Test10test_info_E, symObjAddr: 0x110640, symBinAddr: 0x1002EFB60, symSize: 0x0 }
  - { offset: 0x3085B, size: 0x8, addend: 0x0, symName: __ZN12_GLOBAL__N_127FindQueryMatches_Union_Test10test_info_E, symObjAddr: 0x110660, symBinAddr: 0x1002EFB80, symSize: 0x0 }
  - { offset: 0x30927, size: 0x8, addend: 0x0, symName: __ZN12_GLOBAL__N_134FindQueryMatches_Intersection_Test10test_info_E, symObjAddr: 0x110680, symBinAddr: 0x1002EFBA0, symSize: 0x0 }
  - { offset: 0x309F3, size: 0x8, addend: 0x0, symName: __ZN12_GLOBAL__N_132FindQueryMatches_Difference_Test10test_info_E, symObjAddr: 0x1106A0, symBinAddr: 0x1002EFBC0, symSize: 0x0 }
  - { offset: 0x30ABF, size: 0x8, addend: 0x0, symName: __ZN12_GLOBAL__N_141FindQueryMatches_LongCombinedQueries_Test10test_info_E, symObjAddr: 0x1106C0, symBinAddr: 0x1002EFBE0, symSize: 0x0 }
  - { offset: 0x39280, size: 0x8, addend: 0x0, symName: __ZNSt3__111__tree_leafB8ne180100IPNS_16__tree_node_baseIPvEEEET_S5_, symObjAddr: 0x14938, symBinAddr: 0x1000579E8, symSize: 0x2E8 }
  - { offset: 0x392B5, size: 0x8, addend: 0x0, symName: __ZNSt3__13getB8ne180100ILm1EJPKN7testing8internal11MatcherBaseIRKNS_3setINS_12basic_stringIcNS_11char_traitsIcEENS_9allocatorIcEEEENS_4lessISA_EENS8_ISA_EEEEEEPKNS1_16MatcherInterfaceISG_EEEEEONS_13tuple_elementIXT_ENS_5tupleIJDpT0_EEEE4typeEOSS_, symObjAddr: 0x21168, symBinAddr: 0x10005E0A8, symSize: 0xC0 }
  - { offset: 0x392FD, size: 0x8, addend: 0x0, symName: __ZNSt3__110make_tupleB8ne180100IJPKN7testing8internal11MatcherBaseIRKNS_3setINS_12basic_stringIcNS_11char_traitsIcEENS_9allocatorIcEEEENS_4lessISA_EENS8_ISA_EEEEEEPKNS1_16MatcherInterfaceISG_EEEEENS_5tupleIJDpNS_18__unwrap_ref_decayIT_E4typeEEEEDpOSQ_, symObjAddr: 0x21228, symBinAddr: 0x10005E168, symSize: 0x1D8 }
  - { offset: 0x3A927, size: 0x8, addend: 0x0, symName: _.str.14, symObjAddr: 0x415E0, symBinAddr: 0x1001CF3E0, symSize: 0x0 }
  - { offset: 0x3A944, size: 0x8, addend: 0x0, symName: _.str.15, symObjAddr: 0x41620, symBinAddr: 0x1001CF420, symSize: 0x0 }
  - { offset: 0x3B0BC, size: 0x8, addend: 0x0, symName: __ZN7testing8internal33MakePredicateFormatterFromMatcherINS_18PolymorphicMatcherINS0_18ContainerEqMatcherINSt3__13setINS4_12basic_stringIcNS4_11char_traitsIcEENS4_9allocatorIcEEEENS4_4lessISB_EENS9_ISB_EEEEEEEEEENS0_29PredicateFormatterFromMatcherIT_EESJ_, symObjAddr: 0x10A88, symBinAddr: 0x100054398, symSize: 0x2A0 }
  - { offset: 0x3B0F5, size: 0x8, addend: 0x0, symName: __ZN7testing8internal20MatchPrintAndExplainIKNSt3__13setINS2_12basic_stringIcNS2_11char_traitsIcEENS2_9allocatorIcEEEENS2_4lessIS9_EENS7_IS9_EEEERSE_EEbRT_RKNS_7MatcherIT0_EEPNS_19MatchResultListenerE, symObjAddr: 0x16AE8, symBinAddr: 0x100059718, symSize: 0xE30 }
  - { offset: 0x3B227, size: 0x8, addend: 0x0, symName: __ZN7testing8internal14UniversalPrintINSt3__13setINS2_12basic_stringIcNS2_11char_traitsIcEENS2_9allocatorIcEEEENS2_4lessIS9_EENS7_IS9_EEEEEEvRKT_PNS2_13basic_ostreamIcS6_EE, symObjAddr: 0x19108, symBinAddr: 0x10005B1B8, symSize: 0x60 }
  - { offset: 0x3B269, size: 0x8, addend: 0x0, symName: __ZN7testing8internal14ArrayAwareFindINSt3__121__tree_const_iteratorINS2_12basic_stringIcNS2_11char_traitsIcEENS2_9allocatorIcEEEEPNS2_11__tree_nodeIS9_PvEElEES9_EET_SF_SF_RKT0_, symObjAddr: 0x1E3A8, symBinAddr: 0x10005BFF8, symSize: 0x278 }
  - { offset: 0x3B2EE, size: 0x8, addend: 0x0, symName: __ZN7testing8internal7ArrayEqINSt3__112basic_stringIcNS2_11char_traitsIcEENS2_9allocatorIcEEEES8_EEbRKT_RKT0_, symObjAddr: 0x1F338, symBinAddr: 0x10005C278, symSize: 0x98 }
  - { offset: 0x3B33D, size: 0x8, addend: 0x0, symName: __ZN7testing8internal11GetTypeNameIKNSt3__13setINS2_12basic_stringIcNS2_11char_traitsIcEENS2_9allocatorIcEEEENS2_4lessIS9_EENS7_IS9_EEEEEES9_v, symObjAddr: 0x25B98, symBinAddr: 0x100060B48, symSize: 0x40 }
  - { offset: 0x3BCE7, size: 0x8, addend: 0x0, symName: __ZN7testing11ContainerEqINSt3__13setINS1_12basic_stringIcNS1_11char_traitsIcEENS1_9allocatorIcEEEENS1_4lessIS8_EENS6_IS8_EEEEEENS_18PolymorphicMatcherINS_8internal18ContainerEqMatcherINS1_12remove_constIT_E4typeEEEEERKSH_, symObjAddr: 0x10D28, symBinAddr: 0x100054638, symSize: 0x288 }
  - { offset: 0x3BD1F, size: 0x8, addend: 0x0, symName: __ZN7testing22MakePolymorphicMatcherINS_8internal18ContainerEqMatcherINSt3__13setINS3_12basic_stringIcNS3_11char_traitsIcEENS3_9allocatorIcEEEENS3_4lessISA_EENS8_ISA_EEEEEEEENS_18PolymorphicMatcherIT_EERKSH_, symObjAddr: 0x158C8, symBinAddr: 0x100058978, symSize: 0x98 }
  - { offset: 0x3BD56, size: 0x8, addend: 0x0, symName: __ZN7testing15SafeMatcherCastIRKNSt3__13setINS1_12basic_stringIcNS1_11char_traitsIcEENS1_9allocatorIcEEEENS1_4lessIS8_EENS6_IS8_EEEENS_18PolymorphicMatcherINS_8internal18ContainerEqMatcherISC_EEEEEENS_7MatcherIT_EERKT0_, symObjAddr: 0x15D78, symBinAddr: 0x100058E28, symSize: 0x68 }
  - { offset: 0x3BE35, size: 0x8, addend: 0x0, symName: __ZN7testing11MatcherCastIRKNSt3__13setINS1_12basic_stringIcNS1_11char_traitsIcEENS1_9allocatorIcEEEENS1_4lessIS8_EENS6_IS8_EEEENS_18PolymorphicMatcherINS_8internal18ContainerEqMatcherISC_EEEEEENS_7MatcherIT_EERKT0_, symObjAddr: 0x181A8, symBinAddr: 0x10005A5A8, symSize: 0x70 }
  - { offset: 0x3C060, size: 0x8, addend: 0x0, symName: _.str.17, symObjAddr: 0x41640, symBinAddr: 0x1001CF440, symSize: 0x0 }
  - { offset: 0x3C08D, size: 0x8, addend: 0x0, symName: _.str.19, symObjAddr: 0x41660, symBinAddr: 0x1001CF460, symSize: 0x0 }
  - { offset: 0x3C0C6, size: 0x8, addend: 0x0, symName: _.str.21, symObjAddr: 0x41680, symBinAddr: 0x1001CF480, symSize: 0x0 }
  - { offset: 0x3C0F3, size: 0x8, addend: 0x0, symName: _.str.23, symObjAddr: 0x416A0, symBinAddr: 0x1001CF4A0, symSize: 0x0 }
  - { offset: 0x3C12C, size: 0x8, addend: 0x0, symName: _.str.41, symObjAddr: 0x417C0, symBinAddr: 0x1001CF5C0, symSize: 0x0 }
  - { offset: 0x3C149, size: 0x8, addend: 0x0, symName: _.str.42, symObjAddr: 0x41820, symBinAddr: 0x1001CF620, symSize: 0x0 }
  - { offset: 0x3C15A, size: 0x8, addend: 0x0, symName: _.str.43, symObjAddr: 0x41880, symBinAddr: 0x1001CF680, symSize: 0x0 }
  - { offset: 0x3C177, size: 0x8, addend: 0x0, symName: _.str.44, symObjAddr: 0x418E0, symBinAddr: 0x1001CF6E0, symSize: 0x0 }
  - { offset: 0x3C196, size: 0x8, addend: 0x0, symName: _.str.49, symObjAddr: 0x41900, symBinAddr: 0x1001CF700, symSize: 0x0 }
  - { offset: 0x3C1A9, size: 0x8, addend: 0x0, symName: _.str.50, symObjAddr: 0x41920, symBinAddr: 0x1001CF720, symSize: 0x0 }
  - { offset: 0x3C1BC, size: 0x8, addend: 0x0, symName: _.str.51, symObjAddr: 0x41940, symBinAddr: 0x1001CF740, symSize: 0x0 }
  - { offset: 0x3C1CF, size: 0x8, addend: 0x0, symName: _.str.52, symObjAddr: 0x41960, symBinAddr: 0x1001CF760, symSize: 0x0 }
  - { offset: 0x3C1EE, size: 0x8, addend: 0x0, symName: _.str.53, symObjAddr: 0x41A00, symBinAddr: 0x1001CF800, symSize: 0x0 }
  - { offset: 0x3C1FF, size: 0x8, addend: 0x0, symName: _.str.54, symObjAddr: 0x41A20, symBinAddr: 0x1001CF820, symSize: 0x0 }
  - { offset: 0x3C210, size: 0x8, addend: 0x0, symName: _.str.55, symObjAddr: 0x41A40, symBinAddr: 0x1001CF840, symSize: 0x0 }
  - { offset: 0x3C223, size: 0x8, addend: 0x0, symName: _.str.56, symObjAddr: 0x41A60, symBinAddr: 0x1001CF860, symSize: 0x0 }
  - { offset: 0x3C234, size: 0x8, addend: 0x0, symName: _.str.58, symObjAddr: 0x41A80, symBinAddr: 0x1001CF880, symSize: 0x0 }
  - { offset: 0x3C247, size: 0x8, addend: 0x0, symName: _.str.65, symObjAddr: 0x41AA0, symBinAddr: 0x1001CF8A0, symSize: 0x0 }
  - { offset: 0x3C266, size: 0x8, addend: 0x0, symName: _.str.66, symObjAddr: 0x41AC0, symBinAddr: 0x1001CF8C0, symSize: 0x0 }
  - { offset: 0x3C279, size: 0x8, addend: 0x0, symName: _.str.67, symObjAddr: 0x41AE0, symBinAddr: 0x1001CF8E0, symSize: 0x0 }
  - { offset: 0x3C298, size: 0x8, addend: 0x0, symName: _.str.68, symObjAddr: 0x41B40, symBinAddr: 0x1001CF940, symSize: 0x0 }
  - { offset: 0x3C2AB, size: 0x8, addend: 0x0, symName: _.str.69, symObjAddr: 0x41B60, symBinAddr: 0x1001CF960, symSize: 0x0 }
  - { offset: 0x3C2BE, size: 0x8, addend: 0x0, symName: _.str.70, symObjAddr: 0x41B80, symBinAddr: 0x1001CF980, symSize: 0x0 }
  - { offset: 0x3C4BA, size: 0x8, addend: 0x0, symName: __ZN7testing8internal11MatcherBaseIRKNSt3__13setINS2_12basic_stringIcNS2_11char_traitsIcEENS2_9allocatorIcEEEENS2_4lessIS9_EENS7_IS9_EEEEE9GetVTableINSG_11ValuePolicyIPKNS_16MatcherInterfaceISF_EELb1EEEEEPKNSG_6VTableEv, symObjAddr: 0x200E0, symBinAddr: 0x10005D020, symSize: 0x58 }
  - { offset: 0x3C4DF, size: 0x8, addend: 0x0, symName: __ZZN7testing8internal11MatcherBaseIRKNSt3__13setINS2_12basic_stringIcNS2_11char_traitsIcEENS2_9allocatorIcEEEENS2_4lessIS9_EENS7_IS9_EEEEE9GetVTableINSG_11ValuePolicyIPKNS_16MatcherInterfaceISF_EELb1EEEEEPKNSG_6VTableEvE7kVTable, symObjAddr: 0x60CE8, symBinAddr: 0x1002442A8, symSize: 0x0 }
  - { offset: 0x3C50C, size: 0x8, addend: 0x0, symName: _.str.76, symObjAddr: 0x41BE0, symBinAddr: 0x1001CF9E0, symSize: 0x0 }
  - { offset: 0x3C51F, size: 0x8, addend: 0x0, symName: _.str.80, symObjAddr: 0x41C40, symBinAddr: 0x1001CFA40, symSize: 0x0 }
  - { offset: 0x3C530, size: 0x8, addend: 0x0, symName: _.str.83, symObjAddr: 0x41C60, symBinAddr: 0x1001CFA60, symSize: 0x0 }
  - { offset: 0x3C543, size: 0x8, addend: 0x0, symName: _.str.85, symObjAddr: 0x41C80, symBinAddr: 0x1001CFA80, symSize: 0x0 }
  - { offset: 0x3C554, size: 0x8, addend: 0x0, symName: _.str.89, symObjAddr: 0x4D200, symBinAddr: 0x100201F60, symSize: 0x0 }
  - { offset: 0x3C571, size: 0x8, addend: 0x0, symName: _.str.91, symObjAddr: 0x41D80, symBinAddr: 0x1001CFB80, symSize: 0x0 }
  - { offset: 0x3C58E, size: 0x8, addend: 0x0, symName: _.str.92, symObjAddr: 0x41DE0, symBinAddr: 0x1001CFBE0, symSize: 0x0 }
  - { offset: 0x3C59F, size: 0x8, addend: 0x0, symName: _.str.93, symObjAddr: 0x41E00, symBinAddr: 0x1001CFC00, symSize: 0x0 }
  - { offset: 0x3C5BC, size: 0x8, addend: 0x0, symName: _.str.94, symObjAddr: 0x41E60, symBinAddr: 0x1001CFC60, symSize: 0x0 }
  - { offset: 0x3C5CD, size: 0x8, addend: 0x0, symName: _.str.95, symObjAddr: 0x41EA0, symBinAddr: 0x1001CFCA0, symSize: 0x0 }
  - { offset: 0x3C5EA, size: 0x8, addend: 0x0, symName: _.str.96, symObjAddr: 0x41F00, symBinAddr: 0x1001CFD00, symSize: 0x0 }
  - { offset: 0x3C607, size: 0x8, addend: 0x0, symName: _.str.97, symObjAddr: 0x42020, symBinAddr: 0x1001CFE20, symSize: 0x0 }
  - { offset: 0x3C618, size: 0x8, addend: 0x0, symName: _.str.98, symObjAddr: 0x42080, symBinAddr: 0x1001CFE80, symSize: 0x0 }
  - { offset: 0x3C629, size: 0x8, addend: 0x0, symName: _.str.99, symObjAddr: 0x420A0, symBinAddr: 0x1001CFEA0, symSize: 0x0 }
  - { offset: 0x3C63A, size: 0x8, addend: 0x0, symName: _.str.100, symObjAddr: 0x42100, symBinAddr: 0x1001CFF00, symSize: 0x0 }
  - { offset: 0x3C64B, size: 0x8, addend: 0x0, symName: _.str.101, symObjAddr: 0x42120, symBinAddr: 0x1001CFF20, symSize: 0x0 }
  - { offset: 0x3C668, size: 0x8, addend: 0x0, symName: _.str.102, symObjAddr: 0x42180, symBinAddr: 0x1001CFF80, symSize: 0x0 }
  - { offset: 0x3C685, size: 0x8, addend: 0x0, symName: _.str.103, symObjAddr: 0x421A0, symBinAddr: 0x1001CFFA0, symSize: 0x0 }
  - { offset: 0x3C6A2, size: 0x8, addend: 0x0, symName: _.str.104, symObjAddr: 0x42200, symBinAddr: 0x1001D0000, symSize: 0x0 }
  - { offset: 0x3C6B3, size: 0x8, addend: 0x0, symName: _.str.105, symObjAddr: 0x42300, symBinAddr: 0x1001D0100, symSize: 0x0 }
  - { offset: 0x3C6D0, size: 0x8, addend: 0x0, symName: _.str.106, symObjAddr: 0x42360, symBinAddr: 0x1001D0160, symSize: 0x0 }
  - { offset: 0x3C6E1, size: 0x8, addend: 0x0, symName: _.str.107, symObjAddr: 0x42380, symBinAddr: 0x1001D0180, symSize: 0x0 }
  - { offset: 0x3C6F2, size: 0x8, addend: 0x0, symName: _.str.108, symObjAddr: 0x423E0, symBinAddr: 0x1001D01E0, symSize: 0x0 }
  - { offset: 0x3C703, size: 0x8, addend: 0x0, symName: _.str.109, symObjAddr: 0x42400, symBinAddr: 0x1001D0200, symSize: 0x0 }
  - { offset: 0x3C714, size: 0x8, addend: 0x0, symName: _.str.110, symObjAddr: 0x42460, symBinAddr: 0x1001D0260, symSize: 0x0 }
  - { offset: 0x3C725, size: 0x8, addend: 0x0, symName: _.str.111, symObjAddr: 0x42480, symBinAddr: 0x1001D0280, symSize: 0x0 }
  - { offset: 0x3C736, size: 0x8, addend: 0x0, symName: _.str.112, symObjAddr: 0x424E0, symBinAddr: 0x1001D02E0, symSize: 0x0 }
  - { offset: 0x3C747, size: 0x8, addend: 0x0, symName: _.str.113, symObjAddr: 0x42500, symBinAddr: 0x1001D0300, symSize: 0x0 }
  - { offset: 0x3C758, size: 0x8, addend: 0x0, symName: _.str.114, symObjAddr: 0x42560, symBinAddr: 0x1001D0360, symSize: 0x0 }
  - { offset: 0x3C769, size: 0x8, addend: 0x0, symName: _.str.115, symObjAddr: 0x42680, symBinAddr: 0x1001D0480, symSize: 0x0 }
  - { offset: 0x3C786, size: 0x8, addend: 0x0, symName: _.str.116, symObjAddr: 0x426E0, symBinAddr: 0x1001D04E0, symSize: 0x0 }
  - { offset: 0x3C7A3, size: 0x8, addend: 0x0, symName: _.str.117, symObjAddr: 0x42720, symBinAddr: 0x1001D0520, symSize: 0x0 }
  - { offset: 0x3C7C0, size: 0x8, addend: 0x0, symName: _.str.118, symObjAddr: 0x42780, symBinAddr: 0x1001D0580, symSize: 0x0 }
  - { offset: 0x3C7DD, size: 0x8, addend: 0x0, symName: _.str.119, symObjAddr: 0x427A0, symBinAddr: 0x1001D05A0, symSize: 0x0 }
  - { offset: 0x3C7FA, size: 0x8, addend: 0x0, symName: _.str.120, symObjAddr: 0x42800, symBinAddr: 0x1001D0600, symSize: 0x0 }
  - { offset: 0x3C819, size: 0x8, addend: 0x0, symName: _.str.122, symObjAddr: 0x42840, symBinAddr: 0x1001D0640, symSize: 0x0 }
  - { offset: 0x3C838, size: 0x8, addend: 0x0, symName: _.str.123, symObjAddr: 0x428A0, symBinAddr: 0x1001D06A0, symSize: 0x0 }
  - { offset: 0x3C857, size: 0x8, addend: 0x0, symName: _.str.124, symObjAddr: 0x42940, symBinAddr: 0x1001D0740, symSize: 0x0 }
  - { offset: 0x3C86A, size: 0x8, addend: 0x0, symName: _.str.125, symObjAddr: 0x42960, symBinAddr: 0x1001D0760, symSize: 0x0 }
  - { offset: 0x3C98C, size: 0x8, addend: 0x0, symName: __ZN7testing8internal15TestFactoryImplIN12_GLOBAL__N_132FindQueryMatches_SingleTerm_TestEEC1Ev, symObjAddr: 0xCC0, symBinAddr: 0x1000525C0, symSize: 0x50 }
  - { offset: 0x3C9BE, size: 0x8, addend: 0x0, symName: __ZN7testing8internal15TestFactoryImplIN12_GLOBAL__N_127FindQueryMatches_Union_TestEEC1Ev, symObjAddr: 0xD60, symBinAddr: 0x100052610, symSize: 0x50 }
  - { offset: 0x3C9F0, size: 0x8, addend: 0x0, symName: __ZN7testing8internal15TestFactoryImplIN12_GLOBAL__N_134FindQueryMatches_Intersection_TestEEC1Ev, symObjAddr: 0xDB0, symBinAddr: 0x100052660, symSize: 0x50 }
  - { offset: 0x3CA22, size: 0x8, addend: 0x0, symName: __ZN7testing8internal15TestFactoryImplIN12_GLOBAL__N_132FindQueryMatches_Difference_TestEEC1Ev, symObjAddr: 0xE00, symBinAddr: 0x1000526B0, symSize: 0x50 }
  - { offset: 0x3CA54, size: 0x8, addend: 0x0, symName: __ZN7testing8internal15TestFactoryImplIN12_GLOBAL__N_141FindQueryMatches_LongCombinedQueries_TestEEC1Ev, symObjAddr: 0xE50, symBinAddr: 0x100052700, symSize: 0x50 }
  - { offset: 0x3CA98, size: 0x8, addend: 0x0, symName: __ZN7testing8internal15TestFactoryImplIN12_GLOBAL__N_132FindQueryMatches_SingleTerm_TestEEC2Ev, symObjAddr: 0xEC70, symBinAddr: 0x100052750, symSize: 0xC0 }
  - { offset: 0x3CAC5, size: 0x8, addend: 0x0, symName: __ZN7testing8internal15TestFactoryImplIN12_GLOBAL__N_132FindQueryMatches_SingleTerm_TestEED1Ev, symObjAddr: 0xEDC0, symBinAddr: 0x100052810, symSize: 0x50 }
  - { offset: 0x3CAF2, size: 0x8, addend: 0x0, symName: __ZN7testing8internal15TestFactoryImplIN12_GLOBAL__N_132FindQueryMatches_SingleTerm_TestEED0Ev, symObjAddr: 0xEE10, symBinAddr: 0x100052860, symSize: 0x60 }
  - { offset: 0x3CB1F, size: 0x8, addend: 0x0, symName: __ZN7testing8internal15TestFactoryImplIN12_GLOBAL__N_132FindQueryMatches_SingleTerm_TestEE10CreateTestEv, symObjAddr: 0xEE70, symBinAddr: 0x1000528C0, symSize: 0xF0 }
  - { offset: 0x3CB45, size: 0x8, addend: 0x0, symName: __ZN7testing8internal15TestFactoryImplIN12_GLOBAL__N_132FindQueryMatches_SingleTerm_TestEED2Ev, symObjAddr: 0xF000, symBinAddr: 0x1000529B0, symSize: 0x50 }
  - { offset: 0x3CB72, size: 0x8, addend: 0x0, symName: __ZN12_GLOBAL__N_132FindQueryMatches_SingleTerm_TestC1Ev, symObjAddr: 0xF0A0, symBinAddr: 0x100052A00, symSize: 0x50 }
  - { offset: 0x3CB9C, size: 0x8, addend: 0x0, symName: __ZN12_GLOBAL__N_132FindQueryMatches_SingleTerm_TestC2Ev, symObjAddr: 0xF0F0, symBinAddr: 0x100052A50, symSize: 0xC0 }
  - { offset: 0x3CBC6, size: 0x8, addend: 0x0, symName: __ZN12_GLOBAL__N_132FindQueryMatches_SingleTerm_TestD1Ev, symObjAddr: 0xF1B0, symBinAddr: 0x100052B10, symSize: 0x50 }
  - { offset: 0x3CBF0, size: 0x8, addend: 0x0, symName: __ZN12_GLOBAL__N_132FindQueryMatches_SingleTerm_TestD0Ev, symObjAddr: 0xF200, symBinAddr: 0x100052B60, symSize: 0x60 }
  - { offset: 0x3CC1A, size: 0x8, addend: 0x0, symName: __ZN12_GLOBAL__N_132FindQueryMatches_SingleTerm_Test8TestBodyEv, symObjAddr: 0xF260, symBinAddr: 0x100052BC0, symSize: 0x1510 }
  - { offset: 0x3CCA1, size: 0x8, addend: 0x0, symName: __ZN12_GLOBAL__N_132FindQueryMatches_SingleTerm_TestD2Ev, symObjAddr: 0x107C0, symBinAddr: 0x1000540D0, symSize: 0x50 }
  - { offset: 0x3CCCB, size: 0x8, addend: 0x0, symName: __ZNSt3__13setINS_12basic_stringIcNS_11char_traitsIcEENS_9allocatorIcEEEENS_4lessIS6_EENS4_IS6_EEEC1B8ne180100Ev, symObjAddr: 0x10810, symBinAddr: 0x100054120, symSize: 0x50 }
  - { offset: 0x3CCF5, size: 0x8, addend: 0x0, symName: __ZNSt3__13setINS_12basic_stringIcNS_11char_traitsIcEENS_9allocatorIcEEEENS_4lessIS6_EENS4_IS6_EEEaSB8ne180100ESt16initializer_listIS6_E, symObjAddr: 0x10860, symBinAddr: 0x100054170, symSize: 0x228 }
  - { offset: 0x3CE34, size: 0x8, addend: 0x0, symName: __ZNK7testing8internal29PredicateFormatterFromMatcherINS_18PolymorphicMatcherINS0_18ContainerEqMatcherINSt3__13setINS4_12basic_stringIcNS4_11char_traitsIcEENS4_9allocatorIcEEEENS4_4lessISB_EENS9_ISB_EEEEEEEEEclISF_EENS_15AssertionResultEPKcRKT_, symObjAddr: 0x10FB0, symBinAddr: 0x1000548C0, symSize: 0xE20 }
  - { offset: 0x3CEBE, size: 0x8, addend: 0x0, symName: __ZN7testing8internal29PredicateFormatterFromMatcherINS_18PolymorphicMatcherINS0_18ContainerEqMatcherINSt3__13setINS4_12basic_stringIcNS4_11char_traitsIcEENS4_9allocatorIcEEEENS4_4lessISB_EENS9_ISB_EEEEEEEEED1Ev, symObjAddr: 0x11DD0, symBinAddr: 0x1000556E0, symSize: 0x50 }
  - { offset: 0x3CEEB, size: 0x8, addend: 0x0, symName: __ZN7testing18PolymorphicMatcherINS_8internal18ContainerEqMatcherINSt3__13setINS3_12basic_stringIcNS3_11char_traitsIcEENS3_9allocatorIcEEEENS3_4lessISA_EENS8_ISA_EEEEEEED1Ev, symObjAddr: 0x11E20, symBinAddr: 0x100055730, symSize: 0x50 }
  - { offset: 0x3CF18, size: 0x8, addend: 0x0, symName: __ZNSt3__13setINS_12basic_stringIcNS_11char_traitsIcEENS_9allocatorIcEEEENS_4lessIS6_EENS4_IS6_EEEC2B8ne180100Ev, symObjAddr: 0x12020, symBinAddr: 0x100055780, symSize: 0x180 }
  - { offset: 0x3CF43, size: 0x8, addend: 0x0, symName: __ZNSt3__16__treeINS_12basic_stringIcNS_11char_traitsIcEENS_9allocatorIcEEEENS_4lessIS6_EENS4_IS6_EEE15__assign_uniqueIPKS6_EEvT_SE_, symObjAddr: 0x126C0, symBinAddr: 0x100055900, symSize: 0x5F0 }
  - { offset: 0x3CFCD, size: 0x8, addend: 0x0, symName: __ZNSt3__16__treeINS_12basic_stringIcNS_11char_traitsIcEENS_9allocatorIcEEEENS_4lessIS6_EENS4_IS6_EEE18_DetachedTreeCacheC1B8ne180100EPSA_, symObjAddr: 0x12E40, symBinAddr: 0x100055EF0, symSize: 0x60 }
  - { offset: 0x3D006, size: 0x8, addend: 0x0, symName: __ZNKSt3__16__treeINS_12basic_stringIcNS_11char_traitsIcEENS_9allocatorIcEEEENS_4lessIS6_EENS4_IS6_EEE18_DetachedTreeCache5__getB8ne180100Ev, symObjAddr: 0x12EA0, symBinAddr: 0x100055F50, symSize: 0x80 }
  - { offset: 0x3D02C, size: 0x8, addend: 0x0, symName: __ZNSt3__16__treeINS_12basic_stringIcNS_11char_traitsIcEENS_9allocatorIcEEEENS_4lessIS6_EENS4_IS6_EEE20__node_assign_uniqueERKS6_PNS_11__tree_nodeIS6_PvEE, symObjAddr: 0x12F20, symBinAddr: 0x100055FD0, symSize: 0x5A0 }
  - { offset: 0x3D0BB, size: 0x8, addend: 0x0, symName: __ZNSt3__16__treeINS_12basic_stringIcNS_11char_traitsIcEENS_9allocatorIcEEEENS_4lessIS6_EENS4_IS6_EEE18_DetachedTreeCache9__advanceB8ne180100Ev, symObjAddr: 0x134C0, symBinAddr: 0x100056570, symSize: 0x180 }
  - { offset: 0x3D0E1, size: 0x8, addend: 0x0, symName: __ZNSt3__16__treeINS_12basic_stringIcNS_11char_traitsIcEENS_9allocatorIcEEEENS_4lessIS6_EENS4_IS6_EEE18_DetachedTreeCacheD1B8ne180100Ev, symObjAddr: 0x13640, symBinAddr: 0x1000566F0, symSize: 0x50 }
  - { offset: 0x3D10B, size: 0x8, addend: 0x0, symName: __ZNSt3__16__treeINS_12basic_stringIcNS_11char_traitsIcEENS_9allocatorIcEEEENS_4lessIS6_EENS4_IS6_EEE15__insert_uniqueB8ne180100ERKS6_, symObjAddr: 0x13690, symBinAddr: 0x100056740, symSize: 0x110 }
  - { offset: 0x3D140, size: 0x8, addend: 0x0, symName: __ZNSt3__16__treeINS_12basic_stringIcNS_11char_traitsIcEENS_9allocatorIcEEEENS_4lessIS6_EENS4_IS6_EEE18_DetachedTreeCacheC2B8ne180100EPSA_, symObjAddr: 0x137A0, symBinAddr: 0x100056850, symSize: 0xE8 }
  - { offset: 0x3D179, size: 0x8, addend: 0x0, symName: __ZNSt3__16__treeINS_12basic_stringIcNS_11char_traitsIcEENS_9allocatorIcEEEENS_4lessIS6_EENS4_IS6_EEE18_DetachedTreeCache18__detach_from_treeEPSA_, symObjAddr: 0x13888, symBinAddr: 0x100056938, symSize: 0x6F0 }
  - { offset: 0x3D1AC, size: 0x8, addend: 0x0, symName: __ZNSt3__16__treeINS_12basic_stringIcNS_11char_traitsIcEENS_9allocatorIcEEEENS_4lessIS6_EENS4_IS6_EEE18_DetachedTreeCache13__detach_nextEPNS_11__tree_nodeIS6_PvEE, symObjAddr: 0x13F78, symBinAddr: 0x100057028, symSize: 0x9C0 }
  - { offset: 0x3D1D0, size: 0x8, addend: 0x0, symName: __ZNSt3__16__treeINS_12basic_stringIcNS_11char_traitsIcEENS_9allocatorIcEEEENS_4lessIS6_EENS4_IS6_EEE18_DetachedTreeCacheD2B8ne180100Ev, symObjAddr: 0x14C20, symBinAddr: 0x100057CD0, symSize: 0x440 }
  - { offset: 0x3D1FA, size: 0x8, addend: 0x0, symName: __ZNSt3__16__treeINS_12basic_stringIcNS_11char_traitsIcEENS_9allocatorIcEEEENS_4lessIS6_EENS4_IS6_EEE25__emplace_unique_key_argsIS6_JRKS6_EEENS_4pairINS_15__tree_iteratorIS6_PNS_11__tree_nodeIS6_PvEElEEbEERKT_DpOT0_, symObjAddr: 0x15060, symBinAddr: 0x100058110, symSize: 0x530 }
  - { offset: 0x3D2C2, size: 0x8, addend: 0x0, symName: __ZN7testing18PolymorphicMatcherINS_8internal18ContainerEqMatcherINSt3__13setINS3_12basic_stringIcNS3_11char_traitsIcEENS3_9allocatorIcEEEENS3_4lessISA_EENS8_ISA_EEEEEEEC1EOSG_, symObjAddr: 0x15590, symBinAddr: 0x100058640, symSize: 0x60 }
  - { offset: 0x3D2F8, size: 0x8, addend: 0x0, symName: __ZN7testing8internal29PredicateFormatterFromMatcherINS_18PolymorphicMatcherINS0_18ContainerEqMatcherINSt3__13setINS4_12basic_stringIcNS4_11char_traitsIcEENS4_9allocatorIcEEEENS4_4lessISB_EENS9_ISB_EEEEEEEEEC1ESH_, symObjAddr: 0x155F0, symBinAddr: 0x1000586A0, symSize: 0x60 }
  - { offset: 0x3D332, size: 0x8, addend: 0x0, symName: __ZN7testing18PolymorphicMatcherINS_8internal18ContainerEqMatcherINSt3__13setINS3_12basic_stringIcNS3_11char_traitsIcEENS3_9allocatorIcEEEENS3_4lessISA_EENS8_ISA_EEEEEEEC2EOSG_, symObjAddr: 0x15650, symBinAddr: 0x100058700, symSize: 0xC0 }
  - { offset: 0x3D36E, size: 0x8, addend: 0x0, symName: __ZN7testing8internal18ContainerEqMatcherINSt3__13setINS2_12basic_stringIcNS2_11char_traitsIcEENS2_9allocatorIcEEEENS2_4lessIS9_EENS7_IS9_EEEEEC1EOSE_, symObjAddr: 0x15710, symBinAddr: 0x1000587C0, symSize: 0x60 }
  - { offset: 0x3D3A4, size: 0x8, addend: 0x0, symName: __ZN7testing8internal18ContainerEqMatcherINSt3__13setINS2_12basic_stringIcNS2_11char_traitsIcEENS2_9allocatorIcEEEENS2_4lessIS9_EENS7_IS9_EEEEEC2EOSE_, symObjAddr: 0x15770, symBinAddr: 0x100058820, symSize: 0xC0 }
  - { offset: 0x3D3DA, size: 0x8, addend: 0x0, symName: __ZN7testing8internal29PredicateFormatterFromMatcherINS_18PolymorphicMatcherINS0_18ContainerEqMatcherINSt3__13setINS4_12basic_stringIcNS4_11char_traitsIcEENS4_9allocatorIcEEEENS4_4lessISB_EENS9_ISB_EEEEEEEEEC2ESH_, symObjAddr: 0x15830, symBinAddr: 0x1000588E0, symSize: 0x98 }
  - { offset: 0x3D414, size: 0x8, addend: 0x0, symName: __ZN7testing8internal18ContainerEqMatcherINSt3__13setINS2_12basic_stringIcNS2_11char_traitsIcEENS2_9allocatorIcEEEENS2_4lessIS9_EENS7_IS9_EEEEEC1ERKSD_, symObjAddr: 0x15960, symBinAddr: 0x100058A10, symSize: 0x60 }
  - { offset: 0x3D44D, size: 0x8, addend: 0x0, symName: __ZN7testing8internal18ContainerEqMatcherINSt3__13setINS2_12basic_stringIcNS2_11char_traitsIcEENS2_9allocatorIcEEEENS2_4lessIS9_EENS7_IS9_EEEEED1Ev, symObjAddr: 0x159C0, symBinAddr: 0x100058A70, symSize: 0x50 }
  - { offset: 0x3D47A, size: 0x8, addend: 0x0, symName: __ZN7testing18PolymorphicMatcherINS_8internal18ContainerEqMatcherINSt3__13setINS3_12basic_stringIcNS3_11char_traitsIcEENS3_9allocatorIcEEEENS3_4lessISA_EENS8_ISA_EEEEEEEC1ERKSF_, symObjAddr: 0x15A10, symBinAddr: 0x100058AC0, symSize: 0x60 }
  - { offset: 0x3D4B3, size: 0x8, addend: 0x0, symName: __ZN7testing18PolymorphicMatcherINS_8internal18ContainerEqMatcherINSt3__13setINS3_12basic_stringIcNS3_11char_traitsIcEENS3_9allocatorIcEEEENS3_4lessISA_EENS8_ISA_EEEEEEEC2ERKSF_, symObjAddr: 0x15A70, symBinAddr: 0x100058B20, symSize: 0x90 }
  - { offset: 0x3D4EC, size: 0x8, addend: 0x0, symName: __ZN7testing8internal18ContainerEqMatcherINSt3__13setINS2_12basic_stringIcNS2_11char_traitsIcEENS2_9allocatorIcEEEENS2_4lessIS9_EENS7_IS9_EEEEEC1ERKSE_, symObjAddr: 0x15B00, symBinAddr: 0x100058BB0, symSize: 0x60 }
  - { offset: 0x3D522, size: 0x8, addend: 0x0, symName: __ZN7testing8internal18ContainerEqMatcherINSt3__13setINS2_12basic_stringIcNS2_11char_traitsIcEENS2_9allocatorIcEEEENS2_4lessIS9_EENS7_IS9_EEEEEC2ERKSE_, symObjAddr: 0x15B60, symBinAddr: 0x100058C10, symSize: 0x90 }
  - { offset: 0x3D558, size: 0x8, addend: 0x0, symName: __ZN7testing8internal18ContainerEqMatcherINSt3__13setINS2_12basic_stringIcNS2_11char_traitsIcEENS2_9allocatorIcEEEENS2_4lessIS9_EENS7_IS9_EEEEEC2ERKSD_, symObjAddr: 0x15BF0, symBinAddr: 0x100058CA0, symSize: 0x98 }
  - { offset: 0x3D591, size: 0x8, addend: 0x0, symName: __ZN7testing8internal16StlContainerViewINSt3__13setINS2_12basic_stringIcNS2_11char_traitsIcEENS2_9allocatorIcEEEENS2_4lessIS9_EENS7_IS9_EEEEE4CopyERKSD_, symObjAddr: 0x15C88, symBinAddr: 0x100058D38, symSize: 0x98 }
  - { offset: 0x3D5B5, size: 0x8, addend: 0x0, symName: __ZN7testing8internal18ContainerEqMatcherINSt3__13setINS2_12basic_stringIcNS2_11char_traitsIcEENS2_9allocatorIcEEEENS2_4lessIS9_EENS7_IS9_EEEEED2Ev, symObjAddr: 0x15D20, symBinAddr: 0x100058DD0, symSize: 0x58 }
  - { offset: 0x3D5E2, size: 0x8, addend: 0x0, symName: __ZNK7testing8internal11MatcherBaseIRKNSt3__13setINS2_12basic_stringIcNS2_11char_traitsIcEENS2_9allocatorIcEEEENS2_4lessIS9_EENS7_IS9_EEEEE7MatchesESF_, symObjAddr: 0x15DE0, symBinAddr: 0x100058E90, symSize: 0x300 }
  - { offset: 0x3D62A, size: 0x8, addend: 0x0, symName: __ZNK7testing8internal11MatcherBaseIRKNSt3__13setINS2_12basic_stringIcNS2_11char_traitsIcEENS2_9allocatorIcEEEENS2_4lessIS9_EENS7_IS9_EEEEE10DescribeToEPNS2_13basic_ostreamIcS6_EE, symObjAddr: 0x16510, symBinAddr: 0x100059190, symSize: 0x580 }
  - { offset: 0x3D680, size: 0x8, addend: 0x0, symName: __ZN7testing7MatcherIRKNSt3__13setINS1_12basic_stringIcNS1_11char_traitsIcEENS1_9allocatorIcEEEENS1_4lessIS8_EENS6_IS8_EEEEED1Ev, symObjAddr: 0x18150, symBinAddr: 0x10005A550, symSize: 0x58 }
  - { offset: 0x3D6B2, size: 0x8, addend: 0x0, symName: __ZN7testing8internal15MatcherCastImplIRKNSt3__13setINS2_12basic_stringIcNS2_11char_traitsIcEENS2_9allocatorIcEEEENS2_4lessIS9_EENS7_IS9_EEEENS_18PolymorphicMatcherINS0_18ContainerEqMatcherISD_EEEEE4CastERKSJ_, symObjAddr: 0x18218, symBinAddr: 0x10005A618, symSize: 0x70 }
  - { offset: 0x3D6D6, size: 0x8, addend: 0x0, symName: __ZN7testing8internal15MatcherCastImplIRKNSt3__13setINS2_12basic_stringIcNS2_11char_traitsIcEENS2_9allocatorIcEEEENS2_4lessIS9_EENS7_IS9_EEEENS_18PolymorphicMatcherINS0_18ContainerEqMatcherISD_EEEEE8CastImplILb0EEENS_7MatcherISF_EERKSJ_NS2_17integral_constantIbLb1EEENSQ_IbXT_EEE, symObjAddr: 0x18288, symBinAddr: 0x10005A688, symSize: 0x58 }
  - { offset: 0x3D71C, size: 0x8, addend: 0x0, symName: __ZNK7testing18PolymorphicMatcherINS_8internal18ContainerEqMatcherINSt3__13setINS3_12basic_stringIcNS3_11char_traitsIcEENS3_9allocatorIcEEEENS3_4lessISA_EENS8_ISA_EEEEEEEcvNS_7MatcherIT_EEIRKSE_EEv, symObjAddr: 0x182E0, symBinAddr: 0x10005A6E0, symSize: 0x170 }
  - { offset: 0x3D75A, size: 0x8, addend: 0x0, symName: __ZN7testing18PolymorphicMatcherINS_8internal18ContainerEqMatcherINSt3__13setINS3_12basic_stringIcNS3_11char_traitsIcEENS3_9allocatorIcEEEENS3_4lessISA_EENS8_ISA_EEEEEEE15MonomorphicImplIRKSE_EC1ERKSF_, symObjAddr: 0x18450, symBinAddr: 0x10005A850, symSize: 0x60 }
  - { offset: 0x3D793, size: 0x8, addend: 0x0, symName: __ZN7testing7MatcherIRKNSt3__13setINS1_12basic_stringIcNS1_11char_traitsIcEENS1_9allocatorIcEEEENS1_4lessIS8_EENS6_IS8_EEEEEC1EPKNS_16MatcherInterfaceISE_EE, symObjAddr: 0x184B0, symBinAddr: 0x10005A8B0, symSize: 0x60 }
  - { offset: 0x3D7CC, size: 0x8, addend: 0x0, symName: __ZN7testing18PolymorphicMatcherINS_8internal18ContainerEqMatcherINSt3__13setINS3_12basic_stringIcNS3_11char_traitsIcEENS3_9allocatorIcEEEENS3_4lessISA_EENS8_ISA_EEEEEEE15MonomorphicImplIRKSE_EC2ERKSF_, symObjAddr: 0x18510, symBinAddr: 0x10005A910, symSize: 0x130 }
  - { offset: 0x3D80A, size: 0x8, addend: 0x0, symName: __ZN7testing16MatcherInterfaceIRKNSt3__13setINS1_12basic_stringIcNS1_11char_traitsIcEENS1_9allocatorIcEEEENS1_4lessIS8_EENS6_IS8_EEEEEC2Ev, symObjAddr: 0x18640, symBinAddr: 0x10005AA40, symSize: 0xC0 }
  - { offset: 0x3D836, size: 0x8, addend: 0x0, symName: __ZN7testing16MatcherInterfaceIRKNSt3__13setINS1_12basic_stringIcNS1_11char_traitsIcEENS1_9allocatorIcEEEENS1_4lessIS8_EENS6_IS8_EEEEED2Ev, symObjAddr: 0x18700, symBinAddr: 0x10005AB00, symSize: 0x50 }
  - { offset: 0x3D862, size: 0x8, addend: 0x0, symName: __ZN7testing18PolymorphicMatcherINS_8internal18ContainerEqMatcherINSt3__13setINS3_12basic_stringIcNS3_11char_traitsIcEENS3_9allocatorIcEEEENS3_4lessISA_EENS8_ISA_EEEEEEE15MonomorphicImplIRKSE_ED1Ev, symObjAddr: 0x18750, symBinAddr: 0x10005AB50, symSize: 0x50 }
  - { offset: 0x3D88F, size: 0x8, addend: 0x0, symName: __ZN7testing18PolymorphicMatcherINS_8internal18ContainerEqMatcherINSt3__13setINS3_12basic_stringIcNS3_11char_traitsIcEENS3_9allocatorIcEEEENS3_4lessISA_EENS8_ISA_EEEEEEE15MonomorphicImplIRKSE_ED0Ev, symObjAddr: 0x187A0, symBinAddr: 0x10005ABA0, symSize: 0x60 }
  - { offset: 0x3D8BC, size: 0x8, addend: 0x0, symName: __ZNK7testing18PolymorphicMatcherINS_8internal18ContainerEqMatcherINSt3__13setINS3_12basic_stringIcNS3_11char_traitsIcEENS3_9allocatorIcEEEENS3_4lessISA_EENS8_ISA_EEEEEEE15MonomorphicImplIRKSE_E10DescribeToEPNS3_13basic_ostreamIcS7_EE, symObjAddr: 0x18800, symBinAddr: 0x10005AC00, symSize: 0x120 }
  - { offset: 0x3D8F1, size: 0x8, addend: 0x0, symName: __ZNK7testing18PolymorphicMatcherINS_8internal18ContainerEqMatcherINSt3__13setINS3_12basic_stringIcNS3_11char_traitsIcEENS3_9allocatorIcEEEENS3_4lessISA_EENS8_ISA_EEEEEEE15MonomorphicImplIRKSE_E18DescribeNegationToEPNS3_13basic_ostreamIcS7_EE, symObjAddr: 0x18920, symBinAddr: 0x10005AD20, symSize: 0x120 }
  - { offset: 0x3D926, size: 0x8, addend: 0x0, symName: __ZNK7testing18PolymorphicMatcherINS_8internal18ContainerEqMatcherINSt3__13setINS3_12basic_stringIcNS3_11char_traitsIcEENS3_9allocatorIcEEEENS3_4lessISA_EENS8_ISA_EEEEEEE15MonomorphicImplIRKSE_E15MatchAndExplainESJ_PNS_19MatchResultListenerE, symObjAddr: 0x18A40, symBinAddr: 0x10005AE40, symSize: 0x160 }
  - { offset: 0x3D96A, size: 0x8, addend: 0x0, symName: __ZN7testing16MatcherInterfaceIRKNSt3__13setINS1_12basic_stringIcNS1_11char_traitsIcEENS1_9allocatorIcEEEENS1_4lessIS8_EENS6_IS8_EEEEED1Ev, symObjAddr: 0x18C30, symBinAddr: 0x10005AFA0, symSize: 0x50 }
  - { offset: 0x3D996, size: 0x8, addend: 0x0, symName: __ZN7testing16MatcherInterfaceIRKNSt3__13setINS1_12basic_stringIcNS1_11char_traitsIcEENS1_9allocatorIcEEEENS1_4lessIS8_EENS6_IS8_EEEEED0Ev, symObjAddr: 0x18C80, symBinAddr: 0x10005AFF0, symSize: 0x50 }
  - { offset: 0x3D9C2, size: 0x8, addend: 0x0, symName: __ZN7testing18PolymorphicMatcherINS_8internal18ContainerEqMatcherINSt3__13setINS3_12basic_stringIcNS3_11char_traitsIcEENS3_9allocatorIcEEEENS3_4lessISA_EENS8_ISA_EEEEEEE15MonomorphicImplIRKSE_ED2Ev, symObjAddr: 0x18F90, symBinAddr: 0x10005B040, symSize: 0xA0 }
  - { offset: 0x3D9EF, size: 0x8, addend: 0x0, symName: __ZNK7testing8internal18ContainerEqMatcherINSt3__13setINS2_12basic_stringIcNS2_11char_traitsIcEENS2_9allocatorIcEEEENS2_4lessIS9_EENS7_IS9_EEEEE10DescribeToEPNS2_13basic_ostreamIcS6_EE, symObjAddr: 0x19030, symBinAddr: 0x10005B0E0, symSize: 0xD8 }
  - { offset: 0x3DA45, size: 0x8, addend: 0x0, symName: __ZNK7testing8internal18ContainerEqMatcherINSt3__13setINS2_12basic_stringIcNS2_11char_traitsIcEENS2_9allocatorIcEEEENS2_4lessIS9_EENS7_IS9_EEEEE18DescribeNegationToEPNS2_13basic_ostreamIcS6_EE, symObjAddr: 0x1D370, symBinAddr: 0x10005B220, symSize: 0xD0 }
  - { offset: 0x3DA7A, size: 0x8, addend: 0x0, symName: __ZNK7testing8internal18ContainerEqMatcherINSt3__13setINS2_12basic_stringIcNS2_11char_traitsIcEENS2_9allocatorIcEEEENS2_4lessIS9_EENS7_IS9_EEEEE15MatchAndExplainISD_EEbRKT_PNS_19MatchResultListenerE, symObjAddr: 0x1D440, symBinAddr: 0x10005B2F0, symSize: 0xCA8 }
  - { offset: 0x3DB5B, size: 0x8, addend: 0x0, symName: __ZN7testing8internal16StlContainerViewINSt3__13setINS2_12basic_stringIcNS2_11char_traitsIcEENS2_9allocatorIcEEEENS2_4lessIS9_EENS7_IS9_EEEEE14ConstReferenceERKSD_, symObjAddr: 0x1E0E8, symBinAddr: 0x10005BF98, symSize: 0x60 }
  - { offset: 0x3DB7F, size: 0x8, addend: 0x0, symName: __ZN7testing7MatcherIRKNSt3__13setINS1_12basic_stringIcNS1_11char_traitsIcEENS1_9allocatorIcEEEENS1_4lessIS8_EENS6_IS8_EEEEEC2EPKNS_16MatcherInterfaceISE_EE, symObjAddr: 0x1F3D0, symBinAddr: 0x10005C310, symSize: 0xD0 }
  - { offset: 0x3DBB8, size: 0x8, addend: 0x0, symName: __ZN7testing8internal11MatcherBaseIRKNSt3__13setINS2_12basic_stringIcNS2_11char_traitsIcEENS2_9allocatorIcEEEENS2_4lessIS9_EENS7_IS9_EEEEEC2ISF_EEPKNS_16MatcherInterfaceIT_EE, symObjAddr: 0x1F4A0, symBinAddr: 0x10005C3E0, symSize: 0x360 }
  - { offset: 0x3DBFF, size: 0x8, addend: 0x0, symName: __ZN7testing7MatcherIRKNSt3__13setINS1_12basic_stringIcNS1_11char_traitsIcEENS1_9allocatorIcEEEENS1_4lessIS8_EENS6_IS8_EEEEED0Ev, symObjAddr: 0x1F800, symBinAddr: 0x10005C740, symSize: 0x60 }
  - { offset: 0x3DC2B, size: 0x8, addend: 0x0, symName: __ZNK7testing8internal11MatcherBaseIRKNSt3__13setINS2_12basic_stringIcNS2_11char_traitsIcEENS2_9allocatorIcEEEENS2_4lessIS9_EENS7_IS9_EEEEE18DescribeNegationToEPNS2_13basic_ostreamIcS6_EE, symObjAddr: 0x1F860, symBinAddr: 0x10005C7A0, symSize: 0x580 }
  - { offset: 0x3DC61, size: 0x8, addend: 0x0, symName: __ZN7testing8internal11MatcherBaseIRKNSt3__13setINS2_12basic_stringIcNS2_11char_traitsIcEENS2_9allocatorIcEEEENS2_4lessIS9_EENS7_IS9_EEEEE4InitIRPKNS_16MatcherInterfaceISF_EEEEvOT_, symObjAddr: 0x1FDE0, symBinAddr: 0x10005CD20, symSize: 0x250 }
  - { offset: 0x3DC9F, size: 0x8, addend: 0x0, symName: __ZN7testing8internal11MatcherBaseIRKNSt3__13setINS2_12basic_stringIcNS2_11char_traitsIcEENS2_9allocatorIcEEEENS2_4lessIS9_EENS7_IS9_EEEEED1Ev, symObjAddr: 0x20030, symBinAddr: 0x10005CF70, symSize: 0x50 }
  - { offset: 0x3DCC9, size: 0x8, addend: 0x0, symName: __ZN7testing8internal11MatcherBaseIRKNSt3__13setINS2_12basic_stringIcNS2_11char_traitsIcEENS2_9allocatorIcEEEENS2_4lessIS9_EENS7_IS9_EEEEED0Ev, symObjAddr: 0x20080, symBinAddr: 0x10005CFC0, symSize: 0x60 }
  - { offset: 0x3DCF3, size: 0x8, addend: 0x0, symName: __ZN7testing8internal11MatcherBaseIRKNSt3__13setINS2_12basic_stringIcNS2_11char_traitsIcEENS2_9allocatorIcEEEENS2_4lessIS9_EENS7_IS9_EEEEE11ValuePolicyIPKNS_16MatcherInterfaceISF_EELb1EE4InitERSG_SL_, symObjAddr: 0x20138, symBinAddr: 0x10005D078, symSize: 0x330 }
  - { offset: 0x3DD28, size: 0x8, addend: 0x0, symName: __ZN7testing8internal11MatcherBaseIRKNSt3__13setINS2_12basic_stringIcNS2_11char_traitsIcEENS2_9allocatorIcEEEENS2_4lessIS9_EENS7_IS9_EEEEE19MatchAndExplainImplINSG_11ValuePolicyIPKNS_16MatcherInterfaceISF_EELb1EEEEEDTcldtclsrT_3Getfp_E15MatchAndExplainfp0_fp1_EERKSG_SF_PNS_19MatchResultListenerE, symObjAddr: 0x20468, symBinAddr: 0x10005D3A8, symSize: 0x1F0 }
  - { offset: 0x3DD73, size: 0x8, addend: 0x0, symName: __ZN7testing8internal11MatcherBaseIRKNSt3__13setINS2_12basic_stringIcNS2_11char_traitsIcEENS2_9allocatorIcEEEENS2_4lessIS9_EENS7_IS9_EEEEE12DescribeImplINSG_11ValuePolicyIPKNS_16MatcherInterfaceISF_EELb1EEEEEvRKSG_PNS2_13basic_ostreamIcS6_EEb, symObjAddr: 0x20658, symBinAddr: 0x10005D598, symSize: 0x3B0 }
  - { offset: 0x3DDBE, size: 0x8, addend: 0x0, symName: __ZN7testing8internal11MatcherBaseIRKNSt3__13setINS2_12basic_stringIcNS2_11char_traitsIcEENS2_9allocatorIcEEEENS2_4lessIS9_EENS7_IS9_EEEEE16GetDescriberImplINSG_11ValuePolicyIPKNS_16MatcherInterfaceISF_EELb1EEEEEPKNS_25MatcherDescriberInterfaceERKSG_, symObjAddr: 0x20A08, symBinAddr: 0x10005D948, symSize: 0x2A0 }
  - { offset: 0x3DDEC, size: 0x8, addend: 0x0, symName: __ZN7testing8internal13SharedPayloadINSt3__110unique_ptrIKNS_16MatcherInterfaceIRKNS2_3setINS2_12basic_stringIcNS2_11char_traitsIcEENS2_9allocatorIcEEEENS2_4lessISB_EENS9_ISB_EEEEEENS2_14default_deleteISJ_EEEEE7DestroyEPNS0_17SharedPayloadBaseE, symObjAddr: 0x20CA8, symBinAddr: 0x10005DBE8, symSize: 0xB0 }
  - { offset: 0x3DE0F, size: 0x8, addend: 0x0, symName: __ZN7testing8internal11MatcherBaseIRKNSt3__13setINS2_12basic_stringIcNS2_11char_traitsIcEENS2_9allocatorIcEEEENS2_4lessIS9_EENS7_IS9_EEEEE11ValuePolicyIPKNS_16MatcherInterfaceISF_EELb1EE3GetERKSG_, symObjAddr: 0x20D58, symBinAddr: 0x10005DC98, symSize: 0x188 }
  - { offset: 0x3DE33, size: 0x8, addend: 0x0, symName: __ZNKSt3__110unique_ptrIKN7testing16MatcherInterfaceIRKNS_3setINS_12basic_stringIcNS_11char_traitsIcEENS_9allocatorIcEEEENS_4lessIS9_EENS7_IS9_EEEEEENS_14default_deleteISH_EEEdeB8ne180100Ev, symObjAddr: 0x20EE0, symBinAddr: 0x10005DE20, symSize: 0x120 }
  - { offset: 0x3DE59, size: 0x8, addend: 0x0, symName: __ZNKSt3__117__compressed_pairIPKN7testing16MatcherInterfaceIRKNS_3setINS_12basic_stringIcNS_11char_traitsIcEENS_9allocatorIcEEEENS_4lessIS9_EENS7_IS9_EEEEEENS_14default_deleteISH_EEE5firstB8ne180100Ev, symObjAddr: 0x21000, symBinAddr: 0x10005DF40, symSize: 0xE0 }
  - { offset: 0x3DE7F, size: 0x8, addend: 0x0, symName: __ZNKSt3__122__compressed_pair_elemIPKN7testing16MatcherInterfaceIRKNS_3setINS_12basic_stringIcNS_11char_traitsIcEENS_9allocatorIcEEEENS_4lessIS9_EENS7_IS9_EEEEEELi0ELb0EE5__getB8ne180100Ev, symObjAddr: 0x210E0, symBinAddr: 0x10005E020, symSize: 0x88 }
  - { offset: 0x3DEC6, size: 0x8, addend: 0x0, symName: __ZNSt3__112__tuple_leafILm1EPKN7testing16MatcherInterfaceIRKNS_3setINS_12basic_stringIcNS_11char_traitsIcEENS_9allocatorIcEEEENS_4lessIS9_EENS7_IS9_EEEEEELb0EE3getB8ne180100Ev, symObjAddr: 0x21400, symBinAddr: 0x10005E340, symSize: 0x80 }
  - { offset: 0x3DF6C, size: 0x8, addend: 0x0, symName: __ZNSt3__15tupleIJPKN7testing8internal11MatcherBaseIRKNS_3setINS_12basic_stringIcNS_11char_traitsIcEENS_9allocatorIcEEEENS_4lessISA_EENS8_ISA_EEEEEEPKNS1_16MatcherInterfaceISG_EEEEC1B8ne180100IJSJ_SN_ETnNS_9enable_ifIXsr4_AndINS_17integral_constantIbXeqsZT_sZT_EEENSO_17_EnableUTypesCtorIJDpT_EEEEE5valueEiE4typeELi0EEEDpOSU_, symObjAddr: 0x21480, symBinAddr: 0x10005E3C0, symSize: 0x60 }
  - { offset: 0x3DFCA, size: 0x8, addend: 0x0, symName: __ZNSt3__15tupleIJPKN7testing8internal11MatcherBaseIRKNS_3setINS_12basic_stringIcNS_11char_traitsIcEENS_9allocatorIcEEEENS_4lessISA_EENS8_ISA_EEEEEEPKNS1_16MatcherInterfaceISG_EEEEC2B8ne180100IJSJ_SN_ETnNS_9enable_ifIXsr4_AndINS_17integral_constantIbXeqsZT_sZT_EEENSO_17_EnableUTypesCtorIJDpT_EEEEE5valueEiE4typeELi0EEEDpOSU_, symObjAddr: 0x214E0, symBinAddr: 0x10005E420, symSize: 0xD0 }
  - { offset: 0x3E028, size: 0x8, addend: 0x0, symName: __ZNSt3__112__tuple_implINS_15__tuple_indicesIJLm0ELm1EEEEJPKN7testing8internal11MatcherBaseIRKNS_3setINS_12basic_stringIcNS_11char_traitsIcEENS_9allocatorIcEEEENS_4lessISC_EENSA_ISC_EEEEEEPKNS3_16MatcherInterfaceISI_EEEEC1B8ne180100IJLm0ELm1EEJSL_SP_ETpTnmJEJEJSL_SP_EEENS1_IJXspT_EEEENS_13__tuple_typesIJDpT0_EEENS1_IJXspT1_EEEENST_IJDpT2_EEEDpOT3_, symObjAddr: 0x215B0, symBinAddr: 0x10005E4F0, symSize: 0x60 }
  - { offset: 0x3E0DE, size: 0x8, addend: 0x0, symName: __ZNSt3__112__tuple_implINS_15__tuple_indicesIJLm0ELm1EEEEJPKN7testing8internal11MatcherBaseIRKNS_3setINS_12basic_stringIcNS_11char_traitsIcEENS_9allocatorIcEEEENS_4lessISC_EENSA_ISC_EEEEEEPKNS3_16MatcherInterfaceISI_EEEEC2B8ne180100IJLm0ELm1EEJSL_SP_ETpTnmJEJEJSL_SP_EEENS1_IJXspT_EEEENS_13__tuple_typesIJDpT0_EEENS1_IJXspT1_EEEENST_IJDpT2_EEEDpOT3_, symObjAddr: 0x21610, symBinAddr: 0x10005E550, symSize: 0x140 }
  - { offset: 0x3E194, size: 0x8, addend: 0x0, symName: __ZNSt3__112__tuple_leafILm0EPKN7testing8internal11MatcherBaseIRKNS_3setINS_12basic_stringIcNS_11char_traitsIcEENS_9allocatorIcEEEENS_4lessISA_EENS8_ISA_EEEEEELb0EEC2B8ne180100ISJ_vEEOT_, symObjAddr: 0x21750, symBinAddr: 0x10005E690, symSize: 0xF0 }
  - { offset: 0x3E1D7, size: 0x8, addend: 0x0, symName: __ZNSt3__112__tuple_leafILm1EPKN7testing16MatcherInterfaceIRKNS_3setINS_12basic_stringIcNS_11char_traitsIcEENS_9allocatorIcEEEENS_4lessIS9_EENS7_IS9_EEEEEELb0EEC2B8ne180100ISI_vEEOT_, symObjAddr: 0x21840, symBinAddr: 0x10005E780, symSize: 0xF0 }
  - { offset: 0x3E21A, size: 0x8, addend: 0x0, symName: __ZN7testing8internal13SharedPayloadINSt3__110unique_ptrIKNS_16MatcherInterfaceIRKNS2_3setINS2_12basic_stringIcNS2_11char_traitsIcEENS2_9allocatorIcEEEENS2_4lessISB_EENS9_ISB_EEEEEENS2_14default_deleteISJ_EEEEED1Ev, symObjAddr: 0x21930, symBinAddr: 0x10005E870, symSize: 0x50 }
  - { offset: 0x3E246, size: 0x8, addend: 0x0, symName: __ZN7testing8internal13SharedPayloadINSt3__110unique_ptrIKNS_16MatcherInterfaceIRKNS2_3setINS2_12basic_stringIcNS2_11char_traitsIcEENS2_9allocatorIcEEEENS2_4lessISB_EENS9_ISB_EEEEEENS2_14default_deleteISJ_EEEEED2Ev, symObjAddr: 0x21980, symBinAddr: 0x10005E8C0, symSize: 0x60 }
  - { offset: 0x3E272, size: 0x8, addend: 0x0, symName: __ZNSt3__110unique_ptrIKN7testing16MatcherInterfaceIRKNS_3setINS_12basic_stringIcNS_11char_traitsIcEENS_9allocatorIcEEEENS_4lessIS9_EENS7_IS9_EEEEEENS_14default_deleteISH_EEED1B8ne180100Ev, symObjAddr: 0x219E0, symBinAddr: 0x10005E920, symSize: 0x50 }
  - { offset: 0x3E29C, size: 0x8, addend: 0x0, symName: __ZNSt3__110unique_ptrIKN7testing16MatcherInterfaceIRKNS_3setINS_12basic_stringIcNS_11char_traitsIcEENS_9allocatorIcEEEENS_4lessIS9_EENS7_IS9_EEEEEENS_14default_deleteISH_EEED2B8ne180100Ev, symObjAddr: 0x21A30, symBinAddr: 0x10005E970, symSize: 0x60 }
  - { offset: 0x3E2C6, size: 0x8, addend: 0x0, symName: __ZNSt3__110unique_ptrIKN7testing16MatcherInterfaceIRKNS_3setINS_12basic_stringIcNS_11char_traitsIcEENS_9allocatorIcEEEENS_4lessIS9_EENS7_IS9_EEEEEENS_14default_deleteISH_EEE5resetB8ne180100EPSH_, symObjAddr: 0x21A90, symBinAddr: 0x10005E9D0, symSize: 0x210 }
  - { offset: 0x3E30A, size: 0x8, addend: 0x0, symName: __ZNSt3__117__compressed_pairIPKN7testing16MatcherInterfaceIRKNS_3setINS_12basic_stringIcNS_11char_traitsIcEENS_9allocatorIcEEEENS_4lessIS9_EENS7_IS9_EEEEEENS_14default_deleteISH_EEE5firstB8ne180100Ev, symObjAddr: 0x21CA0, symBinAddr: 0x10005EBE0, symSize: 0xE0 }
  - { offset: 0x3E330, size: 0x8, addend: 0x0, symName: __ZNSt3__117__compressed_pairIPKN7testing16MatcherInterfaceIRKNS_3setINS_12basic_stringIcNS_11char_traitsIcEENS_9allocatorIcEEEENS_4lessIS9_EENS7_IS9_EEEEEENS_14default_deleteISH_EEE6secondB8ne180100Ev, symObjAddr: 0x21D80, symBinAddr: 0x10005ECC0, symSize: 0xC0 }
  - { offset: 0x3E356, size: 0x8, addend: 0x0, symName: __ZNKSt3__114default_deleteIKN7testing16MatcherInterfaceIRKNS_3setINS_12basic_stringIcNS_11char_traitsIcEENS_9allocatorIcEEEENS_4lessIS9_EENS7_IS9_EEEEEEEclB8ne180100EPSH_, symObjAddr: 0x21E40, symBinAddr: 0x10005ED80, symSize: 0x190 }
  - { offset: 0x3E38A, size: 0x8, addend: 0x0, symName: __ZNSt3__122__compressed_pair_elemIPKN7testing16MatcherInterfaceIRKNS_3setINS_12basic_stringIcNS_11char_traitsIcEENS_9allocatorIcEEEENS_4lessIS9_EENS7_IS9_EEEEEELi0ELb0EE5__getB8ne180100Ev, symObjAddr: 0x21FD0, symBinAddr: 0x10005EF10, symSize: 0x80 }
  - { offset: 0x3E3B0, size: 0x8, addend: 0x0, symName: __ZNSt3__122__compressed_pair_elemINS_14default_deleteIKN7testing16MatcherInterfaceIRKNS_3setINS_12basic_stringIcNS_11char_traitsIcEENS_9allocatorIcEEEENS_4lessISA_EENS8_ISA_EEEEEEEELi1ELb1EE5__getB8ne180100Ev, symObjAddr: 0x22050, symBinAddr: 0x10005EF90, symSize: 0x60 }
  - { offset: 0x3E3D6, size: 0x8, addend: 0x0, symName: __ZNSt3__110unique_ptrIKN7testing16MatcherInterfaceIRKNS_3setINS_12basic_stringIcNS_11char_traitsIcEENS_9allocatorIcEEEENS_4lessIS9_EENS7_IS9_EEEEEENS_14default_deleteISH_EEEC1B8ne180100ILb1EvEEPSH_, symObjAddr: 0x220B0, symBinAddr: 0x10005EFF0, symSize: 0x60 }
  - { offset: 0x3E419, size: 0x8, addend: 0x0, symName: __ZN7testing8internal13SharedPayloadINSt3__110unique_ptrIKNS_16MatcherInterfaceIRKNS2_3setINS2_12basic_stringIcNS2_11char_traitsIcEENS2_9allocatorIcEEEENS2_4lessISB_EENS9_ISB_EEEEEENS2_14default_deleteISJ_EEEEEC1EOSM_, symObjAddr: 0x22110, symBinAddr: 0x10005F050, symSize: 0x60 }
  - { offset: 0x3E451, size: 0x8, addend: 0x0, symName: __ZNSt3__110unique_ptrIKN7testing16MatcherInterfaceIRKNS_3setINS_12basic_stringIcNS_11char_traitsIcEENS_9allocatorIcEEEENS_4lessIS9_EENS7_IS9_EEEEEENS_14default_deleteISH_EEEC2B8ne180100ILb1EvEEPSH_, symObjAddr: 0x22170, symBinAddr: 0x10005F0B0, symSize: 0x1D0 }
  - { offset: 0x3E49F, size: 0x8, addend: 0x0, symName: __ZNSt3__117__compressed_pairIPKN7testing16MatcherInterfaceIRKNS_3setINS_12basic_stringIcNS_11char_traitsIcEENS_9allocatorIcEEEENS_4lessIS9_EENS7_IS9_EEEEEENS_14default_deleteISH_EEEC1B8ne180100IRSI_NS_16__value_init_tagEEEOT_OT0_, symObjAddr: 0x22340, symBinAddr: 0x10005F280, symSize: 0x60 }
  - { offset: 0x3E4F7, size: 0x8, addend: 0x0, symName: __ZNSt3__117__compressed_pairIPKN7testing16MatcherInterfaceIRKNS_3setINS_12basic_stringIcNS_11char_traitsIcEENS_9allocatorIcEEEENS_4lessIS9_EENS7_IS9_EEEEEENS_14default_deleteISH_EEEC2B8ne180100IRSI_NS_16__value_init_tagEEEOT_OT0_, symObjAddr: 0x223A0, symBinAddr: 0x10005F2E0, symSize: 0xF0 }
  - { offset: 0x3E54F, size: 0x8, addend: 0x0, symName: __ZNSt3__122__compressed_pair_elemIPKN7testing16MatcherInterfaceIRKNS_3setINS_12basic_stringIcNS_11char_traitsIcEENS_9allocatorIcEEEENS_4lessIS9_EENS7_IS9_EEEEEELi0ELb0EEC2B8ne180100IRSI_vEEOT_, symObjAddr: 0x22490, symBinAddr: 0x10005F3D0, symSize: 0xF0 }
  - { offset: 0x3E591, size: 0x8, addend: 0x0, symName: __ZNSt3__122__compressed_pair_elemINS_14default_deleteIKN7testing16MatcherInterfaceIRKNS_3setINS_12basic_stringIcNS_11char_traitsIcEENS_9allocatorIcEEEENS_4lessISA_EENS8_ISA_EEEEEEEELi1ELb1EEC2B8ne180100ENS_16__value_init_tagE, symObjAddr: 0x22580, symBinAddr: 0x10005F4C0, symSize: 0x40 }
  - { offset: 0x3E5C6, size: 0x8, addend: 0x0, symName: __ZN7testing8internal13SharedPayloadINSt3__110unique_ptrIKNS_16MatcherInterfaceIRKNS2_3setINS2_12basic_stringIcNS2_11char_traitsIcEENS2_9allocatorIcEEEENS2_4lessISB_EENS9_ISB_EEEEEENS2_14default_deleteISJ_EEEEEC2EOSM_, symObjAddr: 0x225C0, symBinAddr: 0x10005F500, symSize: 0xD0 }
  - { offset: 0x3E5FE, size: 0x8, addend: 0x0, symName: __ZNSt3__110unique_ptrIKN7testing16MatcherInterfaceIRKNS_3setINS_12basic_stringIcNS_11char_traitsIcEENS_9allocatorIcEEEENS_4lessIS9_EENS7_IS9_EEEEEENS_14default_deleteISH_EEEC1B8ne180100EOSK_, symObjAddr: 0x226F0, symBinAddr: 0x10005F5D0, symSize: 0x60 }
  - { offset: 0x3E636, size: 0x8, addend: 0x0, symName: __ZNSt3__110unique_ptrIKN7testing16MatcherInterfaceIRKNS_3setINS_12basic_stringIcNS_11char_traitsIcEENS_9allocatorIcEEEENS_4lessIS9_EENS7_IS9_EEEEEENS_14default_deleteISH_EEEC2B8ne180100EOSK_, symObjAddr: 0x22AC0, symBinAddr: 0x10005F630, symSize: 0x230 }
  - { offset: 0x3E670, size: 0x8, addend: 0x0, symName: __ZNSt3__110unique_ptrIKN7testing16MatcherInterfaceIRKNS_3setINS_12basic_stringIcNS_11char_traitsIcEENS_9allocatorIcEEEENS_4lessIS9_EENS7_IS9_EEEEEENS_14default_deleteISH_EEE7releaseB8ne180100Ev, symObjAddr: 0x22CF0, symBinAddr: 0x10005F860, symSize: 0x190 }
  - { offset: 0x3E6A5, size: 0x8, addend: 0x0, symName: __ZNSt3__110unique_ptrIKN7testing16MatcherInterfaceIRKNS_3setINS_12basic_stringIcNS_11char_traitsIcEENS_9allocatorIcEEEENS_4lessIS9_EENS7_IS9_EEEEEENS_14default_deleteISH_EEE11get_deleterB8ne180100Ev, symObjAddr: 0x22E80, symBinAddr: 0x10005F9F0, symSize: 0xB0 }
  - { offset: 0x3E6D1, size: 0x8, addend: 0x0, symName: __ZNSt3__117__compressed_pairIPKN7testing16MatcherInterfaceIRKNS_3setINS_12basic_stringIcNS_11char_traitsIcEENS_9allocatorIcEEEENS_4lessIS9_EENS7_IS9_EEEEEENS_14default_deleteISH_EEEC1B8ne180100ISI_SK_EEOT_OT0_, symObjAddr: 0x22F30, symBinAddr: 0x10005FAA0, symSize: 0x60 }
  - { offset: 0x3E729, size: 0x8, addend: 0x0, symName: __ZNSt3__117__compressed_pairIPKN7testing16MatcherInterfaceIRKNS_3setINS_12basic_stringIcNS_11char_traitsIcEENS_9allocatorIcEEEENS_4lessIS9_EENS7_IS9_EEEEEENS_14default_deleteISH_EEEC2B8ne180100ISI_SK_EEOT_OT0_, symObjAddr: 0x22F90, symBinAddr: 0x10005FB00, symSize: 0x110 }
  - { offset: 0x3E781, size: 0x8, addend: 0x0, symName: __ZNSt3__122__compressed_pair_elemIPKN7testing16MatcherInterfaceIRKNS_3setINS_12basic_stringIcNS_11char_traitsIcEENS_9allocatorIcEEEENS_4lessIS9_EENS7_IS9_EEEEEELi0ELb0EEC2B8ne180100ISI_vEEOT_, symObjAddr: 0x230A0, symBinAddr: 0x10005FC10, symSize: 0xF0 }
  - { offset: 0x3E7C3, size: 0x8, addend: 0x0, symName: __ZNSt3__122__compressed_pair_elemINS_14default_deleteIKN7testing16MatcherInterfaceIRKNS_3setINS_12basic_stringIcNS_11char_traitsIcEENS_9allocatorIcEEEENS_4lessISA_EENS8_ISA_EEEEEEEELi1ELb1EEC2B8ne180100ISJ_vEEOT_, symObjAddr: 0x23190, symBinAddr: 0x10005FD00, symSize: 0x40 }
  - { offset: 0x3E805, size: 0x8, addend: 0x0, symName: __ZN7testing8internal11MatcherBaseIRKNSt3__13setINS2_12basic_stringIcNS2_11char_traitsIcEENS2_9allocatorIcEEEENS2_4lessIS9_EENS7_IS9_EEEEED2Ev, symObjAddr: 0x231D0, symBinAddr: 0x10005FD40, symSize: 0x130 }
  - { offset: 0x3E82F, size: 0x8, addend: 0x0, symName: __ZN7testing8internal11MatcherBaseIRKNSt3__13setINS2_12basic_stringIcNS2_11char_traitsIcEENS2_9allocatorIcEEEENS2_4lessIS9_EENS7_IS9_EEEEE7DestroyEv, symObjAddr: 0x23300, symBinAddr: 0x10005FE70, symSize: 0x4A0 }
  - { offset: 0x3E855, size: 0x8, addend: 0x0, symName: __ZNK7testing8internal11MatcherBaseIRKNSt3__13setINS2_12basic_stringIcNS2_11char_traitsIcEENS2_9allocatorIcEEEENS2_4lessIS9_EENS7_IS9_EEEEE8IsSharedEv, symObjAddr: 0x237A0, symBinAddr: 0x100060310, symSize: 0x280 }
  - { offset: 0x3E87B, size: 0x8, addend: 0x0, symName: __ZNK7testing8internal11MatcherBaseIRKNSt3__13setINS2_12basic_stringIcNS2_11char_traitsIcEENS2_9allocatorIcEEEENS2_4lessIS9_EENS7_IS9_EEEEE15MatchAndExplainESF_PNS_19MatchResultListenerE, symObjAddr: 0x23EC0, symBinAddr: 0x100060590, symSize: 0x5B0 }
  - { offset: 0x3E906, size: 0x8, addend: 0x0, symName: __ZN7testing7MatcherIRKNSt3__13setINS1_12basic_stringIcNS1_11char_traitsIcEENS1_9allocatorIcEEEENS1_4lessIS8_EENS6_IS8_EEEEED2Ev, symObjAddr: 0x2B020, symBinAddr: 0x100060B90, symSize: 0x50 }
  - { offset: 0x3E932, size: 0x8, addend: 0x0, symName: __ZN7testing8internal29PredicateFormatterFromMatcherINS_18PolymorphicMatcherINS0_18ContainerEqMatcherINSt3__13setINS4_12basic_stringIcNS4_11char_traitsIcEENS4_9allocatorIcEEEENS4_4lessISB_EENS9_ISB_EEEEEEEEED2Ev, symObjAddr: 0x2B070, symBinAddr: 0x100060BE0, symSize: 0x50 }
  - { offset: 0x3E95F, size: 0x8, addend: 0x0, symName: __ZN7testing18PolymorphicMatcherINS_8internal18ContainerEqMatcherINSt3__13setINS3_12basic_stringIcNS3_11char_traitsIcEENS3_9allocatorIcEEEENS3_4lessISA_EENS8_ISA_EEEEEEED2Ev, symObjAddr: 0x2B0C0, symBinAddr: 0x100060C30, symSize: 0x50 }
  - { offset: 0x3E98C, size: 0x8, addend: 0x0, symName: __ZN7testing8internal15TestFactoryImplIN12_GLOBAL__N_127FindQueryMatches_Union_TestEEC2Ev, symObjAddr: 0x2BA20, symBinAddr: 0x100060C80, symSize: 0xC0 }
  - { offset: 0x3E9B9, size: 0x8, addend: 0x0, symName: __ZN7testing8internal15TestFactoryImplIN12_GLOBAL__N_127FindQueryMatches_Union_TestEED1Ev, symObjAddr: 0x2BAE0, symBinAddr: 0x100060D40, symSize: 0x50 }
  - { offset: 0x3E9E6, size: 0x8, addend: 0x0, symName: __ZN7testing8internal15TestFactoryImplIN12_GLOBAL__N_127FindQueryMatches_Union_TestEED0Ev, symObjAddr: 0x2BB30, symBinAddr: 0x100060D90, symSize: 0x60 }
  - { offset: 0x3EA13, size: 0x8, addend: 0x0, symName: __ZN7testing8internal15TestFactoryImplIN12_GLOBAL__N_127FindQueryMatches_Union_TestEE10CreateTestEv, symObjAddr: 0x2BB90, symBinAddr: 0x100060DF0, symSize: 0xF0 }
  - { offset: 0x3EA39, size: 0x8, addend: 0x0, symName: __ZN7testing8internal15TestFactoryImplIN12_GLOBAL__N_127FindQueryMatches_Union_TestEED2Ev, symObjAddr: 0x2BC80, symBinAddr: 0x100060EE0, symSize: 0x50 }
  - { offset: 0x3EA66, size: 0x8, addend: 0x0, symName: __ZN12_GLOBAL__N_127FindQueryMatches_Union_TestC1Ev, symObjAddr: 0x2BCD0, symBinAddr: 0x100060F30, symSize: 0x50 }
  - { offset: 0x3EA90, size: 0x8, addend: 0x0, symName: __ZN12_GLOBAL__N_127FindQueryMatches_Union_TestC2Ev, symObjAddr: 0x2BD20, symBinAddr: 0x100060F80, symSize: 0xC0 }
  - { offset: 0x3EABA, size: 0x8, addend: 0x0, symName: __ZN12_GLOBAL__N_127FindQueryMatches_Union_TestD1Ev, symObjAddr: 0x2BDE0, symBinAddr: 0x100061040, symSize: 0x50 }
  - { offset: 0x3EAE4, size: 0x8, addend: 0x0, symName: __ZN12_GLOBAL__N_127FindQueryMatches_Union_TestD0Ev, symObjAddr: 0x2BE30, symBinAddr: 0x100061090, symSize: 0x60 }
  - { offset: 0x3EB0E, size: 0x8, addend: 0x0, symName: __ZN12_GLOBAL__N_127FindQueryMatches_Union_Test8TestBodyEv, symObjAddr: 0x2BE90, symBinAddr: 0x1000610F0, symSize: 0x1500 }
  - { offset: 0x3EB95, size: 0x8, addend: 0x0, symName: __ZN12_GLOBAL__N_127FindQueryMatches_Union_TestD2Ev, symObjAddr: 0x2D390, symBinAddr: 0x1000625F0, symSize: 0x50 }
  - { offset: 0x3EBBF, size: 0x8, addend: 0x0, symName: __ZN7testing8internal15TestFactoryImplIN12_GLOBAL__N_134FindQueryMatches_Intersection_TestEEC2Ev, symObjAddr: 0x2D3E0, symBinAddr: 0x100062640, symSize: 0xC0 }
  - { offset: 0x3EBEC, size: 0x8, addend: 0x0, symName: __ZN7testing8internal15TestFactoryImplIN12_GLOBAL__N_134FindQueryMatches_Intersection_TestEED1Ev, symObjAddr: 0x2D4A0, symBinAddr: 0x100062700, symSize: 0x50 }
  - { offset: 0x3EC19, size: 0x8, addend: 0x0, symName: __ZN7testing8internal15TestFactoryImplIN12_GLOBAL__N_134FindQueryMatches_Intersection_TestEED0Ev, symObjAddr: 0x2D4F0, symBinAddr: 0x100062750, symSize: 0x60 }
  - { offset: 0x3EC46, size: 0x8, addend: 0x0, symName: __ZN7testing8internal15TestFactoryImplIN12_GLOBAL__N_134FindQueryMatches_Intersection_TestEE10CreateTestEv, symObjAddr: 0x2D550, symBinAddr: 0x1000627B0, symSize: 0xF0 }
  - { offset: 0x3EC6C, size: 0x8, addend: 0x0, symName: __ZN7testing8internal15TestFactoryImplIN12_GLOBAL__N_134FindQueryMatches_Intersection_TestEED2Ev, symObjAddr: 0x2D640, symBinAddr: 0x1000628A0, symSize: 0x50 }
  - { offset: 0x3EC99, size: 0x8, addend: 0x0, symName: __ZN12_GLOBAL__N_134FindQueryMatches_Intersection_TestC1Ev, symObjAddr: 0x2D690, symBinAddr: 0x1000628F0, symSize: 0x50 }
  - { offset: 0x3ECC3, size: 0x8, addend: 0x0, symName: __ZN12_GLOBAL__N_134FindQueryMatches_Intersection_TestC2Ev, symObjAddr: 0x2D6E0, symBinAddr: 0x100062940, symSize: 0xC0 }
  - { offset: 0x3ECED, size: 0x8, addend: 0x0, symName: __ZN12_GLOBAL__N_134FindQueryMatches_Intersection_TestD1Ev, symObjAddr: 0x2D7A0, symBinAddr: 0x100062A00, symSize: 0x50 }
  - { offset: 0x3ED17, size: 0x8, addend: 0x0, symName: __ZN12_GLOBAL__N_134FindQueryMatches_Intersection_TestD0Ev, symObjAddr: 0x2D7F0, symBinAddr: 0x100062A50, symSize: 0x60 }
  - { offset: 0x3ED41, size: 0x8, addend: 0x0, symName: __ZN12_GLOBAL__N_134FindQueryMatches_Intersection_Test8TestBodyEv, symObjAddr: 0x2D850, symBinAddr: 0x100062AB0, symSize: 0x1C40 }
  - { offset: 0x3EDE2, size: 0x8, addend: 0x0, symName: __ZN12_GLOBAL__N_134FindQueryMatches_Intersection_TestD2Ev, symObjAddr: 0x2F490, symBinAddr: 0x1000646F0, symSize: 0x50 }
  - { offset: 0x3EE0C, size: 0x8, addend: 0x0, symName: __ZNSt16initializer_listINSt3__112basic_stringIcNS0_11char_traitsIcEENS0_9allocatorIcEEEEEC1B8ne180100Ev, symObjAddr: 0x2F4E0, symBinAddr: 0x100064740, symSize: 0x50 }
  - { offset: 0x3EE36, size: 0x8, addend: 0x0, symName: __ZNSt16initializer_listINSt3__112basic_stringIcNS0_11char_traitsIcEENS0_9allocatorIcEEEEEC2B8ne180100Ev, symObjAddr: 0x2F530, symBinAddr: 0x100064790, symSize: 0xC0 }
  - { offset: 0x3EE60, size: 0x8, addend: 0x0, symName: __ZN7testing8internal15TestFactoryImplIN12_GLOBAL__N_132FindQueryMatches_Difference_TestEEC2Ev, symObjAddr: 0x2F5F0, symBinAddr: 0x100064850, symSize: 0xC0 }
  - { offset: 0x3EE8D, size: 0x8, addend: 0x0, symName: __ZN7testing8internal15TestFactoryImplIN12_GLOBAL__N_132FindQueryMatches_Difference_TestEED1Ev, symObjAddr: 0x2F6B0, symBinAddr: 0x100064910, symSize: 0x50 }
  - { offset: 0x3EEBA, size: 0x8, addend: 0x0, symName: __ZN7testing8internal15TestFactoryImplIN12_GLOBAL__N_132FindQueryMatches_Difference_TestEED0Ev, symObjAddr: 0x2F700, symBinAddr: 0x100064960, symSize: 0x60 }
  - { offset: 0x3EEE7, size: 0x8, addend: 0x0, symName: __ZN7testing8internal15TestFactoryImplIN12_GLOBAL__N_132FindQueryMatches_Difference_TestEE10CreateTestEv, symObjAddr: 0x2F760, symBinAddr: 0x1000649C0, symSize: 0xF0 }
  - { offset: 0x3EF0D, size: 0x8, addend: 0x0, symName: __ZN7testing8internal15TestFactoryImplIN12_GLOBAL__N_132FindQueryMatches_Difference_TestEED2Ev, symObjAddr: 0x2F850, symBinAddr: 0x100064AB0, symSize: 0x50 }
  - { offset: 0x3EF3A, size: 0x8, addend: 0x0, symName: __ZN12_GLOBAL__N_132FindQueryMatches_Difference_TestC1Ev, symObjAddr: 0x2F8A0, symBinAddr: 0x100064B00, symSize: 0x50 }
  - { offset: 0x3EF64, size: 0x8, addend: 0x0, symName: __ZN12_GLOBAL__N_132FindQueryMatches_Difference_TestC2Ev, symObjAddr: 0x2F8F0, symBinAddr: 0x100064B50, symSize: 0xC0 }
  - { offset: 0x3EF8E, size: 0x8, addend: 0x0, symName: __ZN12_GLOBAL__N_132FindQueryMatches_Difference_TestD1Ev, symObjAddr: 0x2F9B0, symBinAddr: 0x100064C10, symSize: 0x50 }
  - { offset: 0x3EFB8, size: 0x8, addend: 0x0, symName: __ZN12_GLOBAL__N_132FindQueryMatches_Difference_TestD0Ev, symObjAddr: 0x2FA00, symBinAddr: 0x100064C60, symSize: 0x60 }
  - { offset: 0x3EFE2, size: 0x8, addend: 0x0, symName: __ZN12_GLOBAL__N_132FindQueryMatches_Difference_Test8TestBodyEv, symObjAddr: 0x2FA60, symBinAddr: 0x100064CC0, symSize: 0x2190 }
  - { offset: 0x3F09D, size: 0x8, addend: 0x0, symName: __ZN12_GLOBAL__N_132FindQueryMatches_Difference_TestD2Ev, symObjAddr: 0x31BF0, symBinAddr: 0x100066E50, symSize: 0x50 }
  - { offset: 0x3F0C7, size: 0x8, addend: 0x0, symName: __ZN7testing8internal15TestFactoryImplIN12_GLOBAL__N_141FindQueryMatches_LongCombinedQueries_TestEEC2Ev, symObjAddr: 0x31C40, symBinAddr: 0x100066EA0, symSize: 0xC0 }
  - { offset: 0x3F0F4, size: 0x8, addend: 0x0, symName: __ZN7testing8internal15TestFactoryImplIN12_GLOBAL__N_141FindQueryMatches_LongCombinedQueries_TestEED1Ev, symObjAddr: 0x31D00, symBinAddr: 0x100066F60, symSize: 0x50 }
  - { offset: 0x3F121, size: 0x8, addend: 0x0, symName: __ZN7testing8internal15TestFactoryImplIN12_GLOBAL__N_141FindQueryMatches_LongCombinedQueries_TestEED0Ev, symObjAddr: 0x31D50, symBinAddr: 0x100066FB0, symSize: 0x60 }
  - { offset: 0x3F14E, size: 0x8, addend: 0x0, symName: __ZN7testing8internal15TestFactoryImplIN12_GLOBAL__N_141FindQueryMatches_LongCombinedQueries_TestEE10CreateTestEv, symObjAddr: 0x31DB0, symBinAddr: 0x100067010, symSize: 0xF0 }
  - { offset: 0x3F174, size: 0x8, addend: 0x0, symName: __ZN7testing8internal15TestFactoryImplIN12_GLOBAL__N_141FindQueryMatches_LongCombinedQueries_TestEED2Ev, symObjAddr: 0x31EA0, symBinAddr: 0x100067100, symSize: 0x50 }
  - { offset: 0x3F1A1, size: 0x8, addend: 0x0, symName: __ZN12_GLOBAL__N_141FindQueryMatches_LongCombinedQueries_TestC1Ev, symObjAddr: 0x31EF0, symBinAddr: 0x100067150, symSize: 0x50 }
  - { offset: 0x3F1CB, size: 0x8, addend: 0x0, symName: __ZN12_GLOBAL__N_141FindQueryMatches_LongCombinedQueries_TestC2Ev, symObjAddr: 0x31F40, symBinAddr: 0x1000671A0, symSize: 0xC0 }
  - { offset: 0x3F1F5, size: 0x8, addend: 0x0, symName: __ZN12_GLOBAL__N_141FindQueryMatches_LongCombinedQueries_TestD1Ev, symObjAddr: 0x32000, symBinAddr: 0x100067260, symSize: 0x50 }
  - { offset: 0x3F21F, size: 0x8, addend: 0x0, symName: __ZN12_GLOBAL__N_141FindQueryMatches_LongCombinedQueries_TestD0Ev, symObjAddr: 0x32050, symBinAddr: 0x1000672B0, symSize: 0x60 }
  - { offset: 0x3F249, size: 0x8, addend: 0x0, symName: __ZN12_GLOBAL__N_141FindQueryMatches_LongCombinedQueries_Test8TestBodyEv, symObjAddr: 0x320B0, symBinAddr: 0x100067310, symSize: 0x1590 }
  - { offset: 0x3F2D0, size: 0x8, addend: 0x0, symName: __ZN12_GLOBAL__N_141FindQueryMatches_LongCombinedQueries_TestD2Ev, symObjAddr: 0x33640, symBinAddr: 0x1000688A0, symSize: 0x50 }
  - { offset: 0x412B1, size: 0x8, addend: 0x0, symName: _.str, symObjAddr: 0x2BD00, symBinAddr: 0x1001D0800, symSize: 0x0 }
  - { offset: 0x412E1, size: 0x8, addend: 0x0, symName: _.str.1, symObjAddr: 0x2BD20, symBinAddr: 0x1001D0820, symSize: 0x0 }
  - { offset: 0x412FD, size: 0x8, addend: 0x0, symName: __ZN12_GLOBAL__N_127GatherTokens_BasicTest_Test10test_info_E, symObjAddr: 0xC1A00, symBinAddr: 0x1002EFC00, symSize: 0x0 }
  - { offset: 0x413C9, size: 0x8, addend: 0x0, symName: __ZN12_GLOBAL__N_121GatherTokens_Nom_Test10test_info_E, symObjAddr: 0xC1A20, symBinAddr: 0x1002EFC20, symSize: 0x0 }
  - { offset: 0x41495, size: 0x8, addend: 0x0, symName: __ZN12_GLOBAL__N_124GatherTokens_Colors_Test10test_info_E, symObjAddr: 0xC1A40, symBinAddr: 0x1002EFC40, symSize: 0x0 }
  - { offset: 0x4A8BD, size: 0x8, addend: 0x0, symName: _.str.4, symObjAddr: 0x2BD40, symBinAddr: 0x1001D0840, symSize: 0x0 }
  - { offset: 0x4A8F6, size: 0x8, addend: 0x0, symName: _.str.6, symObjAddr: 0x2BD60, symBinAddr: 0x1001D0860, symSize: 0x0 }
  - { offset: 0x4A92F, size: 0x8, addend: 0x0, symName: _.str.10, symObjAddr: 0x2BE60, symBinAddr: 0x1001D0960, symSize: 0x0 }
  - { offset: 0x4A94C, size: 0x8, addend: 0x0, symName: _.str.11, symObjAddr: 0x2BEA0, symBinAddr: 0x1001D09A0, symSize: 0x0 }
  - { offset: 0x4A969, size: 0x8, addend: 0x0, symName: _.str.12, symObjAddr: 0x2BEC0, symBinAddr: 0x1001D09C0, symSize: 0x0 }
  - { offset: 0x4A97A, size: 0x8, addend: 0x0, symName: _.str.13, symObjAddr: 0x2BEE0, symBinAddr: 0x1001D09E0, symSize: 0x0 }
  - { offset: 0x4A98B, size: 0x8, addend: 0x0, symName: _.str.14, symObjAddr: 0x2BF00, symBinAddr: 0x1001D0A00, symSize: 0x0 }
  - { offset: 0x4A99C, size: 0x8, addend: 0x0, symName: _.str.15, symObjAddr: 0x2BF20, symBinAddr: 0x1001D0A20, symSize: 0x0 }
  - { offset: 0x4A9AD, size: 0x8, addend: 0x0, symName: _.str.16, symObjAddr: 0x2BF60, symBinAddr: 0x1001D0A60, symSize: 0x0 }
  - { offset: 0x4A9BE, size: 0x8, addend: 0x0, symName: _.str.17, symObjAddr: 0x2BF80, symBinAddr: 0x1001D0A80, symSize: 0x0 }
  - { offset: 0x4A9DD, size: 0x8, addend: 0x0, symName: _.str.35, symObjAddr: 0x2BFA0, symBinAddr: 0x1001D0AA0, symSize: 0x0 }
  - { offset: 0x4A9FC, size: 0x8, addend: 0x0, symName: _.str.36, symObjAddr: 0x2BFC0, symBinAddr: 0x1001D0AC0, symSize: 0x0 }
  - { offset: 0x4AA0F, size: 0x8, addend: 0x0, symName: _.str.37, symObjAddr: 0x2BFE0, symBinAddr: 0x1001D0AE0, symSize: 0x0 }
  - { offset: 0x4AA22, size: 0x8, addend: 0x0, symName: _.str.38, symObjAddr: 0x2C000, symBinAddr: 0x1001D0B00, symSize: 0x0 }
  - { offset: 0x4AA41, size: 0x8, addend: 0x0, symName: _.str.39, symObjAddr: 0x2C0A0, symBinAddr: 0x1001D0BA0, symSize: 0x0 }
  - { offset: 0x4AA5E, size: 0x8, addend: 0x0, symName: _.str.40, symObjAddr: 0x2C0C0, symBinAddr: 0x1001D0BC0, symSize: 0x0 }
  - { offset: 0x4AA7B, size: 0x8, addend: 0x0, symName: _.str.41, symObjAddr: 0x2C0E0, symBinAddr: 0x1001D0BE0, symSize: 0x0 }
  - { offset: 0x4AA8E, size: 0x8, addend: 0x0, symName: _.str.42, symObjAddr: 0x2C100, symBinAddr: 0x1001D0C00, symSize: 0x0 }
  - { offset: 0x4AAAB, size: 0x8, addend: 0x0, symName: _.str.44, symObjAddr: 0x2C120, symBinAddr: 0x1001D0C20, symSize: 0x0 }
  - { offset: 0x4AACA, size: 0x8, addend: 0x0, symName: _.str.51, symObjAddr: 0x2C140, symBinAddr: 0x1001D0C40, symSize: 0x0 }
  - { offset: 0x4AAE9, size: 0x8, addend: 0x0, symName: _.str.52, symObjAddr: 0x2C160, symBinAddr: 0x1001D0C60, symSize: 0x0 }
  - { offset: 0x4AAFC, size: 0x8, addend: 0x0, symName: _.str.53, symObjAddr: 0x2C180, symBinAddr: 0x1001D0C80, symSize: 0x0 }
  - { offset: 0x4AB1B, size: 0x8, addend: 0x0, symName: _.str.54, symObjAddr: 0x2C1E0, symBinAddr: 0x1001D0CE0, symSize: 0x0 }
  - { offset: 0x4AB2E, size: 0x8, addend: 0x0, symName: _.str.55, symObjAddr: 0x2C200, symBinAddr: 0x1001D0D00, symSize: 0x0 }
  - { offset: 0x4AB41, size: 0x8, addend: 0x0, symName: _.str.56, symObjAddr: 0x2C220, symBinAddr: 0x1001D0D20, symSize: 0x0 }
  - { offset: 0x4AE99, size: 0x8, addend: 0x0, symName: _.str.62, symObjAddr: 0x2C280, symBinAddr: 0x1001D0D80, symSize: 0x0 }
  - { offset: 0x4AEAC, size: 0x8, addend: 0x0, symName: _.str.66, symObjAddr: 0x2C2E0, symBinAddr: 0x1001D0DE0, symSize: 0x0 }
  - { offset: 0x4AEBD, size: 0x8, addend: 0x0, symName: _.str.69, symObjAddr: 0x2C300, symBinAddr: 0x1001D0E00, symSize: 0x0 }
  - { offset: 0x4AED0, size: 0x8, addend: 0x0, symName: _.str.71, symObjAddr: 0x2C320, symBinAddr: 0x1001D0E20, symSize: 0x0 }
  - { offset: 0x4AEE1, size: 0x8, addend: 0x0, symName: _.str.75, symObjAddr: 0x35460, symBinAddr: 0x10020C260, symSize: 0x0 }
  - { offset: 0x4AEFE, size: 0x8, addend: 0x0, symName: _.str.77, symObjAddr: 0x2C420, symBinAddr: 0x1001D0F20, symSize: 0x0 }
  - { offset: 0x4AF1B, size: 0x8, addend: 0x0, symName: _.str.78, symObjAddr: 0x2C460, symBinAddr: 0x1001D0F60, symSize: 0x0 }
  - { offset: 0x4AF2C, size: 0x8, addend: 0x0, symName: _.str.79, symObjAddr: 0x2C480, symBinAddr: 0x1001D0F80, symSize: 0x0 }
  - { offset: 0x4AF3D, size: 0x8, addend: 0x0, symName: _.str.80, symObjAddr: 0x2C4A0, symBinAddr: 0x1001D0FA0, symSize: 0x0 }
  - { offset: 0x4AF4E, size: 0x8, addend: 0x0, symName: _.str.81, symObjAddr: 0x2C4C0, symBinAddr: 0x1001D0FC0, symSize: 0x0 }
  - { offset: 0x4AF5F, size: 0x8, addend: 0x0, symName: _.str.82, symObjAddr: 0x2C5C0, symBinAddr: 0x1001D10C0, symSize: 0x0 }
  - { offset: 0x4AF7C, size: 0x8, addend: 0x0, symName: _.str.83, symObjAddr: 0x2C620, symBinAddr: 0x1001D1120, symSize: 0x0 }
  - { offset: 0x4AF8D, size: 0x8, addend: 0x0, symName: _.str.84, symObjAddr: 0x2C640, symBinAddr: 0x1001D1140, symSize: 0x0 }
  - { offset: 0x4AF9E, size: 0x8, addend: 0x0, symName: _.str.85, symObjAddr: 0x2C660, symBinAddr: 0x1001D1160, symSize: 0x0 }
  - { offset: 0x4AFAF, size: 0x8, addend: 0x0, symName: _.str.86, symObjAddr: 0x2C680, symBinAddr: 0x1001D1180, symSize: 0x0 }
  - { offset: 0x4AFC0, size: 0x8, addend: 0x0, symName: _.str.87, symObjAddr: 0x2C6A0, symBinAddr: 0x1001D11A0, symSize: 0x0 }
  - { offset: 0x4AFD1, size: 0x8, addend: 0x0, symName: _.str.88, symObjAddr: 0x2C6C0, symBinAddr: 0x1001D11C0, symSize: 0x0 }
  - { offset: 0x4AFE2, size: 0x8, addend: 0x0, symName: _.str.89, symObjAddr: 0x2C6E0, symBinAddr: 0x1001D11E0, symSize: 0x0 }
  - { offset: 0x4AFF5, size: 0x8, addend: 0x0, symName: _.str.90, symObjAddr: 0x2C700, symBinAddr: 0x1001D1200, symSize: 0x0 }
  - { offset: 0x4B014, size: 0x8, addend: 0x0, symName: _.str.91, symObjAddr: 0x2C760, symBinAddr: 0x1001D1260, symSize: 0x0 }
  - { offset: 0x4B033, size: 0x8, addend: 0x0, symName: _.str.92, symObjAddr: 0x2C800, symBinAddr: 0x1001D1300, symSize: 0x0 }
  - { offset: 0x4B046, size: 0x8, addend: 0x0, symName: _.str.93, symObjAddr: 0x2C820, symBinAddr: 0x1001D1320, symSize: 0x0 }
  - { offset: 0x4B074, size: 0x8, addend: 0x0, symName: __ZN7testing8internal15TestFactoryImplIN12_GLOBAL__N_127GatherTokens_BasicTest_TestEEC1Ev, symObjAddr: 0xA90, symBinAddr: 0x10006CD60, symSize: 0x50 }
  - { offset: 0x4B0A6, size: 0x8, addend: 0x0, symName: __ZN7testing8internal15TestFactoryImplIN12_GLOBAL__N_121GatherTokens_Nom_TestEEC1Ev, symObjAddr: 0xB30, symBinAddr: 0x10006CDB0, symSize: 0x50 }
  - { offset: 0x4B0D8, size: 0x8, addend: 0x0, symName: __ZN7testing8internal15TestFactoryImplIN12_GLOBAL__N_124GatherTokens_Colors_TestEEC1Ev, symObjAddr: 0xB80, symBinAddr: 0x10006CE00, symSize: 0x50 }
  - { offset: 0x4B105, size: 0x8, addend: 0x0, symName: __ZN7testing8internal15TestFactoryImplIN12_GLOBAL__N_127GatherTokens_BasicTest_TestEEC2Ev, symObjAddr: 0x1E00, symBinAddr: 0x10006CE50, symSize: 0xC0 }
  - { offset: 0x4B132, size: 0x8, addend: 0x0, symName: __ZN7testing8internal15TestFactoryImplIN12_GLOBAL__N_127GatherTokens_BasicTest_TestEED1Ev, symObjAddr: 0x1F50, symBinAddr: 0x10006CF10, symSize: 0x50 }
  - { offset: 0x4B15F, size: 0x8, addend: 0x0, symName: __ZN7testing8internal15TestFactoryImplIN12_GLOBAL__N_127GatherTokens_BasicTest_TestEED0Ev, symObjAddr: 0x1FA0, symBinAddr: 0x10006CF60, symSize: 0x60 }
  - { offset: 0x4B18C, size: 0x8, addend: 0x0, symName: __ZN7testing8internal15TestFactoryImplIN12_GLOBAL__N_127GatherTokens_BasicTest_TestEE10CreateTestEv, symObjAddr: 0x2000, symBinAddr: 0x10006CFC0, symSize: 0xF0 }
  - { offset: 0x4B1B2, size: 0x8, addend: 0x0, symName: __ZN7testing8internal15TestFactoryImplIN12_GLOBAL__N_127GatherTokens_BasicTest_TestEED2Ev, symObjAddr: 0x2190, symBinAddr: 0x10006D0B0, symSize: 0x50 }
  - { offset: 0x4B1DF, size: 0x8, addend: 0x0, symName: __ZN12_GLOBAL__N_127GatherTokens_BasicTest_TestC1Ev, symObjAddr: 0x2230, symBinAddr: 0x10006D100, symSize: 0x50 }
  - { offset: 0x4B209, size: 0x8, addend: 0x0, symName: __ZN12_GLOBAL__N_127GatherTokens_BasicTest_TestC2Ev, symObjAddr: 0x2280, symBinAddr: 0x10006D150, symSize: 0xC0 }
  - { offset: 0x4B233, size: 0x8, addend: 0x0, symName: __ZN12_GLOBAL__N_127GatherTokens_BasicTest_TestD1Ev, symObjAddr: 0x2340, symBinAddr: 0x10006D210, symSize: 0x50 }
  - { offset: 0x4B25D, size: 0x8, addend: 0x0, symName: __ZN12_GLOBAL__N_127GatherTokens_BasicTest_TestD0Ev, symObjAddr: 0x2390, symBinAddr: 0x10006D260, symSize: 0x60 }
  - { offset: 0x4B287, size: 0x8, addend: 0x0, symName: __ZN12_GLOBAL__N_127GatherTokens_BasicTest_Test8TestBodyEv, symObjAddr: 0x23F0, symBinAddr: 0x10006D2C0, symSize: 0xB90 }
  - { offset: 0x4B2EC, size: 0x8, addend: 0x0, symName: __ZN12_GLOBAL__N_127GatherTokens_BasicTest_TestD2Ev, symObjAddr: 0x2FD0, symBinAddr: 0x10006DE50, symSize: 0x50 }
  - { offset: 0x4B43C, size: 0x8, addend: 0x0, symName: __ZN7testing7MessagelsIA7_cEERS0_RKT_, symObjAddr: 0x4590, symBinAddr: 0x10006DEA0, symSize: 0x120 }
  - { offset: 0x4B4C8, size: 0x8, addend: 0x0, symName: __ZN7testing7MessagelsIA2_cEERS0_RKT_, symObjAddr: 0x4810, symBinAddr: 0x10006DFC0, symSize: 0x120 }
  - { offset: 0x4B54E, size: 0x8, addend: 0x0, symName: __ZN7testing8internal15TestFactoryImplIN12_GLOBAL__N_121GatherTokens_Nom_TestEEC2Ev, symObjAddr: 0x28280, symBinAddr: 0x10006E0E0, symSize: 0xC0 }
  - { offset: 0x4B57B, size: 0x8, addend: 0x0, symName: __ZN7testing8internal15TestFactoryImplIN12_GLOBAL__N_121GatherTokens_Nom_TestEED1Ev, symObjAddr: 0x28340, symBinAddr: 0x10006E1A0, symSize: 0x50 }
  - { offset: 0x4B5A8, size: 0x8, addend: 0x0, symName: __ZN7testing8internal15TestFactoryImplIN12_GLOBAL__N_121GatherTokens_Nom_TestEED0Ev, symObjAddr: 0x28390, symBinAddr: 0x10006E1F0, symSize: 0x60 }
  - { offset: 0x4B5D5, size: 0x8, addend: 0x0, symName: __ZN7testing8internal15TestFactoryImplIN12_GLOBAL__N_121GatherTokens_Nom_TestEE10CreateTestEv, symObjAddr: 0x283F0, symBinAddr: 0x10006E250, symSize: 0xF0 }
  - { offset: 0x4B5FB, size: 0x8, addend: 0x0, symName: __ZN7testing8internal15TestFactoryImplIN12_GLOBAL__N_121GatherTokens_Nom_TestEED2Ev, symObjAddr: 0x284E0, symBinAddr: 0x10006E340, symSize: 0x50 }
  - { offset: 0x4B628, size: 0x8, addend: 0x0, symName: __ZN12_GLOBAL__N_121GatherTokens_Nom_TestC1Ev, symObjAddr: 0x28530, symBinAddr: 0x10006E390, symSize: 0x50 }
  - { offset: 0x4B652, size: 0x8, addend: 0x0, symName: __ZN12_GLOBAL__N_121GatherTokens_Nom_TestC2Ev, symObjAddr: 0x28580, symBinAddr: 0x10006E3E0, symSize: 0xC0 }
  - { offset: 0x4B67C, size: 0x8, addend: 0x0, symName: __ZN12_GLOBAL__N_121GatherTokens_Nom_TestD1Ev, symObjAddr: 0x28640, symBinAddr: 0x10006E4A0, symSize: 0x50 }
  - { offset: 0x4B6A6, size: 0x8, addend: 0x0, symName: __ZN12_GLOBAL__N_121GatherTokens_Nom_TestD0Ev, symObjAddr: 0x28690, symBinAddr: 0x10006E4F0, symSize: 0x60 }
  - { offset: 0x4B6D0, size: 0x8, addend: 0x0, symName: __ZN12_GLOBAL__N_121GatherTokens_Nom_Test8TestBodyEv, symObjAddr: 0x286F0, symBinAddr: 0x10006E550, symSize: 0xC50 }
  - { offset: 0x4B735, size: 0x8, addend: 0x0, symName: __ZN12_GLOBAL__N_121GatherTokens_Nom_TestD2Ev, symObjAddr: 0x29340, symBinAddr: 0x10006F1A0, symSize: 0x50 }
  - { offset: 0x4B75F, size: 0x8, addend: 0x0, symName: __ZN7testing8internal15TestFactoryImplIN12_GLOBAL__N_124GatherTokens_Colors_TestEEC2Ev, symObjAddr: 0x29390, symBinAddr: 0x10006F1F0, symSize: 0xC0 }
  - { offset: 0x4B78C, size: 0x8, addend: 0x0, symName: __ZN7testing8internal15TestFactoryImplIN12_GLOBAL__N_124GatherTokens_Colors_TestEED1Ev, symObjAddr: 0x29450, symBinAddr: 0x10006F2B0, symSize: 0x50 }
  - { offset: 0x4B7B9, size: 0x8, addend: 0x0, symName: __ZN7testing8internal15TestFactoryImplIN12_GLOBAL__N_124GatherTokens_Colors_TestEED0Ev, symObjAddr: 0x294A0, symBinAddr: 0x10006F300, symSize: 0x60 }
  - { offset: 0x4B7E6, size: 0x8, addend: 0x0, symName: __ZN7testing8internal15TestFactoryImplIN12_GLOBAL__N_124GatherTokens_Colors_TestEE10CreateTestEv, symObjAddr: 0x29500, symBinAddr: 0x10006F360, symSize: 0xF0 }
  - { offset: 0x4B80C, size: 0x8, addend: 0x0, symName: __ZN7testing8internal15TestFactoryImplIN12_GLOBAL__N_124GatherTokens_Colors_TestEED2Ev, symObjAddr: 0x295F0, symBinAddr: 0x10006F450, symSize: 0x50 }
  - { offset: 0x4B839, size: 0x8, addend: 0x0, symName: __ZN12_GLOBAL__N_124GatherTokens_Colors_TestC1Ev, symObjAddr: 0x29640, symBinAddr: 0x10006F4A0, symSize: 0x50 }
  - { offset: 0x4B863, size: 0x8, addend: 0x0, symName: __ZN12_GLOBAL__N_124GatherTokens_Colors_TestC2Ev, symObjAddr: 0x29690, symBinAddr: 0x10006F4F0, symSize: 0xC0 }
  - { offset: 0x4B88D, size: 0x8, addend: 0x0, symName: __ZN12_GLOBAL__N_124GatherTokens_Colors_TestD1Ev, symObjAddr: 0x29750, symBinAddr: 0x10006F5B0, symSize: 0x50 }
  - { offset: 0x4B8B7, size: 0x8, addend: 0x0, symName: __ZN12_GLOBAL__N_124GatherTokens_Colors_TestD0Ev, symObjAddr: 0x297A0, symBinAddr: 0x10006F600, symSize: 0x60 }
  - { offset: 0x4B8E1, size: 0x8, addend: 0x0, symName: __ZN12_GLOBAL__N_124GatherTokens_Colors_Test8TestBodyEv, symObjAddr: 0x29800, symBinAddr: 0x10006F660, symSize: 0xC70 }
  - { offset: 0x4B946, size: 0x8, addend: 0x0, symName: __ZN12_GLOBAL__N_124GatherTokens_Colors_TestD2Ev, symObjAddr: 0x2A470, symBinAddr: 0x1000702D0, symSize: 0x58 }
  - { offset: 0x4D87F, size: 0x8, addend: 0x0, symName: _.str, symObjAddr: 0xE5B80, symBinAddr: 0x1001D13C0, symSize: 0x0 }
  - { offset: 0x4D8AF, size: 0x8, addend: 0x0, symName: _.str.1, symObjAddr: 0xE5BA0, symBinAddr: 0x1001D13E0, symSize: 0x0 }
  - { offset: 0x4D8CB, size: 0x8, addend: 0x0, symName: __ZN12_GLOBAL__N_129SearchEngine_MissingFile_Test10test_info_E, symObjAddr: 0x29FE20, symBinAddr: 0x1002EFC60, symSize: 0x0 }
  - { offset: 0x4DA5D, size: 0x8, addend: 0x0, symName: __ZN12_GLOBAL__N_127SearchEngine_cplusplus_Test10test_info_E, symObjAddr: 0x29FE40, symBinAddr: 0x1002EFC80, symSize: 0x0 }
  - { offset: 0x4DB2B, size: 0x8, addend: 0x0, symName: __ZN12_GLOBAL__N_128SearchEngine_uiccs_news_Test10test_info_E, symObjAddr: 0x29FE60, symBinAddr: 0x1002EFCA0, symSize: 0x0 }
  - { offset: 0x4DBF4, size: 0x8, addend: 0x0, symName: __ZN12_GLOBAL__N_115strWhitespaceEqENSt3__112basic_stringIcNS0_11char_traitsIcEENS0_9allocatorIcEEEES6_, symObjAddr: 0x8958, symBinAddr: 0x1000767C8, symSize: 0x618 }
  - { offset: 0x4DCB0, size: 0x8, addend: 0x0, symName: __ZN7testing8internal12TypeIdHelperIN12_GLOBAL__N_112SearchEngineEE6dummy_E, symObjAddr: 0x29FE80, symBinAddr: 0x1002EFCC0, symSize: 0x0 }
  - { offset: 0x4DCDF, size: 0x8, addend: 0x0, symName: __ZN7testing8internal9GetTypeIdIN12_GLOBAL__N_112SearchEngineEEEPKvv, symObjAddr: 0xD8, symBinAddr: 0x100071188, symSize: 0x20 }
  - { offset: 0x53B67, size: 0x8, addend: 0x0, symName: __ZNSt3__16ranges5__cpo9iter_moveE, symObjAddr: 0xF7508, symBinAddr: 0x100215948, symSize: 0x0 }
  - { offset: 0x53CE3, size: 0x8, addend: 0x0, symName: __ZNSt3__115regex_constantsanB8ne180100ENS0_15match_flag_typeES1_, symObjAddr: 0x18268, symBinAddr: 0x10007F6C8, symSize: 0x80 }
  - { offset: 0x53D20, size: 0x8, addend: 0x0, symName: __ZNSt3__115regex_constantsaNB8ne180100ERNS0_15match_flag_typeES1_, symObjAddr: 0x23188, symBinAddr: 0x10008A5E8, symSize: 0x150 }
  - { offset: 0x53D5D, size: 0x8, addend: 0x0, symName: __ZNSt3__115regex_constantscoB8ne180100ENS0_15match_flag_typeE, symObjAddr: 0x232D8, symBinAddr: 0x10008A738, symSize: 0x50 }
  - { offset: 0x53D8B, size: 0x8, addend: 0x0, symName: __ZNSt3__115regex_constantsorB8ne180100ENS0_15match_flag_typeES1_, symObjAddr: 0x23328, symBinAddr: 0x10008A788, symSize: 0x78 }
  - { offset: 0x53DC8, size: 0x8, addend: 0x0, symName: __ZNSt3__115regex_constantsoRB8ne180100ERNS0_15match_flag_typeES1_, symObjAddr: 0x240B8, symBinAddr: 0x10008B518, symSize: 0x148 }
  - { offset: 0x53E05, size: 0x8, addend: 0x0, symName: __ZNSt3__115regex_constants13__get_grammarB8ne180100ENS0_18syntax_option_typeE, symObjAddr: 0x24B78, symBinAddr: 0x10008BFD8, symSize: 0x48 }
  - { offset: 0x53E33, size: 0x8, addend: 0x0, symName: __ZNSt3__115regex_constantsoRB8ne180100ERNS0_18syntax_option_typeES1_, symObjAddr: 0x74738, symBinAddr: 0x1000DB668, symSize: 0x148 }
  - { offset: 0x53E70, size: 0x8, addend: 0x0, symName: __ZNSt3__115regex_constantsorB8ne180100ENS0_18syntax_option_typeES1_, symObjAddr: 0x74FC8, symBinAddr: 0x1000DBEF8, symSize: 0x78 }
  - { offset: 0x53EAD, size: 0x8, addend: 0x0, symName: __ZNSt3__115regex_constantsanB8ne180100ENS0_18syntax_option_typeES1_, symObjAddr: 0x828D8, symBinAddr: 0x1000E9808, symSize: 0x78 }
  - { offset: 0x5CBF1, size: 0x8, addend: 0x0, symName: __ZNSt3__17advanceB8ne180100IPNS_12basic_stringIcNS_11char_traitsIcEENS_9allocatorIcEEEEllvEEvRT_T0_, symObjAddr: 0x125C8, symBinAddr: 0x10007C118, symSize: 0x70 }
  - { offset: 0x65425, size: 0x8, addend: 0x0, symName: __ZNSt3__17advanceB8ne180100IPNS_7__stateIcEEllvEEvRT_T0_, symObjAddr: 0x33118, symBinAddr: 0x10009A578, symSize: 0x70 }
  - { offset: 0x656A6, size: 0x8, addend: 0x0, symName: __ZNSt3__17advanceB8ne180100INS_16reverse_iteratorIPNS_7__stateIcEEEEllvEEvRT_T0_, symObjAddr: 0x34278, symBinAddr: 0x10009B6D8, symSize: 0x70 }
  - { offset: 0x65A70, size: 0x8, addend: 0x0, symName: __ZNSt3__17advanceB8ne180100IPNS_9sub_matchIPKcEEllvEEvRT_T0_, symObjAddr: 0x3BDE8, symBinAddr: 0x1000A3248, symSize: 0x70 }
  - { offset: 0x65CF1, size: 0x8, addend: 0x0, symName: __ZNSt3__17advanceB8ne180100INS_16reverse_iteratorIPNS_9sub_matchIPKcEEEEllvEEvRT_T0_, symObjAddr: 0x3CEB8, symBinAddr: 0x1000A4318, symSize: 0x70 }
  - { offset: 0x660BB, size: 0x8, addend: 0x0, symName: __ZNSt3__17advanceB8ne180100IPNS_4pairImPKcEEllvEEvRT_T0_, symObjAddr: 0x42C18, symBinAddr: 0x1000AA078, symSize: 0x70 }
  - { offset: 0x6633C, size: 0x8, addend: 0x0, symName: __ZNSt3__17advanceB8ne180100INS_16reverse_iteratorIPNS_4pairImPKcEEEEllvEEvRT_T0_, symObjAddr: 0x43CE8, symBinAddr: 0x1000AB148, symSize: 0x70 }
  - { offset: 0x663A8, size: 0x8, addend: 0x0, symName: __ZNSt3__17advanceB8ne180100IPKcllvEEvRT_T0_, symObjAddr: 0x44A28, symBinAddr: 0x1000ABE88, symSize: 0x70 }
  - { offset: 0x674A2, size: 0x8, addend: 0x0, symName: __ZNSt3__17advanceB8ne180100IPNS_9sub_matchINS_11__wrap_iterIPKcEEEEllvEEvRT_T0_, symObjAddr: 0x69E08, symBinAddr: 0x1000D1058, symSize: 0x70 }
  - { offset: 0x67723, size: 0x8, addend: 0x0, symName: __ZNSt3__17advanceB8ne180100INS_16reverse_iteratorIPNS_9sub_matchINS_11__wrap_iterIPKcEEEEEEllvEEvRT_T0_, symObjAddr: 0x6AED8, symBinAddr: 0x1000D2128, symSize: 0x70 }
  - { offset: 0x6778F, size: 0x8, addend: 0x0, symName: __ZNSt3__17advanceB8ne180100INS_11__wrap_iterIPKcEEllvEEvRT_T0_, symObjAddr: 0x6B9F8, symBinAddr: 0x1000D2C48, symSize: 0x70 }
  - { offset: 0x678C7, size: 0x8, addend: 0x0, symName: __ZNSt3__16copy_nB8ne180100IPKcmPcTnNS_9enable_ifIXsr37__has_random_access_iterator_categoryIT_EE5valueEiE4typeELi0EEET1_S5_T0_S8_, symObjAddr: 0x72518, symBinAddr: 0x1000D9448, symSize: 0xB0 }
  - { offset: 0x67E65, size: 0x8, addend: 0x0, symName: __ZNSt3__17advanceB8ne180100INS_16reverse_iteratorIPNS_12basic_stringIcNS_11char_traitsIcEENS_9allocatorIcEEEEEEllvEEvRT_T0_, symObjAddr: 0xBB928, symBinAddr: 0x100122138, symSize: 0x70 }
  - { offset: 0x6822F, size: 0x8, addend: 0x0, symName: __ZNSt3__17advanceB8ne180100IPNS_4pairINS_12basic_stringIcNS_11char_traitsIcEENS_9allocatorIcEEEES7_EEllvEEvRT_T0_, symObjAddr: 0xC2BD8, symBinAddr: 0x1001293E8, symSize: 0x70 }
  - { offset: 0x684B0, size: 0x8, addend: 0x0, symName: __ZNSt3__17advanceB8ne180100INS_16reverse_iteratorIPNS_4pairINS_12basic_stringIcNS_11char_traitsIcEENS_9allocatorIcEEEES8_EEEEllvEEvRT_T0_, symObjAddr: 0xC3CA8, symBinAddr: 0x10012A4B8, symSize: 0x70 }
  - { offset: 0x6887A, size: 0x8, addend: 0x0, symName: __ZNSt3__17advanceB8ne180100IPNS_4pairIccEEllvEEvRT_T0_, symObjAddr: 0xC9848, symBinAddr: 0x100130058, symSize: 0x70 }
  - { offset: 0x68AFB, size: 0x8, addend: 0x0, symName: __ZNSt3__17advanceB8ne180100INS_16reverse_iteratorIPNS_4pairIccEEEEllvEEvRT_T0_, symObjAddr: 0xCA918, symBinAddr: 0x100131128, symSize: 0x70 }
  - { offset: 0x69192, size: 0x8, addend: 0x0, symName: __ZNSt3__14endlB8ne180100IcNS_11char_traitsIcEEEERNS_13basic_ostreamIT_T0_EES7_, symObjAddr: 0x7A08, symBinAddr: 0x100075B38, symSize: 0x3B8 }
  - { offset: 0x69374, size: 0x8, addend: 0x0, symName: __ZNSt3__1neB8ne180100IPNS_12basic_stringIcNS_11char_traitsIcEENS_9allocatorIcEEEEEEbRKNS_11__wrap_iterIT_EESC_, symObjAddr: 0x8238, symBinAddr: 0x100076368, symSize: 0x98 }
  - { offset: 0x693E0, size: 0x8, addend: 0x0, symName: __ZNSt3__122__make_exception_guardB8ne180100INS_6vectorINS_12basic_stringIcNS_11char_traitsIcEENS_9allocatorIcEEEENS5_IS7_EEE16__destroy_vectorEEENS_28__exception_guard_exceptionsIT_EESC_, symObjAddr: 0xD438, symBinAddr: 0x100077938, symSize: 0x78 }
  - { offset: 0x69415, size: 0x8, addend: 0x0, symName: __ZNSt3__119__allocate_at_leastB8ne180100INS_9allocatorINS_12basic_stringIcNS_11char_traitsIcEENS1_IcEEEEEEEENS_19__allocation_resultINS_16allocator_traitsIT_E7pointerEEERSA_m, symObjAddr: 0xE708, symBinAddr: 0x100078A78, symSize: 0x38 }
  - { offset: 0x69643, size: 0x8, addend: 0x0, symName: __ZNSt3__120__throw_length_errorB8ne180100EPKc, symObjAddr: 0xF058, symBinAddr: 0x100078FE8, symSize: 0xA8 }
  - { offset: 0x6966B, size: 0x8, addend: 0x0, symName: __ZNSt3__112__to_addressB8ne180100INS_12basic_stringIcNS_11char_traitsIcEENS_9allocatorIcEEEEEEPT_S8_, symObjAddr: 0xF998, symBinAddr: 0x100079708, symSize: 0x18 }
  - { offset: 0x696A0, size: 0x8, addend: 0x0, symName: __ZNSt3__130__uninitialized_allocator_copyB8ne180100INS_9allocatorINS_12basic_stringIcNS_11char_traitsIcEENS1_IcEEEEEEPKS6_S9_PS6_EET2_RT_T0_T1_SB_, symObjAddr: 0xFC38, symBinAddr: 0x100079928, symSize: 0x228 }
  - { offset: 0x69746, size: 0x8, addend: 0x0, symName: __ZNSt3__114__unwrap_rangeB8ne180100IPKNS_12basic_stringIcNS_11char_traitsIcEENS_9allocatorIcEEEES8_EEDaT_T0_, symObjAddr: 0x10408, symBinAddr: 0x10007A0F8, symSize: 0x40 }
  - { offset: 0x69792, size: 0x8, addend: 0x0, symName: __ZNSt3__135__uninitialized_allocator_copy_implB8ne180100INS_9allocatorINS_12basic_stringIcNS_11char_traitsIcEENS1_IcEEEEEEPKS6_S9_PS6_EET2_RT_T0_T1_SB_, symObjAddr: 0x10448, symBinAddr: 0x10007A138, symSize: 0x520 }
  - { offset: 0x6983E, size: 0x8, addend: 0x0, symName: __ZNSt3__113__unwrap_iterB8ne180100IPNS_12basic_stringIcNS_11char_traitsIcEENS_9allocatorIcEEEENS_18__unwrap_iter_implIS7_Lb1EEETnNS_9enable_ifIXsr21is_copy_constructibleIT_EE5valueEiE4typeELi0EEEDTclsrT0_8__unwrapclsr3stdE7declvalISB_EEEESB_, symObjAddr: 0x10968, symBinAddr: 0x10007A658, symSize: 0x30 }
  - { offset: 0x69882, size: 0x8, addend: 0x0, symName: __ZNSt3__113__rewrap_iterB8ne180100IPNS_12basic_stringIcNS_11char_traitsIcEENS_9allocatorIcEEEES7_NS_18__unwrap_iter_implIS7_Lb1EEEEET_SA_T0_, symObjAddr: 0x10998, symBinAddr: 0x10007A688, symSize: 0x50 }
  - { offset: 0x699D9, size: 0x8, addend: 0x0, symName: __ZNSt3__113__unwrap_iterB8ne180100IPKNS_12basic_stringIcNS_11char_traitsIcEENS_9allocatorIcEEEENS_18__unwrap_iter_implIS8_Lb1EEETnNS_9enable_ifIXsr21is_copy_constructibleIT_EE5valueEiE4typeELi0EEEDTclsrT0_8__unwrapclsr3stdE7declvalISC_EEEESC_, symObjAddr: 0x10BD8, symBinAddr: 0x10007A8C8, symSize: 0x28 }
  - { offset: 0x69A70, size: 0x8, addend: 0x0, symName: __ZNSt3__112__to_addressB8ne180100IKNS_12basic_stringIcNS_11char_traitsIcEENS_9allocatorIcEEEEEEPT_S9_, symObjAddr: 0x10C98, symBinAddr: 0x10007A988, symSize: 0x18 }
  - { offset: 0x69AA5, size: 0x8, addend: 0x0, symName: __ZNSt3__122__make_exception_guardB8ne180100INS_29_AllocatorDestroyRangeReverseINS_9allocatorINS_12basic_stringIcNS_11char_traitsIcEENS2_IcEEEEEEPS7_EEEENS_28__exception_guard_exceptionsIT_EESC_, symObjAddr: 0x10E48, symBinAddr: 0x10007AB38, symSize: 0x1F8 }
  - { offset: 0x69B05, size: 0x8, addend: 0x0, symName: __ZNSt3__119__allocator_destroyB8ne180100INS_9allocatorINS_12basic_stringIcNS_11char_traitsIcEENS1_IcEEEEEENS_16reverse_iteratorIPS6_EESA_EEvRT_T0_T1_, symObjAddr: 0x11D98, symBinAddr: 0x10007B948, symSize: 0x1F8 }
  - { offset: 0x69B71, size: 0x8, addend: 0x0, symName: __ZNSt3__1neB8ne180100IPNS_12basic_stringIcNS_11char_traitsIcEENS_9allocatorIcEEEES7_EEbRKNS_16reverse_iteratorIT_EERKNS8_IT0_EEQrqXnecldtfp_4baseEcldtfp0_4baseERNS_14convertible_toIbEEE, symObjAddr: 0x11FF8, symBinAddr: 0x10007BBA8, symSize: 0xA0 }
  - { offset: 0x69BBD, size: 0x8, addend: 0x0, symName: __ZNSt3__112__to_addressB8ne180100INS_16reverse_iteratorIPNS_12basic_stringIcNS_11char_traitsIcEENS_9allocatorIcEEEEEEvEEu7__decayIDTclsr19__to_address_helperIT_EE6__callclsr3stdE7declvalIRKSA_EEEEESC_, symObjAddr: 0x120C8, symBinAddr: 0x10007BC78, symSize: 0x58 }
  - { offset: 0x69C1D, size: 0x8, addend: 0x0, symName: __ZNSt3__14prevB8ne180100IPNS_12basic_stringIcNS_11char_traitsIcEENS_9allocatorIcEEEETnNS_9enable_ifIXsr29__has_input_iterator_categoryIT_EE5valueEiE4typeELi0EEES9_S9_NS_15iterator_traitsIS9_E15difference_typeE, symObjAddr: 0x12438, symBinAddr: 0x10007BF88, symSize: 0x190 }
  - { offset: 0x69C6C, size: 0x8, addend: 0x0, symName: __ZNSt3__19__advanceB8ne180100IPNS_12basic_stringIcNS_11char_traitsIcEENS_9allocatorIcEEEEEEvRT_NS_15iterator_traitsIS8_E15difference_typeENS_26random_access_iterator_tagE, symObjAddr: 0x12658, symBinAddr: 0x10007C188, symSize: 0xF8 }
  - { offset: 0x69D09, size: 0x8, addend: 0x0, symName: __ZNSt3__1eqB8ne180100IPNS_12basic_stringIcNS_11char_traitsIcEENS_9allocatorIcEEEEEEbRKNS_11__wrap_iterIT_EESC_, symObjAddr: 0x13CB8, symBinAddr: 0x10007D6C8, symSize: 0x98 }
  - { offset: 0x69D8A, size: 0x8, addend: 0x0, symName: __ZNSt3__113regex_replaceB8ne180100INS_12regex_traitsIcEEcNS_11char_traitsIcEENS_9allocatorIcEEEENS_12basic_stringIT0_T1_T2_EERKSB_RKNS_11basic_regexIS8_T_EEPKS8_NS_15regex_constants15match_flag_typeE, symObjAddr: 0x16008, symBinAddr: 0x10007D7E8, symSize: 0x220 }
  - { offset: 0x69E19, size: 0x8, addend: 0x0, symName: __ZNSt3__1plB8ne180100IcNS_11char_traitsIcEENS_9allocatorIcEEEENS_12basic_stringIT_T0_T1_EERKS9_PKS6_, symObjAddr: 0x16228, symBinAddr: 0x10007DA08, symSize: 0x498 }
  - { offset: 0x69EC0, size: 0x8, addend: 0x0, symName: __ZNSt3__113regex_replaceB8ne180100INS_20back_insert_iteratorINS_12basic_stringIcNS_11char_traitsIcEENS_9allocatorIcEEEEEENS_11__wrap_iterIPKcEENS_12regex_traitsIcEEcEET_SF_T0_SG_RKNS_11basic_regexIT2_T1_EEPKSI_NS_15regex_constants15match_flag_typeE, symObjAddr: 0x16B28, symBinAddr: 0x10007DF88, symSize: 0xD70 }
  - { offset: 0x69FCF, size: 0x8, addend: 0x0, symName: __ZNSt3__113back_inserterB8ne180100INS_12basic_stringIcNS_11char_traitsIcEENS_9allocatorIcEEEEEENS_20back_insert_iteratorIT_EERS8_, symObjAddr: 0x17898, symBinAddr: 0x10007ECF8, symSize: 0x188 }
  - { offset: 0x6A511, size: 0x8, addend: 0x0, symName: __ZNSt3__14copyB8ne180100INS_11__wrap_iterIPKcEENS_20back_insert_iteratorINS_12basic_stringIcNS_11char_traitsIcEENS_9allocatorIcEEEEEEEET0_T_SE_SD_, symObjAddr: 0x182E8, symBinAddr: 0x10007F748, symSize: 0x88 }
  - { offset: 0x6A577, size: 0x8, addend: 0x0, symName: __ZNSt3__112regex_searchB8ne180100IPKcNS_9allocatorINS_9sub_matchINS_11__wrap_iterIS2_EEEEEEcNS_12regex_traitsIcEEEEbNS5_IT_EESC_RNS_13match_resultsISC_T0_EERKNS_11basic_regexIT1_T2_EENS_15regex_constants15match_flag_typeE, symObjAddr: 0x1B5F8, symBinAddr: 0x100082A58, symSize: 0x548 }
  - { offset: 0x6A633, size: 0x8, addend: 0x0, symName: __ZNSt3__112__to_addressB8ne180100INS_9sub_matchINS_11__wrap_iterIPKcEEEEEEPT_S8_, symObjAddr: 0x1CFE8, symBinAddr: 0x100084448, symSize: 0x20 }
  - { offset: 0x6A669, size: 0x8, addend: 0x0, symName: __ZNSt3__112__destroy_atB8ne180100INS_9sub_matchINS_11__wrap_iterIPKcEEEETnNS_9enable_ifIXntsr8is_arrayIT_EE5valueEiE4typeELi0EEEvPS8_, symObjAddr: 0x1D008, symBinAddr: 0x100084468, symSize: 0x18 }
  - { offset: 0x6A987, size: 0x8, addend: 0x0, symName: __ZNSt3__112__to_addressB8ne180100INS_9sub_matchIPKcEEEEPT_S6_, symObjAddr: 0x22B48, symBinAddr: 0x100089FA8, symSize: 0x20 }
  - { offset: 0x6A9BD, size: 0x8, addend: 0x0, symName: __ZNSt3__112__destroy_atB8ne180100INS_9sub_matchIPKcEETnNS_9enable_ifIXntsr8is_arrayIT_EE5valueEiE4typeELi0EEEvPS6_, symObjAddr: 0x22B68, symBinAddr: 0x100089FC8, symSize: 0x18 }
  - { offset: 0x6A9F5, size: 0x8, addend: 0x0, symName: __ZNSt3__119__throw_regex_errorB8ne180100ILNS_15regex_constants10error_typeE12EEEvv, symObjAddr: 0x2B5B8, symBinAddr: 0x100092A18, symSize: 0x98 }
  - { offset: 0x6AA1A, size: 0x8, addend: 0x0, symName: __ZNSt3__14nextB8ne180100IPKcTnNS_9enable_ifIXsr29__has_input_iterator_categoryIT_EE5valueEiE4typeELi0EEES4_S4_NS_15iterator_traitsIS4_E15difference_typeE, symObjAddr: 0x2B848, symBinAddr: 0x100092CA8, symSize: 0x158 }
  - { offset: 0x6AA69, size: 0x8, addend: 0x0, symName: __ZNSt3__119__throw_regex_errorB8ne180100ILNS_15regex_constants10error_typeE16EEEvv, symObjAddr: 0x2BA08, symBinAddr: 0x100092E68, symSize: 0x98 }
  - { offset: 0x6AA8E, size: 0x8, addend: 0x0, symName: __ZNSt3__112__to_addressB8ne180100INS_7__stateIcEEEEPT_S4_, symObjAddr: 0x2CD38, symBinAddr: 0x100094198, symSize: 0x18 }
  - { offset: 0x6AAC3, size: 0x8, addend: 0x0, symName: __ZNSt3__114__construct_atB8ne180100INS_7__stateIcEEJS2_EPS2_EEPT_S5_DpOT0_, symObjAddr: 0x2D7B8, symBinAddr: 0x100094C18, symSize: 0x70 }
  - { offset: 0x6AB3D, size: 0x8, addend: 0x0, symName: __ZNSt3__112construct_atB8ne180100INS_7__stateIcEEJS2_EPS2_EEPT_S5_DpOT0_, symObjAddr: 0x2D828, symBinAddr: 0x100094C88, symSize: 0xD8 }
  - { offset: 0x6ABAF, size: 0x8, addend: 0x0, symName: __ZNSt3__13maxB8ne180100ImEERKT_S3_S3_, symObjAddr: 0x30588, symBinAddr: 0x1000979E8, symSize: 0xD0 }
  - { offset: 0x6ABF2, size: 0x8, addend: 0x0, symName: __ZNSt3__13maxB8ne180100ImNS_6__lessIvvEEEERKT_S5_S5_T0_, symObjAddr: 0x30878, symBinAddr: 0x100097CD8, symSize: 0x218 }
  - { offset: 0x6AC52, size: 0x8, addend: 0x0, symName: __ZNSt3__119__allocate_at_leastB8ne180100INS_9allocatorINS_7__stateIcEEEEEENS_19__allocation_resultINS_16allocator_traitsIT_E7pointerEEERS7_m, symObjAddr: 0x310A8, symBinAddr: 0x100098508, symSize: 0x38 }
  - { offset: 0x6AC95, size: 0x8, addend: 0x0, symName: __ZNSt3__142__uninitialized_allocator_move_if_noexceptB8ne180100INS_9allocatorINS_7__stateIcEEEENS_16reverse_iteratorIPS3_EES7_S7_EET2_RT_T0_T1_S8_, symObjAddr: 0x31888, symBinAddr: 0x100098CE8, symSize: 0x578 }
  - { offset: 0x6AD49, size: 0x8, addend: 0x0, symName: __ZNSt3__14swapB8ne180100IPNS_7__stateIcEEEENS_9enable_ifIXaasr21is_move_constructibleIT_EE5valuesr18is_move_assignableIS5_EE5valueEvE4typeERS5_S8_, symObjAddr: 0x31EE8, symBinAddr: 0x100099348, symSize: 0x168 }
  - { offset: 0x6AD9A, size: 0x8, addend: 0x0, symName: __ZNSt3__122__make_exception_guardB8ne180100INS_29_AllocatorDestroyRangeReverseINS_9allocatorINS_7__stateIcEEEENS_16reverse_iteratorIPS4_EEEEEENS_28__exception_guard_exceptionsIT_EESB_, symObjAddr: 0x321B8, symBinAddr: 0x100099618, symSize: 0x1F8 }
  - { offset: 0x6ADD3, size: 0x8, addend: 0x0, symName: __ZNSt3__1neB8ne180100IPNS_7__stateIcEES3_EEbRKNS_16reverse_iteratorIT_EERKNS4_IT0_EEQrqXnecldtfp_4baseEcldtfp0_4baseERNS_14convertible_toIbEEE, symObjAddr: 0x32428, symBinAddr: 0x100099888, symSize: 0xA0 }
  - { offset: 0x6AE1F, size: 0x8, addend: 0x0, symName: __ZNSt3__112__to_addressB8ne180100INS_16reverse_iteratorIPNS_7__stateIcEEEEvEEu7__decayIDTclsr19__to_address_helperIT_EE6__callclsr3stdE7declvalIRKS6_EEEEES8_, symObjAddr: 0x324C8, symBinAddr: 0x100099928, symSize: 0x58 }
  - { offset: 0x6AE7F, size: 0x8, addend: 0x0, symName: __ZNSt3__14prevB8ne180100IPNS_7__stateIcEETnNS_9enable_ifIXsr29__has_input_iterator_categoryIT_EE5valueEiE4typeELi0EEES5_S5_NS_15iterator_traitsIS5_E15difference_typeE, symObjAddr: 0x32F88, symBinAddr: 0x10009A3E8, symSize: 0x190 }
  - { offset: 0x6AECE, size: 0x8, addend: 0x0, symName: __ZNSt3__19__advanceB8ne180100IPNS_7__stateIcEEEEvRT_NS_15iterator_traitsIS4_E15difference_typeENS_26random_access_iterator_tagE, symObjAddr: 0x33188, symBinAddr: 0x10009A5E8, symSize: 0xF8 }
  - { offset: 0x6AF18, size: 0x8, addend: 0x0, symName: __ZNSt3__119__allocator_destroyB8ne180100INS_9allocatorINS_7__stateIcEEEENS_16reverse_iteratorINS5_IPS3_EEEES8_EEvRT_T0_T1_, symObjAddr: 0x336C8, symBinAddr: 0x10009AB28, symSize: 0x2F8 }
  - { offset: 0x6AF84, size: 0x8, addend: 0x0, symName: __ZNSt3__1neB8ne180100INS_16reverse_iteratorIPNS_7__stateIcEEEES5_EEbRKNS1_IT_EERKNS1_IT0_EEQrqXnecldtfp_4baseEcldtfp0_4baseERNS_14convertible_toIbEEE, symObjAddr: 0x33A28, symBinAddr: 0x10009AE88, symSize: 0x220 }
  - { offset: 0x6AFD2, size: 0x8, addend: 0x0, symName: __ZNSt3__112__to_addressB8ne180100INS_16reverse_iteratorINS1_IPNS_7__stateIcEEEEEEvEEu7__decayIDTclsr19__to_address_helperIT_EE6__callclsr3stdE7declvalIRKS7_EEEEES9_, symObjAddr: 0x33C78, symBinAddr: 0x10009B0D8, symSize: 0x58 }
  - { offset: 0x6B009, size: 0x8, addend: 0x0, symName: __ZNSt3__112__destroy_atB8ne180100INS_7__stateIcEETnNS_9enable_ifIXntsr8is_arrayIT_EE5valueEiE4typeELi0EEEvPS4_, symObjAddr: 0x33E08, symBinAddr: 0x10009B268, symSize: 0x60 }
  - { offset: 0x6B06A, size: 0x8, addend: 0x0, symName: __ZNSt3__14prevB8ne180100INS_16reverse_iteratorIPNS_7__stateIcEEEETnNS_9enable_ifIXsr29__has_input_iterator_categoryIT_EE5valueEiE4typeELi0EEES7_S7_NS_15iterator_traitsIS7_E15difference_typeE, symObjAddr: 0x34098, symBinAddr: 0x10009B4F8, symSize: 0x1E0 }
  - { offset: 0x6B0B9, size: 0x8, addend: 0x0, symName: __ZNSt3__19__advanceB8ne180100INS_16reverse_iteratorIPNS_7__stateIcEEEEEEvRT_NS_15iterator_traitsIS6_E15difference_typeENS_26random_access_iterator_tagE, symObjAddr: 0x342E8, symBinAddr: 0x10009B748, symSize: 0x68 }
  - { offset: 0x6B103, size: 0x8, addend: 0x0, symName: __ZNSt3__112__to_addressB8ne180100INS_4pairImPKcEEEEPT_S6_, symObjAddr: 0x36598, symBinAddr: 0x10009D9F8, symSize: 0x20 }
  - { offset: 0x6B139, size: 0x8, addend: 0x0, symName: __ZNSt3__112__destroy_atB8ne180100INS_4pairImPKcEETnNS_9enable_ifIXntsr8is_arrayIT_EE5valueEiE4typeELi0EEEvPS6_, symObjAddr: 0x365B8, symBinAddr: 0x10009DA18, symSize: 0x18 }
  - { offset: 0x6B170, size: 0x8, addend: 0x0, symName: __ZNSt3__114__construct_atB8ne180100INS_9sub_matchIPKcEEJRKS4_EPS4_EEPT_S9_DpOT0_, symObjAddr: 0x388D8, symBinAddr: 0x10009FD38, symSize: 0x70 }
  - { offset: 0x6B1EA, size: 0x8, addend: 0x0, symName: __ZNSt3__112construct_atB8ne180100INS_9sub_matchIPKcEEJRKS4_EPS4_EEPT_S9_DpOT0_, symObjAddr: 0x38948, symBinAddr: 0x10009FDA8, symSize: 0xA8 }
  - { offset: 0x6B25C, size: 0x8, addend: 0x0, symName: __ZNSt3__119__allocate_at_leastB8ne180100INS_9allocatorINS_9sub_matchIPKcEEEEEENS_19__allocation_resultINS_16allocator_traitsIT_E7pointerEEERS9_m, symObjAddr: 0x39958, symBinAddr: 0x1000A0DB8, symSize: 0x38 }
  - { offset: 0x6B29F, size: 0x8, addend: 0x0, symName: __ZNSt3__142__uninitialized_allocator_move_if_noexceptB8ne180100INS_9allocatorINS_9sub_matchIPKcEEEENS_16reverse_iteratorIPS5_EES9_S9_EET2_RT_T0_T1_SA_, symObjAddr: 0x3A3D8, symBinAddr: 0x1000A1838, symSize: 0x578 }
  - { offset: 0x6B353, size: 0x8, addend: 0x0, symName: __ZNSt3__14swapB8ne180100IPNS_9sub_matchIPKcEEEENS_9enable_ifIXaasr21is_move_constructibleIT_EE5valuesr18is_move_assignableIS7_EE5valueEvE4typeERS7_SA_, symObjAddr: 0x3AA38, symBinAddr: 0x1000A1E98, symSize: 0x168 }
  - { offset: 0x6B3A4, size: 0x8, addend: 0x0, symName: __ZNSt3__122__make_exception_guardB8ne180100INS_29_AllocatorDestroyRangeReverseINS_9allocatorINS_9sub_matchIPKcEEEENS_16reverse_iteratorIPS6_EEEEEENS_28__exception_guard_exceptionsIT_EESD_, symObjAddr: 0x3ACF8, symBinAddr: 0x1000A2158, symSize: 0x1F8 }
  - { offset: 0x6B3DD, size: 0x8, addend: 0x0, symName: __ZNSt3__1neB8ne180100IPNS_9sub_matchIPKcEES5_EEbRKNS_16reverse_iteratorIT_EERKNS6_IT0_EEQrqXnecldtfp_4baseEcldtfp0_4baseERNS_14convertible_toIbEEE, symObjAddr: 0x3AF68, symBinAddr: 0x1000A23C8, symSize: 0xA0 }
  - { offset: 0x6B429, size: 0x8, addend: 0x0, symName: __ZNSt3__112__to_addressB8ne180100INS_16reverse_iteratorIPNS_9sub_matchIPKcEEEEvEEu7__decayIDTclsr19__to_address_helperIT_EE6__callclsr3stdE7declvalIRKS8_EEEEESA_, symObjAddr: 0x3B078, symBinAddr: 0x1000A24D8, symSize: 0x58 }
  - { offset: 0x6B45F, size: 0x8, addend: 0x0, symName: __ZNSt3__114__construct_atB8ne180100INS_9sub_matchIPKcEEJS4_EPS4_EEPT_S7_DpOT0_, symObjAddr: 0x3BA38, symBinAddr: 0x1000A2E98, symSize: 0x70 }
  - { offset: 0x6B4B2, size: 0x8, addend: 0x0, symName: __ZNSt3__112construct_atB8ne180100INS_9sub_matchIPKcEEJS4_EPS4_EEPT_S7_DpOT0_, symObjAddr: 0x3BAA8, symBinAddr: 0x1000A2F08, symSize: 0xB0 }
  - { offset: 0x6B54E, size: 0x8, addend: 0x0, symName: __ZNSt3__14prevB8ne180100IPNS_9sub_matchIPKcEETnNS_9enable_ifIXsr29__has_input_iterator_categoryIT_EE5valueEiE4typeELi0EEES7_S7_NS_15iterator_traitsIS7_E15difference_typeE, symObjAddr: 0x3BC58, symBinAddr: 0x1000A30B8, symSize: 0x190 }
  - { offset: 0x6B59D, size: 0x8, addend: 0x0, symName: __ZNSt3__19__advanceB8ne180100IPNS_9sub_matchIPKcEEEEvRT_NS_15iterator_traitsIS6_E15difference_typeENS_26random_access_iterator_tagE, symObjAddr: 0x3BE58, symBinAddr: 0x1000A32B8, symSize: 0xF8 }
  - { offset: 0x6B5E7, size: 0x8, addend: 0x0, symName: __ZNSt3__119__allocator_destroyB8ne180100INS_9allocatorINS_9sub_matchIPKcEEEENS_16reverse_iteratorINS7_IPS5_EEEESA_EEvRT_T0_T1_, symObjAddr: 0x3C398, symBinAddr: 0x1000A37F8, symSize: 0x2F8 }
  - { offset: 0x6B653, size: 0x8, addend: 0x0, symName: __ZNSt3__1neB8ne180100INS_16reverse_iteratorIPNS_9sub_matchIPKcEEEES7_EEbRKNS1_IT_EERKNS1_IT0_EEQrqXnecldtfp_4baseEcldtfp0_4baseERNS_14convertible_toIbEEE, symObjAddr: 0x3C6F8, symBinAddr: 0x1000A3B58, symSize: 0x220 }
  - { offset: 0x6B6A1, size: 0x8, addend: 0x0, symName: __ZNSt3__112__to_addressB8ne180100INS_16reverse_iteratorINS1_IPNS_9sub_matchIPKcEEEEEEvEEu7__decayIDTclsr19__to_address_helperIT_EE6__callclsr3stdE7declvalIRKS9_EEEEESB_, symObjAddr: 0x3C918, symBinAddr: 0x1000A3D78, symSize: 0x58 }
  - { offset: 0x6B701, size: 0x8, addend: 0x0, symName: __ZNSt3__14prevB8ne180100INS_16reverse_iteratorIPNS_9sub_matchIPKcEEEETnNS_9enable_ifIXsr29__has_input_iterator_categoryIT_EE5valueEiE4typeELi0EEES9_S9_NS_15iterator_traitsIS9_E15difference_typeE, symObjAddr: 0x3CCD8, symBinAddr: 0x1000A4138, symSize: 0x1E0 }
  - { offset: 0x6B750, size: 0x8, addend: 0x0, symName: __ZNSt3__19__advanceB8ne180100INS_16reverse_iteratorIPNS_9sub_matchIPKcEEEEEEvRT_NS_15iterator_traitsIS8_E15difference_typeENS_26random_access_iterator_tagE, symObjAddr: 0x3CF28, symBinAddr: 0x1000A4388, symSize: 0x68 }
  - { offset: 0x6B79A, size: 0x8, addend: 0x0, symName: __ZNSt3__114__construct_atB8ne180100INS_4pairImPKcEEJEPS4_EEPT_S7_DpOT0_, symObjAddr: 0x3F638, symBinAddr: 0x1000A6A98, symSize: 0x30 }
  - { offset: 0x6B801, size: 0x8, addend: 0x0, symName: __ZNSt3__112construct_atB8ne180100INS_4pairImPKcEEJEPS4_EEPT_S7_DpOT0_, symObjAddr: 0x3F668, symBinAddr: 0x1000A6AC8, symSize: 0x98 }
  - { offset: 0x6B860, size: 0x8, addend: 0x0, symName: __ZNSt3__119__allocate_at_leastB8ne180100INS_9allocatorINS_4pairImPKcEEEEEENS_19__allocation_resultINS_16allocator_traitsIT_E7pointerEEERS9_m, symObjAddr: 0x40778, symBinAddr: 0x1000A7BD8, symSize: 0x38 }
  - { offset: 0x6B8A3, size: 0x8, addend: 0x0, symName: __ZNSt3__142__uninitialized_allocator_move_if_noexceptB8ne180100INS_9allocatorINS_4pairImPKcEEEENS_16reverse_iteratorIPS5_EES9_S9_EET2_RT_T0_T1_SA_, symObjAddr: 0x411F8, symBinAddr: 0x1000A8658, symSize: 0x578 }
  - { offset: 0x6B957, size: 0x8, addend: 0x0, symName: __ZNSt3__14swapB8ne180100IPNS_4pairImPKcEEEENS_9enable_ifIXaasr21is_move_constructibleIT_EE5valuesr18is_move_assignableIS7_EE5valueEvE4typeERS7_SA_, symObjAddr: 0x41858, symBinAddr: 0x1000A8CB8, symSize: 0x168 }
  - { offset: 0x6B9A8, size: 0x8, addend: 0x0, symName: __ZNSt3__122__make_exception_guardB8ne180100INS_29_AllocatorDestroyRangeReverseINS_9allocatorINS_4pairImPKcEEEENS_16reverse_iteratorIPS6_EEEEEENS_28__exception_guard_exceptionsIT_EESD_, symObjAddr: 0x41B28, symBinAddr: 0x1000A8F88, symSize: 0x1F8 }
  - { offset: 0x6B9E1, size: 0x8, addend: 0x0, symName: __ZNSt3__1neB8ne180100IPNS_4pairImPKcEES5_EEbRKNS_16reverse_iteratorIT_EERKNS6_IT0_EEQrqXnecldtfp_4baseEcldtfp0_4baseERNS_14convertible_toIbEEE, symObjAddr: 0x41D98, symBinAddr: 0x1000A91F8, symSize: 0xA0 }
  - { offset: 0x6BA2D, size: 0x8, addend: 0x0, symName: __ZNSt3__112__to_addressB8ne180100INS_16reverse_iteratorIPNS_4pairImPKcEEEEvEEu7__decayIDTclsr19__to_address_helperIT_EE6__callclsr3stdE7declvalIRKS8_EEEEESA_, symObjAddr: 0x41EA8, symBinAddr: 0x1000A9308, symSize: 0x58 }
  - { offset: 0x6BA63, size: 0x8, addend: 0x0, symName: __ZNSt3__114__construct_atB8ne180100INS_4pairImPKcEEJS4_EPS4_EEPT_S7_DpOT0_, symObjAddr: 0x42868, symBinAddr: 0x1000A9CC8, symSize: 0x70 }
  - { offset: 0x6BAB6, size: 0x8, addend: 0x0, symName: __ZNSt3__112construct_atB8ne180100INS_4pairImPKcEEJS4_EPS4_EEPT_S7_DpOT0_, symObjAddr: 0x428D8, symBinAddr: 0x1000A9D38, symSize: 0xB0 }
  - { offset: 0x6BB52, size: 0x8, addend: 0x0, symName: __ZNSt3__14prevB8ne180100IPNS_4pairImPKcEETnNS_9enable_ifIXsr29__has_input_iterator_categoryIT_EE5valueEiE4typeELi0EEES7_S7_NS_15iterator_traitsIS7_E15difference_typeE, symObjAddr: 0x42A88, symBinAddr: 0x1000A9EE8, symSize: 0x190 }
  - { offset: 0x6BBA1, size: 0x8, addend: 0x0, symName: __ZNSt3__19__advanceB8ne180100IPNS_4pairImPKcEEEEvRT_NS_15iterator_traitsIS6_E15difference_typeENS_26random_access_iterator_tagE, symObjAddr: 0x42C88, symBinAddr: 0x1000AA0E8, symSize: 0xF8 }
  - { offset: 0x6BBEB, size: 0x8, addend: 0x0, symName: __ZNSt3__119__allocator_destroyB8ne180100INS_9allocatorINS_4pairImPKcEEEENS_16reverse_iteratorINS7_IPS5_EEEESA_EEvRT_T0_T1_, symObjAddr: 0x431C8, symBinAddr: 0x1000AA628, symSize: 0x2F8 }
  - { offset: 0x6BC57, size: 0x8, addend: 0x0, symName: __ZNSt3__1neB8ne180100INS_16reverse_iteratorIPNS_4pairImPKcEEEES7_EEbRKNS1_IT_EERKNS1_IT0_EEQrqXnecldtfp_4baseEcldtfp0_4baseERNS_14convertible_toIbEEE, symObjAddr: 0x43528, symBinAddr: 0x1000AA988, symSize: 0x220 }
  - { offset: 0x6BCA5, size: 0x8, addend: 0x0, symName: __ZNSt3__112__to_addressB8ne180100INS_16reverse_iteratorINS1_IPNS_4pairImPKcEEEEEEvEEu7__decayIDTclsr19__to_address_helperIT_EE6__callclsr3stdE7declvalIRKS9_EEEEESB_, symObjAddr: 0x43748, symBinAddr: 0x1000AABA8, symSize: 0x58 }
  - { offset: 0x6BD05, size: 0x8, addend: 0x0, symName: __ZNSt3__14prevB8ne180100INS_16reverse_iteratorIPNS_4pairImPKcEEEETnNS_9enable_ifIXsr29__has_input_iterator_categoryIT_EE5valueEiE4typeELi0EEES9_S9_NS_15iterator_traitsIS9_E15difference_typeE, symObjAddr: 0x43B08, symBinAddr: 0x1000AAF68, symSize: 0x1E0 }
  - { offset: 0x6BD54, size: 0x8, addend: 0x0, symName: __ZNSt3__19__advanceB8ne180100INS_16reverse_iteratorIPNS_4pairImPKcEEEEEEvRT_NS_15iterator_traitsIS8_E15difference_typeENS_26random_access_iterator_tagE, symObjAddr: 0x43D58, symBinAddr: 0x1000AB1B8, symSize: 0x68 }
  - { offset: 0x6BD9F, size: 0x8, addend: 0x0, symName: __ZNSt3__19__advanceB8ne180100IPKcEEvRT_NS_15iterator_traitsIS3_E15difference_typeENS_26random_access_iterator_tagE, symObjAddr: 0x44A98, symBinAddr: 0x1000ABEF8, symSize: 0xE8 }
  - { offset: 0x6BDE9, size: 0x8, addend: 0x0, symName: __ZNSt3__122__make_exception_guardB8ne180100INS_6vectorINS_9sub_matchIPKcEENS_9allocatorIS5_EEE16__destroy_vectorEEENS_28__exception_guard_exceptionsIT_EESB_, symObjAddr: 0x45488, symBinAddr: 0x1000AC8E8, symSize: 0x78 }
  - { offset: 0x6BE1E, size: 0x8, addend: 0x0, symName: __ZNSt3__130__uninitialized_allocator_copyB8ne180100INS_9allocatorINS_9sub_matchIPKcEEEEPS5_S7_S7_EET2_RT_T0_T1_S8_, symObjAddr: 0x45EC8, symBinAddr: 0x1000AD328, symSize: 0x230 }
  - { offset: 0x6BEC4, size: 0x8, addend: 0x0, symName: __ZNSt3__114__unwrap_rangeB8ne180100IPNS_9sub_matchIPKcEES5_EEDaT_T0_, symObjAddr: 0x460F8, symBinAddr: 0x1000AD558, symSize: 0x40 }
  - { offset: 0x6BF10, size: 0x8, addend: 0x0, symName: __ZNSt3__135__uninitialized_allocator_copy_implB8ne180100INS_9allocatorINS_9sub_matchIPKcEEEEPS5_S7_S7_EET2_RT_T0_T1_S8_, symObjAddr: 0x46138, symBinAddr: 0x1000AD598, symSize: 0x520 }
  - { offset: 0x6BFBC, size: 0x8, addend: 0x0, symName: __ZNSt3__113__unwrap_iterB8ne180100IPNS_9sub_matchIPKcEENS_18__unwrap_iter_implIS5_Lb1EEETnNS_9enable_ifIXsr21is_copy_constructibleIT_EE5valueEiE4typeELi0EEEDTclsrT0_8__unwrapclsr3stdE7declvalIS9_EEEES9_, symObjAddr: 0x46658, symBinAddr: 0x1000ADAB8, symSize: 0x30 }
  - { offset: 0x6C000, size: 0x8, addend: 0x0, symName: __ZNSt3__113__rewrap_iterB8ne180100IPNS_9sub_matchIPKcEES5_NS_18__unwrap_iter_implIS5_Lb1EEEEET_S8_T0_, symObjAddr: 0x46688, symBinAddr: 0x1000ADAE8, symSize: 0x50 }
  - { offset: 0x6C171, size: 0x8, addend: 0x0, symName: __ZNSt3__122__make_exception_guardB8ne180100INS_29_AllocatorDestroyRangeReverseINS_9allocatorINS_9sub_matchIPKcEEEEPS6_EEEENS_28__exception_guard_exceptionsIT_EESB_, symObjAddr: 0x46AB8, symBinAddr: 0x1000ADF18, symSize: 0x1F8 }
  - { offset: 0x6C1AA, size: 0x8, addend: 0x0, symName: __ZNSt3__114__construct_atB8ne180100INS_9sub_matchIPKcEEJRS4_EPS4_EEPT_S8_DpOT0_, symObjAddr: 0x474B8, symBinAddr: 0x1000AE918, symSize: 0x70 }
  - { offset: 0x6C1FD, size: 0x8, addend: 0x0, symName: __ZNSt3__112construct_atB8ne180100INS_9sub_matchIPKcEEJRS4_EPS4_EEPT_S8_DpOT0_, symObjAddr: 0x47528, symBinAddr: 0x1000AE988, symSize: 0xA8 }
  - { offset: 0x6C26F, size: 0x8, addend: 0x0, symName: __ZNSt3__119__allocator_destroyB8ne180100INS_9allocatorINS_9sub_matchIPKcEEEENS_16reverse_iteratorIPS5_EES9_EEvRT_T0_T1_, symObjAddr: 0x479D8, symBinAddr: 0x1000AEE38, symSize: 0x200 }
  - { offset: 0x6C32E, size: 0x8, addend: 0x0, symName: __ZNSt3__122__make_exception_guardB8ne180100INS_6vectorINS_4pairImPKcEENS_9allocatorIS5_EEE16__destroy_vectorEEENS_28__exception_guard_exceptionsIT_EESB_, symObjAddr: 0x484C8, symBinAddr: 0x1000AF928, symSize: 0x78 }
  - { offset: 0x6C363, size: 0x8, addend: 0x0, symName: __ZNSt3__130__uninitialized_allocator_copyB8ne180100INS_9allocatorINS_4pairImPKcEEEEPS5_S7_S7_EET2_RT_T0_T1_S8_, symObjAddr: 0x48F08, symBinAddr: 0x1000B0368, symSize: 0x230 }
  - { offset: 0x6C409, size: 0x8, addend: 0x0, symName: __ZNSt3__114__unwrap_rangeB8ne180100IPNS_4pairImPKcEES5_EEDaT_T0_, symObjAddr: 0x49138, symBinAddr: 0x1000B0598, symSize: 0x40 }
  - { offset: 0x6C455, size: 0x8, addend: 0x0, symName: __ZNSt3__135__uninitialized_allocator_copy_implB8ne180100INS_9allocatorINS_4pairImPKcEEEEPS5_S7_S7_EET2_RT_T0_T1_S8_, symObjAddr: 0x49178, symBinAddr: 0x1000B05D8, symSize: 0x520 }
  - { offset: 0x6C501, size: 0x8, addend: 0x0, symName: __ZNSt3__113__unwrap_iterB8ne180100IPNS_4pairImPKcEENS_18__unwrap_iter_implIS5_Lb1EEETnNS_9enable_ifIXsr21is_copy_constructibleIT_EE5valueEiE4typeELi0EEEDTclsrT0_8__unwrapclsr3stdE7declvalIS9_EEEES9_, symObjAddr: 0x49698, symBinAddr: 0x1000B0AF8, symSize: 0x30 }
  - { offset: 0x6C545, size: 0x8, addend: 0x0, symName: __ZNSt3__113__rewrap_iterB8ne180100IPNS_4pairImPKcEES5_NS_18__unwrap_iter_implIS5_Lb1EEEEET_S8_T0_, symObjAddr: 0x496C8, symBinAddr: 0x1000B0B28, symSize: 0x50 }
  - { offset: 0x6C6B6, size: 0x8, addend: 0x0, symName: __ZNSt3__122__make_exception_guardB8ne180100INS_29_AllocatorDestroyRangeReverseINS_9allocatorINS_4pairImPKcEEEEPS6_EEEENS_28__exception_guard_exceptionsIT_EESB_, symObjAddr: 0x49AF8, symBinAddr: 0x1000B0F58, symSize: 0x1F8 }
  - { offset: 0x6C6EF, size: 0x8, addend: 0x0, symName: __ZNSt3__114__construct_atB8ne180100INS_4pairImPKcEEJRS4_EPS4_EEPT_S8_DpOT0_, symObjAddr: 0x4A4F8, symBinAddr: 0x1000B1958, symSize: 0x70 }
  - { offset: 0x6C742, size: 0x8, addend: 0x0, symName: __ZNSt3__112construct_atB8ne180100INS_4pairImPKcEEJRS4_EPS4_EEPT_S8_DpOT0_, symObjAddr: 0x4A568, symBinAddr: 0x1000B19C8, symSize: 0xA8 }
  - { offset: 0x6C7B4, size: 0x8, addend: 0x0, symName: __ZNSt3__119__allocator_destroyB8ne180100INS_9allocatorINS_4pairImPKcEEEENS_16reverse_iteratorIPS5_EES9_EEvRT_T0_T1_, symObjAddr: 0x4AA18, symBinAddr: 0x1000B1E78, symSize: 0x200 }
  - { offset: 0x6C873, size: 0x8, addend: 0x0, symName: __ZNSt3__18distanceB8ne180100IPKcEENS_15iterator_traitsIT_E15difference_typeES4_S4_, symObjAddr: 0x4B518, symBinAddr: 0x1000B2978, symSize: 0x28 }
  - { offset: 0x6C8B6, size: 0x8, addend: 0x0, symName: __ZNSt3__110__distanceB8ne180100IPKcEENS_15iterator_traitsIT_E15difference_typeES4_S4_NS_26random_access_iterator_tagE, symObjAddr: 0x4EC28, symBinAddr: 0x1000B5EF8, symSize: 0x28 }
  - { offset: 0x6CCA1, size: 0x8, addend: 0x0, symName: __ZNSt3__14swapB8ne180100IPPNS_7__stateIcEEEENS_9enable_ifIXaasr21is_move_constructibleIT_EE5valuesr18is_move_assignableIS6_EE5valueEvE4typeERS6_S9_, symObjAddr: 0x561E8, symBinAddr: 0x1000BD4B8, symSize: 0x168 }
  - { offset: 0x6CCF2, size: 0x8, addend: 0x0, symName: __ZNSt3__14moveB8ne180100IPPNS_7__stateIcEES4_EET0_T_S6_S5_, symObjAddr: 0x56668, symBinAddr: 0x1000BD938, symSize: 0x1B8 }
  - { offset: 0x6CD4F, size: 0x8, addend: 0x0, symName: __ZNSt3__112__to_addressB8ne180100IPNS_7__stateIcEEEEPT_S5_, symObjAddr: 0x569A8, symBinAddr: 0x1000BDC78, symSize: 0x20 }
  - { offset: 0x6CD84, size: 0x8, addend: 0x0, symName: __ZNSt3__16__moveB8ne180100INS_17_ClassicAlgPolicyEPPNS_7__stateIcEES5_S5_EENS_4pairIT0_T2_EES7_T1_S8_, symObjAddr: 0x569C8, symBinAddr: 0x1000BDC98, symSize: 0x50 }
  - { offset: 0x6CDF0, size: 0x8, addend: 0x0, symName: __ZNSt3__123__dispatch_copy_or_moveB8ne180100INS_17_ClassicAlgPolicyENS_11__move_loopIS1_EENS_14__move_trivialEPPNS_7__stateIcEES8_S8_EENS_4pairIT2_T4_EESA_T3_SB_, symObjAddr: 0x56A18, symBinAddr: 0x1000BDCE8, symSize: 0x50 }
  - { offset: 0x6CE6E, size: 0x8, addend: 0x0, symName: __ZNSt3__121__unwrap_and_dispatchB8ne180100INS_10__overloadINS_11__move_loopINS_17_ClassicAlgPolicyEEENS_14__move_trivialEEEPPNS_7__stateIcEESA_SA_TnNS_9enable_ifIXsr12__can_rewrapIT0_T1_T2_EE5valueEiE4typeELi0EEENS_4pairISC_SE_EESC_SD_SE_, symObjAddr: 0x56A68, symBinAddr: 0x1000BDD38, symSize: 0x380 }
  - { offset: 0x6CF07, size: 0x8, addend: 0x0, symName: __ZNSt3__114__unwrap_rangeB8ne180100IPPNS_7__stateIcEES4_EEDaT_T0_, symObjAddr: 0x56DE8, symBinAddr: 0x1000BE0B8, symSize: 0x38 }
  - { offset: 0x6D0CB, size: 0x8, addend: 0x0, symName: __ZNSt3__113__unwrap_iterB8ne180100IPPNS_7__stateIcEENS_18__unwrap_iter_implIS4_Lb1EEETnNS_9enable_ifIXsr21is_copy_constructibleIT_EE5valueEiE4typeELi0EEEDTclsrT0_8__unwrapclsr3stdE7declvalIS8_EEEES8_, symObjAddr: 0x56E98, symBinAddr: 0x1000BE168, symSize: 0x30 }
  - { offset: 0x6D10F, size: 0x8, addend: 0x0, symName: __ZNSt3__19make_pairB8ne180100IPPNS_7__stateIcEES4_EENS_4pairINS_18__unwrap_ref_decayIT_E4typeENS6_IT0_E4typeEEEOS7_OSA_, symObjAddr: 0x56EC8, symBinAddr: 0x1000BE198, symSize: 0x1E0 }
  - { offset: 0x6D160, size: 0x8, addend: 0x0, symName: __ZNSt3__114__rewrap_rangeB8ne180100IPPNS_7__stateIcEES4_S4_EET0_S5_T1_, symObjAddr: 0x570A8, symBinAddr: 0x1000BE378, symSize: 0x30 }
  - { offset: 0x6D1B5, size: 0x8, addend: 0x0, symName: __ZNSt3__113__rewrap_iterB8ne180100IPPNS_7__stateIcEES4_NS_18__unwrap_iter_implIS4_Lb1EEEEET_S7_T0_, symObjAddr: 0x570D8, symBinAddr: 0x1000BE3A8, symSize: 0x50 }
  - { offset: 0x6D25A, size: 0x8, addend: 0x0, symName: __ZNSt3__119__copy_trivial_implB8ne180100IPNS_7__stateIcEES3_EENS_4pairIPT_PT0_EES6_S6_S8_, symObjAddr: 0x57508, symBinAddr: 0x1000BE7D8, symSize: 0x270 }
  - { offset: 0x6D2C9, size: 0x8, addend: 0x0, symName: __ZNSt3__119__constexpr_memmoveB8ne180100IPNS_7__stateIcEES3_TnNS_9enable_ifIXsr23__is_always_bitcastableIT0_T_EE5valueEiE4typeELi0EEEPS6_S9_PS5_NS_15__element_countE, symObjAddr: 0x57778, symBinAddr: 0x1000BEA48, symSize: 0xB0 }
  - { offset: 0x6D337, size: 0x8, addend: 0x0, symName: __ZNSt3__19make_pairB8ne180100IRPPNS_7__stateIcEES4_EENS_4pairINS_18__unwrap_ref_decayIT_E4typeENS7_IT0_E4typeEEEOS8_OSB_, symObjAddr: 0x57828, symBinAddr: 0x1000BEAF8, symSize: 0x1D8 }
  - { offset: 0x6D3DB, size: 0x8, addend: 0x0, symName: __ZNSt3__18distanceB8ne180100INS_13move_iteratorIPPNS_7__stateIcEEEEEENS_15iterator_traitsIT_E15difference_typeES8_S8_, symObjAddr: 0x58158, symBinAddr: 0x1000BF428, symSize: 0x48 }
  - { offset: 0x6D41E, size: 0x8, addend: 0x0, symName: __ZNSt3__114__construct_atB8ne180100IPNS_7__stateIcEEJS3_EPS3_EEPT_S6_DpOT0_, symObjAddr: 0x58798, symBinAddr: 0x1000BFA68, symSize: 0x70 }
  - { offset: 0x6D498, size: 0x8, addend: 0x0, symName: __ZNSt3__112construct_atB8ne180100IPNS_7__stateIcEEJS3_EPS3_EEPT_S6_DpOT0_, symObjAddr: 0x58808, symBinAddr: 0x1000BFAD8, symSize: 0x128 }
  - { offset: 0x6D50A, size: 0x8, addend: 0x0, symName: __ZNSt3__110__distanceB8ne180100INS_13move_iteratorIPPNS_7__stateIcEEEEEENS_15iterator_traitsIT_E15difference_typeES8_S8_NS_26random_access_iterator_tagE, symObjAddr: 0x58C98, symBinAddr: 0x1000BFF68, symSize: 0x190 }
  - { offset: 0x6D561, size: 0x8, addend: 0x0, symName: __ZNSt3__1miB8ne180100IPPNS_7__stateIcEES4_EEDTmicldtfp_4baseEcldtfp0_4baseEERKNS_13move_iteratorIT_EERKNS6_IT0_EE, symObjAddr: 0x58E28, symBinAddr: 0x1000C00F8, symSize: 0x158 }
  - { offset: 0x6D5B0, size: 0x8, addend: 0x0, symName: __ZNSt3__114__construct_atB8ne180100IPNS_7__stateIcEEJRKS3_EPS3_EEPT_S8_DpOT0_, symObjAddr: 0x59098, symBinAddr: 0x1000C0368, symSize: 0x70 }
  - { offset: 0x6D603, size: 0x8, addend: 0x0, symName: __ZNSt3__112construct_atB8ne180100IPNS_7__stateIcEEJRKS3_EPS3_EEPT_S8_DpOT0_, symObjAddr: 0x59108, symBinAddr: 0x1000C03D8, symSize: 0x128 }
  - { offset: 0x6D675, size: 0x8, addend: 0x0, symName: __ZNSt3__113move_backwardB8ne180100IPPNS_7__stateIcEES4_EET0_T_S6_S5_, symObjAddr: 0x59458, symBinAddr: 0x1000C0728, symSize: 0x1C0 }
  - { offset: 0x6D6D2, size: 0x8, addend: 0x0, symName: __ZNSt3__115__move_backwardB8ne180100INS_17_ClassicAlgPolicyEPPNS_7__stateIcEES5_S5_EENS_4pairIT0_T2_EES7_T1_S8_, symObjAddr: 0x59618, symBinAddr: 0x1000C08E8, symSize: 0x50 }
  - { offset: 0x6D73E, size: 0x8, addend: 0x0, symName: __ZNSt3__123__dispatch_copy_or_moveB8ne180100INS_17_ClassicAlgPolicyENS_20__move_backward_loopIS1_EENS_23__move_backward_trivialEPPNS_7__stateIcEES8_S8_EENS_4pairIT2_T4_EESA_T3_SB_, symObjAddr: 0x59668, symBinAddr: 0x1000C0938, symSize: 0x50 }
  - { offset: 0x6D7BC, size: 0x8, addend: 0x0, symName: __ZNSt3__121__unwrap_and_dispatchB8ne180100INS_10__overloadINS_20__move_backward_loopINS_17_ClassicAlgPolicyEEENS_23__move_backward_trivialEEEPPNS_7__stateIcEESA_SA_TnNS_9enable_ifIXsr12__can_rewrapIT0_T1_T2_EE5valueEiE4typeELi0EEENS_4pairISC_SE_EESC_SD_SE_, symObjAddr: 0x596B8, symBinAddr: 0x1000C0988, symSize: 0x378 }
  - { offset: 0x6D89B, size: 0x8, addend: 0x0, symName: __ZNSt3__128__copy_backward_trivial_implB8ne180100IPNS_7__stateIcEES3_EENS_4pairIPT_PT0_EES6_S6_S8_, symObjAddr: 0x59AA8, symBinAddr: 0x1000C0D78, symSize: 0x270 }
  - { offset: 0x6D90D, size: 0x8, addend: 0x0, symName: __ZNSt3__19make_pairB8ne180100IRPPNS_7__stateIcEES5_EENS_4pairINS_18__unwrap_ref_decayIT_E4typeENS7_IT0_E4typeEEEOS8_OSB_, symObjAddr: 0x59D18, symBinAddr: 0x1000C0FE8, symSize: 0x1D8 }
  - { offset: 0x6D95E, size: 0x8, addend: 0x0, symName: __ZNSt3__119__allocate_at_leastB8ne180100INS_9allocatorIPNS_7__stateIcEEEEEENS_19__allocation_resultINS_16allocator_traitsIT_E7pointerEEERS8_m, symObjAddr: 0x5A898, symBinAddr: 0x1000C1B68, symSize: 0x38 }
  - { offset: 0x6D9A2, size: 0x8, addend: 0x0, symName: __ZNSt3__112__destroy_atB8ne180100IPNS_7__stateIcEETnNS_9enable_ifIXntsr8is_arrayIT_EE5valueEiE4typeELi0EEEvPS5_, symObjAddr: 0x5BF68, symBinAddr: 0x1000C3238, symSize: 0x18 }
  - { offset: 0x6D9D9, size: 0x8, addend: 0x0, symName: __ZNSt3__1neB8ne180100ERKNS_16__deque_iteratorINS_7__stateIcEEPS2_RS2_PS3_lLl42EEES8_, symObjAddr: 0x5D288, symBinAddr: 0x1000C44D8, symSize: 0x98 }
  - { offset: 0x6DA16, size: 0x8, addend: 0x0, symName: __ZNSt3__1eqB8ne180100ERKNS_16__deque_iteratorINS_7__stateIcEEPS2_RS2_PS3_lLl42EEES8_, symObjAddr: 0x5D688, symBinAddr: 0x1000C48D8, symSize: 0xE8 }
  - { offset: 0x6DA53, size: 0x8, addend: 0x0, symName: __ZNSt3__18distanceB8ne180100IPNS_9sub_matchIPKcEEEENS_15iterator_traitsIT_E15difference_typeES7_S7_, symObjAddr: 0x61C98, symBinAddr: 0x1000C8EE8, symSize: 0x30 }
  - { offset: 0x6DA96, size: 0x8, addend: 0x0, symName: __ZNSt3__14nextB8ne180100IPNS_9sub_matchIPKcEETnNS_9enable_ifIXsr29__has_input_iterator_categoryIT_EE5valueEiE4typeELi0EEES7_S7_NS_15iterator_traitsIS7_E15difference_typeE, symObjAddr: 0x61CC8, symBinAddr: 0x1000C8F18, symSize: 0x160 }
  - { offset: 0x6DAE4, size: 0x8, addend: 0x0, symName: __ZNSt3__14copyB8ne180100IPNS_9sub_matchIPKcEES5_EET0_T_S7_S6_, symObjAddr: 0x61E28, symBinAddr: 0x1000C9078, symSize: 0x1C0 }
  - { offset: 0x6DB41, size: 0x8, addend: 0x0, symName: __ZNSt3__16__copyB8ne180100INS_17_ClassicAlgPolicyEPNS_9sub_matchIPKcEES6_S6_EENS_4pairIT0_T2_EES8_T1_S9_, symObjAddr: 0x61FE8, symBinAddr: 0x1000C9238, symSize: 0x48 }
  - { offset: 0x6DBAD, size: 0x8, addend: 0x0, symName: __ZNSt3__123__dispatch_copy_or_moveB8ne180100INS_17_ClassicAlgPolicyENS_11__copy_loopIS1_EENS_14__copy_trivialEPNS_9sub_matchIPKcEES9_S9_EENS_4pairIT2_T4_EESB_T3_SC_, symObjAddr: 0x62218, symBinAddr: 0x1000C9468, symSize: 0x50 }
  - { offset: 0x6DC2B, size: 0x8, addend: 0x0, symName: __ZNSt3__121__unwrap_and_dispatchB8ne180100INS_10__overloadINS_11__copy_loopINS_17_ClassicAlgPolicyEEENS_14__copy_trivialEEEPNS_9sub_matchIPKcEESB_SB_TnNS_9enable_ifIXsr12__can_rewrapIT0_T1_T2_EE5valueEiE4typeELi0EEENS_4pairISD_SF_EESD_SE_SF_, symObjAddr: 0x62268, symBinAddr: 0x1000C94B8, symSize: 0x378 }
  - { offset: 0x6DD9D, size: 0x8, addend: 0x0, symName: __ZNSt3__19make_pairB8ne180100IPNS_9sub_matchIPKcEES5_EENS_4pairINS_18__unwrap_ref_decayIT_E4typeENS7_IT0_E4typeEEEOS8_OSB_, symObjAddr: 0x62958, symBinAddr: 0x1000C9BA8, symSize: 0x1E0 }
  - { offset: 0x6DDEE, size: 0x8, addend: 0x0, symName: __ZNSt3__114__rewrap_rangeB8ne180100IPNS_9sub_matchIPKcEES5_S5_EET0_S6_T1_, symObjAddr: 0x62B38, symBinAddr: 0x1000C9D88, symSize: 0x30 }
  - { offset: 0x6DE43, size: 0x8, addend: 0x0, symName: __ZNSt3__110__distanceB8ne180100IPNS_9sub_matchIPKcEEEENS_15iterator_traitsIT_E15difference_typeES7_S7_NS_26random_access_iterator_tagE, symObjAddr: 0x62B98, symBinAddr: 0x1000C9DE8, symSize: 0x28 }
  - { offset: 0x6DE91, size: 0x8, addend: 0x0, symName: __ZNSt3__18distanceB8ne180100IPNS_4pairImPKcEEEENS_15iterator_traitsIT_E15difference_typeES7_S7_, symObjAddr: 0x63128, symBinAddr: 0x1000CA378, symSize: 0x30 }
  - { offset: 0x6DED4, size: 0x8, addend: 0x0, symName: __ZNSt3__14nextB8ne180100IPNS_4pairImPKcEETnNS_9enable_ifIXsr29__has_input_iterator_categoryIT_EE5valueEiE4typeELi0EEES7_S7_NS_15iterator_traitsIS7_E15difference_typeE, symObjAddr: 0x63158, symBinAddr: 0x1000CA3A8, symSize: 0x160 }
  - { offset: 0x6DF22, size: 0x8, addend: 0x0, symName: __ZNSt3__14copyB8ne180100IPNS_4pairImPKcEES5_EET0_T_S7_S6_, symObjAddr: 0x632B8, symBinAddr: 0x1000CA508, symSize: 0x1C0 }
  - { offset: 0x6DF7F, size: 0x8, addend: 0x0, symName: __ZNSt3__16__copyB8ne180100INS_17_ClassicAlgPolicyEPNS_4pairImPKcEES6_S6_EENS2_IT0_T2_EES7_T1_S8_, symObjAddr: 0x63478, symBinAddr: 0x1000CA6C8, symSize: 0x48 }
  - { offset: 0x6DFEB, size: 0x8, addend: 0x0, symName: __ZNSt3__123__dispatch_copy_or_moveB8ne180100INS_17_ClassicAlgPolicyENS_11__copy_loopIS1_EENS_14__copy_trivialEPNS_4pairImPKcEES9_S9_EENS5_IT2_T4_EESA_T3_SB_, symObjAddr: 0x636A8, symBinAddr: 0x1000CA8F8, symSize: 0x50 }
  - { offset: 0x6E069, size: 0x8, addend: 0x0, symName: __ZNSt3__121__unwrap_and_dispatchB8ne180100INS_10__overloadINS_11__copy_loopINS_17_ClassicAlgPolicyEEENS_14__copy_trivialEEEPNS_4pairImPKcEESB_SB_TnNS_9enable_ifIXsr12__can_rewrapIT0_T1_T2_EE5valueEiE4typeELi0EEENS7_ISD_SF_EESD_SE_SF_, symObjAddr: 0x636F8, symBinAddr: 0x1000CA948, symSize: 0x378 }
  - { offset: 0x6E102, size: 0x8, addend: 0x0, symName: __ZNSt3__19make_pairB8ne180100IPNS_4pairImPKcEES5_EENS1_INS_18__unwrap_ref_decayIT_E4typeENS6_IT0_E4typeEEEOS7_OSA_, symObjAddr: 0x63DE8, symBinAddr: 0x1000CB038, symSize: 0x1E0 }
  - { offset: 0x6E153, size: 0x8, addend: 0x0, symName: __ZNSt3__114__rewrap_rangeB8ne180100IPNS_4pairImPKcEES5_S5_EET0_S6_T1_, symObjAddr: 0x63FC8, symBinAddr: 0x1000CB218, symSize: 0x28 }
  - { offset: 0x6E1A8, size: 0x8, addend: 0x0, symName: __ZNSt3__110__distanceB8ne180100IPNS_4pairImPKcEEEENS_15iterator_traitsIT_E15difference_typeES7_S7_NS_26random_access_iterator_tagE, symObjAddr: 0x64248, symBinAddr: 0x1000CB498, symSize: 0x28 }
  - { offset: 0x6E1F6, size: 0x8, addend: 0x0, symName: __ZNSt3__16fill_nB8ne180100IPNS_9sub_matchIPKcEEmS4_EET_S6_T0_RKT1_, symObjAddr: 0x64388, symBinAddr: 0x1000CB5D8, symSize: 0x80 }
  - { offset: 0x6E259, size: 0x8, addend: 0x0, symName: __ZNSt3__18__fill_nB8ne180100IPNS_9sub_matchIPKcEEmS4_EET_S6_T0_RKT1_, symObjAddr: 0x64408, symBinAddr: 0x1000CB658, symSize: 0x110 }
  - { offset: 0x6E2BC, size: 0x8, addend: 0x0, symName: __ZNSt3__121__convert_to_integralB8ne180100Em, symObjAddr: 0x64518, symBinAddr: 0x1000CB768, symSize: 0x18 }
  - { offset: 0x6E2E8, size: 0x8, addend: 0x0, symName: __ZNSt3__14nextB8ne180100INS_11__wrap_iterIPKcEETnNS_9enable_ifIXsr29__has_input_iterator_categoryIT_EE5valueEiE4typeELi0EEES6_S6_NS_15iterator_traitsIS6_E15difference_typeE, symObjAddr: 0x646F8, symBinAddr: 0x1000CB948, symSize: 0x178 }
  - { offset: 0x6E336, size: 0x8, addend: 0x0, symName: __ZNSt3__114__construct_atB8ne180100INS_9sub_matchINS_11__wrap_iterIPKcEEEEJEPS6_EEPT_S9_DpOT0_, symObjAddr: 0x66948, symBinAddr: 0x1000CDB98, symSize: 0x30 }
  - { offset: 0x6E39D, size: 0x8, addend: 0x0, symName: __ZNSt3__112construct_atB8ne180100INS_9sub_matchINS_11__wrap_iterIPKcEEEEJEPS6_EEPT_S9_DpOT0_, symObjAddr: 0x66978, symBinAddr: 0x1000CDBC8, symSize: 0x98 }
  - { offset: 0x6E3FC, size: 0x8, addend: 0x0, symName: __ZNSt3__119__allocate_at_leastB8ne180100INS_9allocatorINS_9sub_matchINS_11__wrap_iterIPKcEEEEEEEENS_19__allocation_resultINS_16allocator_traitsIT_E7pointerEEERSB_m, symObjAddr: 0x67978, symBinAddr: 0x1000CEBC8, symSize: 0x38 }
  - { offset: 0x6E43F, size: 0x8, addend: 0x0, symName: __ZNSt3__142__uninitialized_allocator_move_if_noexceptB8ne180100INS_9allocatorINS_9sub_matchINS_11__wrap_iterIPKcEEEEEENS_16reverse_iteratorIPS7_EESB_SB_EET2_RT_T0_T1_SC_, symObjAddr: 0x683F8, symBinAddr: 0x1000CF648, symSize: 0x578 }
  - { offset: 0x6E4F3, size: 0x8, addend: 0x0, symName: __ZNSt3__14swapB8ne180100IPNS_9sub_matchINS_11__wrap_iterIPKcEEEEEENS_9enable_ifIXaasr21is_move_constructibleIT_EE5valuesr18is_move_assignableIS9_EE5valueEvE4typeERS9_SC_, symObjAddr: 0x68A58, symBinAddr: 0x1000CFCA8, symSize: 0x168 }
  - { offset: 0x6E544, size: 0x8, addend: 0x0, symName: __ZNSt3__122__make_exception_guardB8ne180100INS_29_AllocatorDestroyRangeReverseINS_9allocatorINS_9sub_matchINS_11__wrap_iterIPKcEEEEEENS_16reverse_iteratorIPS8_EEEEEENS_28__exception_guard_exceptionsIT_EESF_, symObjAddr: 0x68D18, symBinAddr: 0x1000CFF68, symSize: 0x1F8 }
  - { offset: 0x6E57D, size: 0x8, addend: 0x0, symName: __ZNSt3__1neB8ne180100IPNS_9sub_matchINS_11__wrap_iterIPKcEEEES7_EEbRKNS_16reverse_iteratorIT_EERKNS8_IT0_EEQrqXnecldtfp_4baseEcldtfp0_4baseERNS_14convertible_toIbEEE, symObjAddr: 0x68F88, symBinAddr: 0x1000D01D8, symSize: 0xA0 }
  - { offset: 0x6E5C9, size: 0x8, addend: 0x0, symName: __ZNSt3__112__to_addressB8ne180100INS_16reverse_iteratorIPNS_9sub_matchINS_11__wrap_iterIPKcEEEEEEvEEu7__decayIDTclsr19__to_address_helperIT_EE6__callclsr3stdE7declvalIRKSA_EEEEESC_, symObjAddr: 0x69098, symBinAddr: 0x1000D02E8, symSize: 0x58 }
  - { offset: 0x6E5FF, size: 0x8, addend: 0x0, symName: __ZNSt3__114__construct_atB8ne180100INS_9sub_matchINS_11__wrap_iterIPKcEEEEJS6_EPS6_EEPT_S9_DpOT0_, symObjAddr: 0x69A58, symBinAddr: 0x1000D0CA8, symSize: 0x70 }
  - { offset: 0x6E652, size: 0x8, addend: 0x0, symName: __ZNSt3__112construct_atB8ne180100INS_9sub_matchINS_11__wrap_iterIPKcEEEEJS6_EPS6_EEPT_S9_DpOT0_, symObjAddr: 0x69AC8, symBinAddr: 0x1000D0D18, symSize: 0xB0 }
  - { offset: 0x6E6EE, size: 0x8, addend: 0x0, symName: __ZNSt3__14prevB8ne180100IPNS_9sub_matchINS_11__wrap_iterIPKcEEEETnNS_9enable_ifIXsr29__has_input_iterator_categoryIT_EE5valueEiE4typeELi0EEES9_S9_NS_15iterator_traitsIS9_E15difference_typeE, symObjAddr: 0x69C78, symBinAddr: 0x1000D0EC8, symSize: 0x190 }
  - { offset: 0x6E73D, size: 0x8, addend: 0x0, symName: __ZNSt3__19__advanceB8ne180100IPNS_9sub_matchINS_11__wrap_iterIPKcEEEEEEvRT_NS_15iterator_traitsIS8_E15difference_typeENS_26random_access_iterator_tagE, symObjAddr: 0x69E78, symBinAddr: 0x1000D10C8, symSize: 0xF8 }
  - { offset: 0x6E787, size: 0x8, addend: 0x0, symName: __ZNSt3__119__allocator_destroyB8ne180100INS_9allocatorINS_9sub_matchINS_11__wrap_iterIPKcEEEEEENS_16reverse_iteratorINS9_IPS7_EEEESC_EEvRT_T0_T1_, symObjAddr: 0x6A3B8, symBinAddr: 0x1000D1608, symSize: 0x2F8 }
  - { offset: 0x6E7F3, size: 0x8, addend: 0x0, symName: __ZNSt3__1neB8ne180100INS_16reverse_iteratorIPNS_9sub_matchINS_11__wrap_iterIPKcEEEEEES9_EEbRKNS1_IT_EERKNS1_IT0_EEQrqXnecldtfp_4baseEcldtfp0_4baseERNS_14convertible_toIbEEE, symObjAddr: 0x6A718, symBinAddr: 0x1000D1968, symSize: 0x220 }
  - { offset: 0x6E841, size: 0x8, addend: 0x0, symName: __ZNSt3__112__to_addressB8ne180100INS_16reverse_iteratorINS1_IPNS_9sub_matchINS_11__wrap_iterIPKcEEEEEEEEvEEu7__decayIDTclsr19__to_address_helperIT_EE6__callclsr3stdE7declvalIRKSB_EEEEESD_, symObjAddr: 0x6A938, symBinAddr: 0x1000D1B88, symSize: 0x58 }
  - { offset: 0x6E8A1, size: 0x8, addend: 0x0, symName: __ZNSt3__14prevB8ne180100INS_16reverse_iteratorIPNS_9sub_matchINS_11__wrap_iterIPKcEEEEEETnNS_9enable_ifIXsr29__has_input_iterator_categoryIT_EE5valueEiE4typeELi0EEESB_SB_NS_15iterator_traitsISB_E15difference_typeE, symObjAddr: 0x6ACF8, symBinAddr: 0x1000D1F48, symSize: 0x1E0 }
  - { offset: 0x6E8F0, size: 0x8, addend: 0x0, symName: __ZNSt3__19__advanceB8ne180100INS_16reverse_iteratorIPNS_9sub_matchINS_11__wrap_iterIPKcEEEEEEEEvRT_NS_15iterator_traitsISA_E15difference_typeENS_26random_access_iterator_tagE, symObjAddr: 0x6AF48, symBinAddr: 0x1000D2198, symSize: 0x68 }
  - { offset: 0x6E93B, size: 0x8, addend: 0x0, symName: __ZNSt3__19__advanceB8ne180100INS_11__wrap_iterIPKcEEEEvRT_NS_15iterator_traitsIS5_E15difference_typeENS_26random_access_iterator_tagE, symObjAddr: 0x6BA68, symBinAddr: 0x1000D2CB8, symSize: 0x68 }
  - { offset: 0x6E985, size: 0x8, addend: 0x0, symName: __ZNSt3__1eqB8ne180100IPKcEEbRKNS_11__wrap_iterIT_EES7_, symObjAddr: 0x6BE28, symBinAddr: 0x1000D3078, symSize: 0xA0 }
  - { offset: 0x6E9C8, size: 0x8, addend: 0x0, symName: __ZNSt3__1eqB8ne180100INS_11__wrap_iterIPKcEEEEbRKNS_9sub_matchIT_EES9_, symObjAddr: 0x6BEC8, symBinAddr: 0x1000D3118, symSize: 0x88 }
  - { offset: 0x6EA0E, size: 0x8, addend: 0x0, symName: __ZNSt3__18distanceB8ne180100INS_11__wrap_iterIPKcEEEENS_15iterator_traitsIT_E15difference_typeES6_S6_, symObjAddr: 0x6CB18, symBinAddr: 0x1000D3D68, symSize: 0x48 }
  - { offset: 0x6EA51, size: 0x8, addend: 0x0, symName: __ZNSt3__110__distanceB8ne180100INS_11__wrap_iterIPKcEEEENS_15iterator_traitsIT_E15difference_typeES6_S6_NS_26random_access_iterator_tagE, symObjAddr: 0x6D0D8, symBinAddr: 0x1000D4328, symSize: 0x190 }
  - { offset: 0x6EAA8, size: 0x8, addend: 0x0, symName: __ZNSt3__1miB8ne180100IPKcS2_EEDTmicldtfp_4baseEcldtfp0_4baseEERKNS_11__wrap_iterIT_EERKNS4_IT0_EE, symObjAddr: 0x6D268, symBinAddr: 0x1000D44B8, symSize: 0x88 }
  - { offset: 0x6EAF4, size: 0x8, addend: 0x0, symName: __ZNSt3__119__allocate_at_leastB8ne180100INS_9allocatorIcEEEENS_19__allocation_resultINS_16allocator_traitsIT_E7pointerEEERS5_m, symObjAddr: 0x6D7E8, symBinAddr: 0x1000D4A38, symSize: 0x38 }
  - { offset: 0x6EB37, size: 0x8, addend: 0x0, symName: __ZNSt3__1neB8ne180100IPKcEEbRKNS_11__wrap_iterIT_EES7_, symObjAddr: 0x6DF98, symBinAddr: 0x1000D51E8, symSize: 0xA0 }
  - { offset: 0x6EB7A, size: 0x8, addend: 0x0, symName: __ZNSt3__16__copyB8ne180100INS_17_ClassicAlgPolicyENS_11__wrap_iterIPKcEES5_NS_20back_insert_iteratorINS_12basic_stringIcNS_11char_traitsIcEENS_9allocatorIcEEEEEEEENS_4pairIT0_T2_EESF_T1_SG_, symObjAddr: 0x6ECA8, symBinAddr: 0x1000D5BD8, symSize: 0x80 }
  - { offset: 0x6EBE6, size: 0x8, addend: 0x0, symName: __ZNSt3__123__dispatch_copy_or_moveB8ne180100INS_17_ClassicAlgPolicyENS_11__copy_loopIS1_EENS_14__copy_trivialENS_11__wrap_iterIPKcEES8_NS_20back_insert_iteratorINS_12basic_stringIcNS_11char_traitsIcEENS_9allocatorIcEEEEEEEENS_4pairIT2_T4_EESI_T3_SJ_, symObjAddr: 0x6ED28, symBinAddr: 0x1000D5C58, symSize: 0x80 }
  - { offset: 0x6EC64, size: 0x8, addend: 0x0, symName: __ZNSt3__121__unwrap_and_dispatchB8ne180100INS_10__overloadINS_11__copy_loopINS_17_ClassicAlgPolicyEEENS_14__copy_trivialEEENS_11__wrap_iterIPKcEESA_NS_20back_insert_iteratorINS_12basic_stringIcNS_11char_traitsIcEENS_9allocatorIcEEEEEETnNS_9enable_ifIXsr12__can_rewrapIT0_T1_T2_EE5valueEiE4typeELi0EEENS_4pairISK_SM_EESK_SL_SM_, symObjAddr: 0x6EDA8, symBinAddr: 0x1000D5CD8, symSize: 0x3F0 }
  - { offset: 0x6ECFA, size: 0x8, addend: 0x0, symName: __ZNSt3__114__unwrap_rangeB8ne180100INS_11__wrap_iterIPKcEES4_EEDaT_T0_, symObjAddr: 0x6F198, symBinAddr: 0x1000D60C8, symSize: 0x68 }
  - { offset: 0x6EE1A, size: 0x8, addend: 0x0, symName: __ZNSt3__113__unwrap_iterB8ne180100INS_20back_insert_iteratorINS_12basic_stringIcNS_11char_traitsIcEENS_9allocatorIcEEEEEENS_18__unwrap_iter_implIS8_Lb0EEETnNS_9enable_ifIXsr21is_copy_constructibleIT_EE5valueEiE4typeELi0EEEDTclsrT0_8__unwrapclsr3stdE7declvalISC_EEEESC_, symObjAddr: 0x6F508, symBinAddr: 0x1000D6438, symSize: 0x40 }
  - { offset: 0x6EE5E, size: 0x8, addend: 0x0, symName: __ZNSt3__19make_pairB8ne180100INS_11__wrap_iterIPKcEENS_20back_insert_iteratorINS_12basic_stringIcNS_11char_traitsIcEENS_9allocatorIcEEEEEEEENS_4pairINS_18__unwrap_ref_decayIT_E4typeENSE_IT0_E4typeEEEOSF_OSI_, symObjAddr: 0x6F548, symBinAddr: 0x1000D6478, symSize: 0x1E0 }
  - { offset: 0x6EEAF, size: 0x8, addend: 0x0, symName: __ZNSt3__114__rewrap_rangeB8ne180100INS_11__wrap_iterIPKcEES4_S3_EET0_S5_T1_, symObjAddr: 0x6F728, symBinAddr: 0x1000D6658, symSize: 0x50 }
  - { offset: 0x6EF04, size: 0x8, addend: 0x0, symName: __ZNSt3__113__rewrap_iterB8ne180100INS_20back_insert_iteratorINS_12basic_stringIcNS_11char_traitsIcEENS_9allocatorIcEEEEEES8_NS_18__unwrap_iter_implIS8_Lb0EEEEET_SB_T0_, symObjAddr: 0x6F778, symBinAddr: 0x1000D66A8, symSize: 0x80 }
  - { offset: 0x6EFA9, size: 0x8, addend: 0x0, symName: __ZNSt3__113__unwrap_iterB8ne180100INS_11__wrap_iterIPKcEENS_18__unwrap_iter_implIS4_Lb1EEETnNS_9enable_ifIXsr21is_copy_constructibleIT_EE5valueEiE4typeELi0EEEDTclsrT0_8__unwrapclsr3stdE7declvalIS8_EEEES8_, symObjAddr: 0x6FA38, symBinAddr: 0x1000D6968, symSize: 0x38 }
  - { offset: 0x6F040, size: 0x8, addend: 0x0, symName: __ZNSt3__112__to_addressB8ne180100INS_11__wrap_iterIPKcEEvEEu7__decayIDTclsr19__to_address_helperIT_EE6__callclsr3stdE7declvalIRKS5_EEEEES7_, symObjAddr: 0x6FC28, symBinAddr: 0x1000D6B58, symSize: 0x60 }
  - { offset: 0x6F0DE, size: 0x8, addend: 0x0, symName: __ZNSt3__19make_pairB8ne180100IPKcNS_20back_insert_iteratorINS_12basic_stringIcNS_11char_traitsIcEENS_9allocatorIcEEEEEEEENS_4pairINS_18__unwrap_ref_decayIT_E4typeENSC_IT0_E4typeEEEOSD_OSG_, symObjAddr: 0x701E8, symBinAddr: 0x1000D7118, symSize: 0x1D8 }
  - { offset: 0x6F24B, size: 0x8, addend: 0x0, symName: __ZNSt3__113__rewrap_iterB8ne180100INS_11__wrap_iterIPKcEES3_NS_18__unwrap_iter_implIS4_Lb1EEEEET_S7_T0_, symObjAddr: 0x70688, symBinAddr: 0x1000D75B8, symSize: 0x70 }
  - { offset: 0x6F2A1, size: 0x8, addend: 0x0, symName: __ZNSt3__119__throw_regex_errorB8ne180100ILNS_15regex_constants10error_typeE3EEEvv, symObjAddr: 0x70B98, symBinAddr: 0x1000D7AC8, symSize: 0x98 }
  - { offset: 0x6F2C6, size: 0x8, addend: 0x0, symName: __ZNSt3__14copyB8ne180100IPKcPcEET0_T_S5_S4_, symObjAddr: 0x725C8, symBinAddr: 0x1000D94F8, symSize: 0x1C0 }
  - { offset: 0x6F323, size: 0x8, addend: 0x0, symName: __ZNSt3__16__copyB8ne180100INS_17_ClassicAlgPolicyEPKcS3_PcEENS_4pairIT0_T2_EES6_T1_S7_, symObjAddr: 0x72788, symBinAddr: 0x1000D96B8, symSize: 0x50 }
  - { offset: 0x6F38F, size: 0x8, addend: 0x0, symName: __ZNSt3__123__dispatch_copy_or_moveB8ne180100INS_17_ClassicAlgPolicyENS_11__copy_loopIS1_EENS_14__copy_trivialEPKcS6_PcEENS_4pairIT2_T4_EES9_T3_SA_, symObjAddr: 0x727D8, symBinAddr: 0x1000D9708, symSize: 0x50 }
  - { offset: 0x6F40D, size: 0x8, addend: 0x0, symName: __ZNSt3__121__unwrap_and_dispatchB8ne180100INS_10__overloadINS_11__copy_loopINS_17_ClassicAlgPolicyEEENS_14__copy_trivialEEEPKcS8_PcTnNS_9enable_ifIXsr12__can_rewrapIT0_T1_T2_EE5valueEiE4typeELi0EEENS_4pairISB_SD_EESB_SC_SD_, symObjAddr: 0x72828, symBinAddr: 0x1000D9758, symSize: 0x380 }
  - { offset: 0x6F4A6, size: 0x8, addend: 0x0, symName: __ZNSt3__114__unwrap_rangeB8ne180100IPKcS2_EEDaT_T0_, symObjAddr: 0x72BA8, symBinAddr: 0x1000D9AD8, symSize: 0x38 }
  - { offset: 0x6F63B, size: 0x8, addend: 0x0, symName: __ZNSt3__113__unwrap_iterB8ne180100IPcNS_18__unwrap_iter_implIS1_Lb1EEETnNS_9enable_ifIXsr21is_copy_constructibleIT_EE5valueEiE4typeELi0EEEDTclsrT0_8__unwrapclsr3stdE7declvalIS5_EEEES5_, symObjAddr: 0x72C58, symBinAddr: 0x1000D9B88, symSize: 0x30 }
  - { offset: 0x6F67F, size: 0x8, addend: 0x0, symName: __ZNSt3__19make_pairB8ne180100IPKcPcEENS_4pairINS_18__unwrap_ref_decayIT_E4typeENS5_IT0_E4typeEEEOS6_OS9_, symObjAddr: 0x72C88, symBinAddr: 0x1000D9BB8, symSize: 0x1E0 }
  - { offset: 0x6F6D0, size: 0x8, addend: 0x0, symName: __ZNSt3__114__rewrap_rangeB8ne180100IPKcS2_S2_EET0_S3_T1_, symObjAddr: 0x72E68, symBinAddr: 0x1000D9D98, symSize: 0x30 }
  - { offset: 0x6F725, size: 0x8, addend: 0x0, symName: __ZNSt3__113__rewrap_iterB8ne180100IPcS1_NS_18__unwrap_iter_implIS1_Lb1EEEEET_S4_T0_, symObjAddr: 0x72E98, symBinAddr: 0x1000D9DC8, symSize: 0x50 }
  - { offset: 0x6F7CA, size: 0x8, addend: 0x0, symName: __ZNSt3__113__unwrap_iterB8ne180100IPKcNS_18__unwrap_iter_implIS2_Lb1EEETnNS_9enable_ifIXsr21is_copy_constructibleIT_EE5valueEiE4typeELi0EEEDTclsrT0_8__unwrapclsr3stdE7declvalIS6_EEEES6_, symObjAddr: 0x730D8, symBinAddr: 0x1000DA008, symSize: 0x30 }
  - { offset: 0x6F861, size: 0x8, addend: 0x0, symName: __ZNSt3__119__copy_trivial_implB8ne180100IKccEENS_4pairIPT_PT0_EES4_S4_S6_, symObjAddr: 0x73138, symBinAddr: 0x1000DA068, symSize: 0x260 }
  - { offset: 0x6F8D0, size: 0x8, addend: 0x0, symName: __ZNSt3__119__constexpr_memmoveB8ne180100IcKcTnNS_9enable_ifIXsr23__is_always_bitcastableIT0_T_EE5valueEiE4typeELi0EEEPS4_S7_PS3_NS_15__element_countE, symObjAddr: 0x73398, symBinAddr: 0x1000DA2C8, symSize: 0x60 }
  - { offset: 0x6F93E, size: 0x8, addend: 0x0, symName: __ZNSt3__19make_pairB8ne180100IRPKcPcEENS_4pairINS_18__unwrap_ref_decayIT_E4typeENS6_IT0_E4typeEEEOS7_OSA_, symObjAddr: 0x733F8, symBinAddr: 0x1000DA328, symSize: 0x1D8 }
  - { offset: 0x6F9E2, size: 0x8, addend: 0x0, symName: __ZNSt3__113__rewrap_iterB8ne180100IPKcS2_NS_18__unwrap_iter_implIS2_Lb1EEEEET_S5_T0_, symObjAddr: 0x73A18, symBinAddr: 0x1000DA948, symSize: 0x50 }
  - { offset: 0x6FA37, size: 0x8, addend: 0x0, symName: __ZNSt3__16fill_nB8ne180100IPcmcEET_S2_T0_RKT1_, symObjAddr: 0x73BA8, symBinAddr: 0x1000DAAD8, symSize: 0x70 }
  - { offset: 0x6FA9A, size: 0x8, addend: 0x0, symName: __ZNSt3__18__fill_nB8ne180100IPcmcEET_S2_T0_RKT1_, symObjAddr: 0x73C18, symBinAddr: 0x1000DAB48, symSize: 0x148 }
  - { offset: 0x6FAFD, size: 0x8, addend: 0x0, symName: __ZNSt3__19use_facetB8ne180100INS_7collateIcEEEERKT_RKNS_6localeE, symObjAddr: 0x74518, symBinAddr: 0x1000DB448, symSize: 0x158 }
  - { offset: 0x6FB33, size: 0x8, addend: 0x0, symName: __ZNSt3__119__throw_regex_errorB8ne180100ILNS_15regex_constants10error_typeE17EEEvv, symObjAddr: 0x74F28, symBinAddr: 0x1000DBE58, symSize: 0xA0 }
  - { offset: 0x6FFBD, size: 0x8, addend: 0x0, symName: __ZNSt3__119__throw_regex_errorB8ne180100ILNS_15regex_constants10error_typeE14EEEvv, symObjAddr: 0x76598, symBinAddr: 0x1000DD4C8, symSize: 0x98 }
  - { offset: 0x709FE, size: 0x8, addend: 0x0, symName: __ZNSt3__14swapB8ne180100IPNS_13__empty_stateIcEEEENS_9enable_ifIXaasr21is_move_constructibleIT_EE5valuesr18is_move_assignableIS5_EE5valueEvE4typeERS5_S8_, symObjAddr: 0x7A118, symBinAddr: 0x1000E1048, symSize: 0x170 }
  - { offset: 0x70A4F, size: 0x8, addend: 0x0, symName: __ZNSt3__14swapB8ne180100IPNS_19__shared_weak_countEEENS_9enable_ifIXaasr21is_move_constructibleIT_EE5valuesr18is_move_assignableIS4_EE5valueEvE4typeERS4_S7_, symObjAddr: 0x7A288, symBinAddr: 0x1000E11B8, symSize: 0x168 }
  - { offset: 0x70AA1, size: 0x8, addend: 0x0, symName: __ZNSt3__119__throw_regex_errorB8ne180100ILNS_15regex_constants10error_typeE6EEEvv, symObjAddr: 0x82638, symBinAddr: 0x1000E9568, symSize: 0x98 }
  - { offset: 0x70B4C, size: 0x8, addend: 0x0, symName: __ZNSt3__18__is_eolB8ne180100IcEEbT_, symObjAddr: 0x83568, symBinAddr: 0x1000EA498, symSize: 0x40 }
  - { offset: 0x70B83, size: 0x8, addend: 0x0, symName: __ZNSt3__14prevB8ne180100IPKcTnNS_9enable_ifIXsr29__has_input_iterator_categoryIT_EE5valueEiE4typeELi0EEES4_S4_NS_15iterator_traitsIS4_E15difference_typeE, symObjAddr: 0x835A8, symBinAddr: 0x1000EA4D8, symSize: 0x188 }
  - { offset: 0x70DD9, size: 0x8, addend: 0x0, symName: __ZNSt3__134__libcpp_atomic_refcount_incrementB8ne180100IlEET_RS1_, symObjAddr: 0x87A38, symBinAddr: 0x1000EE968, symSize: 0x78 }
  - { offset: 0x70E0F, size: 0x8, addend: 0x0, symName: __ZNSt3__119__throw_regex_errorB8ne180100ILNS_15regex_constants10error_typeE11EEEvv, symObjAddr: 0x89D38, symBinAddr: 0x1000F0C68, symSize: 0x98 }
  - { offset: 0x71095, size: 0x8, addend: 0x0, symName: __ZNSt3__119__throw_regex_errorB8ne180100ILNS_15regex_constants10error_typeE4EEEvv, symObjAddr: 0x8DD08, symBinAddr: 0x1000F4C38, symSize: 0x98 }
  - { offset: 0x714D4, size: 0x8, addend: 0x0, symName: __ZNSt3__15equalB8ne180100IPKcS2_EEbT_S3_T0_, symObjAddr: 0x945D8, symBinAddr: 0x1000FB508, symSize: 0x40 }
  - { offset: 0x7152E, size: 0x8, addend: 0x0, symName: __ZNSt3__15equalB8ne180100IPKcS2_NS_10__equal_toEEEbT_S4_T0_T1_, symObjAddr: 0x94618, symBinAddr: 0x1000FB548, symSize: 0x190 }
  - { offset: 0x715A6, size: 0x8, addend: 0x0, symName: __ZNSt3__117__equal_iter_implB8ne180100IKcS1_NS_10__equal_toETnNS_9enable_ifIXaaaaaasr13__desugars_toINS_11__equal_tagET1_T_T0_EE5valuentsr11is_volatileIS6_EE5valuentsr11is_volatileIS7_EE5valuesr41__libcpp_is_trivially_equality_comparableIS6_S7_EE5valueEiE4typeELi0EEEbPS6_SA_PS7_RS5_, symObjAddr: 0x947A8, symBinAddr: 0x1000FB6D8, symSize: 0x50 }
  - { offset: 0x7161A, size: 0x8, addend: 0x0, symName: __ZNSt3__124__constexpr_memcmp_equalB8ne180100IccEEbPKT_PKT0_NS_15__element_countE, symObjAddr: 0x947F8, symBinAddr: 0x1000FB728, symSize: 0x48 }
  - { offset: 0x71682, size: 0x8, addend: 0x0, symName: __ZNSt3__1eqB8ne180100IcNS_11char_traitsIcEENS_9allocatorIcEEEEbRKNS_12basic_stringIT_T0_T1_EEPKS6_, symObjAddr: 0x964A8, symBinAddr: 0x1000FD3D8, symSize: 0x1C8 }
  - { offset: 0x716DC, size: 0x8, addend: 0x0, symName: __ZNSt3__1eqB8ne180100IcNS_11char_traitsIcEEEEbNS_17basic_string_viewIT_T0_EENS_13type_identityIS6_E4typeE, symObjAddr: 0x9C768, symBinAddr: 0x100103698, symSize: 0x208 }
  - { offset: 0x71733, size: 0x8, addend: 0x0, symName: __ZNSt3__128__char_traits_length_checkedB8ne180100INS_11char_traitsIcEEEEmPKNT_9char_typeE, symObjAddr: 0x9CE28, symBinAddr: 0x1001039E8, symSize: 0x28 }
  - { offset: 0x7176A, size: 0x8, addend: 0x0, symName: __ZNSt3__112__to_addressB8ne180100INS_4pairIccEEEEPT_S4_, symObjAddr: 0x9DA18, symBinAddr: 0x1001045D8, symSize: 0x20 }
  - { offset: 0x717A0, size: 0x8, addend: 0x0, symName: __ZNSt3__112__destroy_atB8ne180100INS_4pairIccEETnNS_9enable_ifIXntsr8is_arrayIT_EE5valueEiE4typeELi0EEEvPS4_, symObjAddr: 0x9DA38, symBinAddr: 0x1001045F8, symSize: 0x18 }
  - { offset: 0x717D7, size: 0x8, addend: 0x0, symName: __ZNSt3__112__to_addressB8ne180100INS_4pairINS_12basic_stringIcNS_11char_traitsIcEENS_9allocatorIcEEEES7_EEEEPT_SA_, symObjAddr: 0x9EC28, symBinAddr: 0x1001057E8, symSize: 0x20 }
  - { offset: 0x7180D, size: 0x8, addend: 0x0, symName: __ZNSt3__112__destroy_atB8ne180100INS_4pairINS_12basic_stringIcNS_11char_traitsIcEENS_9allocatorIcEEEES7_EETnNS_9enable_ifIXntsr8is_arrayIT_EE5valueEiE4typeELi0EEEvPSA_, symObjAddr: 0x9EC48, symBinAddr: 0x100105808, symSize: 0x58 }
  - { offset: 0x71845, size: 0x8, addend: 0x0, symName: __ZNSt3__112__destroy_atB8ne180100IcTnNS_9enable_ifIXntsr8is_arrayIT_EE5valueEiE4typeELi0EEEvPS2_, symObjAddr: 0x9FEF8, symBinAddr: 0x100106AB8, symSize: 0x18 }
  - { offset: 0x7187C, size: 0x8, addend: 0x0, symName: __ZNSt3__1eqB8ne180100IccccEEbRKNS_4pairIT_T0_EERKNS1_IT1_T2_EE, symObjAddr: 0xA06A8, symBinAddr: 0x100107208, symSize: 0x178 }
  - { offset: 0x718DD, size: 0x8, addend: 0x0, symName: __ZNSt3__1leB8ne180100ENS_15strong_orderingENS_20_CmpUnspecifiedParamE, symObjAddr: 0xA0FF8, symBinAddr: 0x100107B58, symSize: 0x30 }
  - { offset: 0x71914, size: 0x8, addend: 0x0, symName: __ZNSt3__14findB8ne180100INS_11__wrap_iterIPKcEEcEET_S5_S5_RKT0_, symObjAddr: 0xA1648, symBinAddr: 0x1001080B8, symSize: 0x238 }
  - { offset: 0x71983, size: 0x8, addend: 0x0, symName: __ZNSt3__18distanceB8ne180100IPcEENS_15iterator_traitsIT_E15difference_typeES3_S3_, symObjAddr: 0xA2B08, symBinAddr: 0x100109578, symSize: 0x28 }
  - { offset: 0x719C6, size: 0x8, addend: 0x0, symName: __ZNSt3__110__distanceB8ne180100IPcEENS_15iterator_traitsIT_E15difference_typeES3_S3_NS_26random_access_iterator_tagE, symObjAddr: 0xA3058, symBinAddr: 0x100109AC8, symSize: 0x28 }
  - { offset: 0x71A14, size: 0x8, addend: 0x0, symName: __ZNSt3__111__find_implB8ne180100IKccNS_10__identityETnNS_9enable_ifIXaaaasr13__is_identityIT1_EE5valuesr41__libcpp_is_trivially_equality_comparableIT_T0_EE5valueeqstS5_Li1EEiE4typeELi0EEEPS5_S9_S9_RKS6_RS4_, symObjAddr: 0xA4458, symBinAddr: 0x10010ACA8, symSize: 0xE0 }
  - { offset: 0x71A9D, size: 0x8, addend: 0x0, symName: __ZNSt3__114__construct_atB8ne180100IcJcEPcEEPT_S3_DpOT0_, symObjAddr: 0xA5B58, symBinAddr: 0x10010C368, symSize: 0x60 }
  - { offset: 0x71B17, size: 0x8, addend: 0x0, symName: __ZNSt3__112construct_atB8ne180100IcJcEPcEEPT_S3_DpOT0_, symObjAddr: 0xA5BB8, symBinAddr: 0x10010C3C8, symSize: 0x118 }
  - { offset: 0x71B89, size: 0x8, addend: 0x0, symName: __ZNSt3__142__uninitialized_allocator_move_if_noexceptB8ne180100INS_9allocatorIcEENS_16reverse_iteratorIPcEES5_cvEET1_RT_T0_S9_S6_, symObjAddr: 0xA7B68, symBinAddr: 0x10010E378, symSize: 0x258 }
  - { offset: 0x71C0D, size: 0x8, addend: 0x0, symName: __ZNSt3__14swapB8ne180100IPcEENS_9enable_ifIXaasr21is_move_constructibleIT_EE5valuesr18is_move_assignableIS3_EE5valueEvE4typeERS3_S6_, symObjAddr: 0xA7EA8, symBinAddr: 0x10010E6B8, symSize: 0x168 }
  - { offset: 0x71C5E, size: 0x8, addend: 0x0, symName: __ZNSt3__14moveB8ne180100INS_16reverse_iteratorIPcEES3_EET0_T_S5_S4_, symObjAddr: 0xA8158, symBinAddr: 0x10010E968, symSize: 0x290 }
  - { offset: 0x71CBB, size: 0x8, addend: 0x0, symName: __ZNSt3__16__moveB8ne180100INS_17_ClassicAlgPolicyENS_16reverse_iteratorIPcEES4_S4_EENS_4pairIT0_T2_EES6_T1_S7_, symObjAddr: 0xA83E8, symBinAddr: 0x10010EBF8, symSize: 0x220 }
  - { offset: 0x71D2D, size: 0x8, addend: 0x0, symName: __ZNSt3__123__dispatch_copy_or_moveB8ne180100INS_17_ClassicAlgPolicyENS_11__move_loopIS1_EENS_14__move_trivialENS_16reverse_iteratorIPcEES7_S7_EENS_4pairIT2_T4_EES9_T3_SA_, symObjAddr: 0xA8608, symBinAddr: 0x10010EE18, symSize: 0x220 }
  - { offset: 0x71DB1, size: 0x8, addend: 0x0, symName: __ZNSt3__121__unwrap_and_dispatchB8ne180100INS_10__overloadINS_11__move_loopINS_17_ClassicAlgPolicyEEENS_14__move_trivialEEENS_16reverse_iteratorIPcEES9_S9_TnNS_9enable_ifIXsr12__can_rewrapIT0_T1_T2_EE5valueEiE4typeELi0EEENS_4pairISB_SD_EESB_SC_SD_, symObjAddr: 0xA8828, symBinAddr: 0x10010F038, symSize: 0x480 }
  - { offset: 0x71E4E, size: 0x8, addend: 0x0, symName: __ZNSt3__114__unwrap_rangeB8ne180100INS_16reverse_iteratorIPcEES3_EEDaT_T0_, symObjAddr: 0xA8CA8, symBinAddr: 0x10010F4B8, symSize: 0x68 }
  - { offset: 0x71FC0, size: 0x8, addend: 0x0, symName: __ZNSt3__113__unwrap_iterB8ne180100INS_16reverse_iteratorIPcEENS_18__unwrap_iter_implIS3_Lb0EEETnNS_9enable_ifIXsr21is_copy_constructibleIT_EE5valueEiE4typeELi0EEEDTclsrT0_8__unwrapclsr3stdE7declvalIS7_EEEES7_, symObjAddr: 0xA90F8, symBinAddr: 0x10010F908, symSize: 0x50 }
  - { offset: 0x72004, size: 0x8, addend: 0x0, symName: __ZNSt3__19make_pairB8ne180100INS_16reverse_iteratorIPcEES3_EENS_4pairINS_18__unwrap_ref_decayIT_E4typeENS5_IT0_E4typeEEEOS6_OS9_, symObjAddr: 0xA9148, symBinAddr: 0x10010F958, symSize: 0xE0 }
  - { offset: 0x72053, size: 0x8, addend: 0x0, symName: __ZNSt3__114__rewrap_rangeB8ne180100INS_16reverse_iteratorIPcEES3_S3_EET0_S4_T1_, symObjAddr: 0xA9228, symBinAddr: 0x10010FA38, symSize: 0x80 }
  - { offset: 0x720A8, size: 0x8, addend: 0x0, symName: __ZNSt3__113__rewrap_iterB8ne180100INS_16reverse_iteratorIPcEES3_NS_18__unwrap_iter_implIS3_Lb0EEEEET_S6_T0_, symObjAddr: 0xA92A8, symBinAddr: 0x10010FAB8, symSize: 0xA0 }
  - { offset: 0x7214D, size: 0x8, addend: 0x0, symName: __ZNSt3__1neB8ne180100IPcS1_EEbRKNS_16reverse_iteratorIT_EERKNS2_IT0_EEQrqXnecldtfp_4baseEcldtfp0_4baseERNS_14convertible_toIbEEE, symObjAddr: 0xA96A8, symBinAddr: 0x10010FEB8, symSize: 0xA0 }
  - { offset: 0x72262, size: 0x8, addend: 0x0, symName: __ZNSt3__114__construct_atB8ne180100IcJRKcEPcEEPT_S5_DpOT0_, symObjAddr: 0xAAB28, symBinAddr: 0x100111338, symSize: 0x60 }
  - { offset: 0x722B5, size: 0x8, addend: 0x0, symName: __ZNSt3__112construct_atB8ne180100IcJRKcEPcEEPT_S5_DpOT0_, symObjAddr: 0xAAB88, symBinAddr: 0x100111398, symSize: 0x118 }
  - { offset: 0x72327, size: 0x8, addend: 0x0, symName: __ZNSt3__17__is_07B8ne180100Eh, symObjAddr: 0xAAE78, symBinAddr: 0x100111688, symSize: 0x30 }
  - { offset: 0x72355, size: 0x8, addend: 0x0, symName: __ZNSt3__17__is_89B8ne180100Eh, symObjAddr: 0xAAEA8, symBinAddr: 0x1001116B8, symSize: 0x30 }
  - { offset: 0x72383, size: 0x8, addend: 0x0, symName: __ZNSt3__110__to_lowerB8ne180100Eh, symObjAddr: 0xAAED8, symBinAddr: 0x1001116E8, symSize: 0x20 }
  - { offset: 0x723B2, size: 0x8, addend: 0x0, symName: __ZNSt3__119__throw_regex_errorB8ne180100ILNS_15regex_constants10error_typeE5EEEvv, symObjAddr: 0xAAEF8, symBinAddr: 0x100111708, symSize: 0x98 }
  - { offset: 0x723D7, size: 0x8, addend: 0x0, symName: __ZNSt3__16searchB8ne180100IPKcPcEET_S4_S4_T0_S5_, symObjAddr: 0xB2AF8, symBinAddr: 0x100119308, symSize: 0x38 }
  - { offset: 0x72440, size: 0x8, addend: 0x0, symName: __ZNSt3__119__throw_regex_errorB8ne180100ILNS_15regex_constants10error_typeE1EEEvv, symObjAddr: 0xB2BB8, symBinAddr: 0x1001193C8, symSize: 0x98 }
  - { offset: 0x72465, size: 0x8, addend: 0x0, symName: __ZNSt3__16searchB8ne180100IPKcPcNS_10__equal_toEEET_S5_S5_T0_S6_T1_, symObjAddr: 0xB2FA8, symBinAddr: 0x1001197B8, symSize: 0x1C0 }
  - { offset: 0x724FE, size: 0x8, addend: 0x0, symName: __ZNSt3__113__search_implB8ne180100IPKcS2_PcS3_NS_10__equal_toENS_10__identityES5_EENS_4pairIT_S7_EES7_T0_T1_T2_RT3_RT4_RT5_PNS_9enable_ifIXaasr37__has_random_access_iterator_categoryIS7_EE5valuesr37__has_random_access_iterator_categoryISA_EE5valueEvE4typeE, symObjAddr: 0xB3168, symBinAddr: 0x100119978, symSize: 0x370 }
  - { offset: 0x725F2, size: 0x8, addend: 0x0, symName: __ZNSt3__19make_pairB8ne180100IRPKcS3_EENS_4pairINS_18__unwrap_ref_decayIT_E4typeENS5_IT0_E4typeEEEOS6_OS9_, symObjAddr: 0xB34D8, symBinAddr: 0x100119CE8, symSize: 0x1E0 }
  - { offset: 0x72643, size: 0x8, addend: 0x0, symName: __ZNSt3__127__search_random_access_implB8ne180100INS_17_ClassicAlgPolicyEPKcS3_PcS4_NS_10__equal_toENS_10__identityES6_llEENS_4pairIT0_S8_EES8_T1_T2_T3_RT4_RT5_RT6_T7_T8_, symObjAddr: 0xB36B8, symBinAddr: 0x100119EC8, symSize: 0x8F8 }
  - { offset: 0x7277D, size: 0x8, addend: 0x0, symName: __ZNSt3__18__invokeB8ne180100IRNS_10__equal_toEJRKcRcEEEDTclclsr3stdE7declvalIT_EEspclsr3stdE7declvalIT0_EEEEOS6_DpOS7_, symObjAddr: 0xB4208, symBinAddr: 0x10011AA18, symSize: 0xA0 }
  - { offset: 0x727E2, size: 0x8, addend: 0x0, symName: __ZNSt3__18__invokeB8ne180100IRNS_10__identityEJRKcEEEDTclclsr3stdE7declvalIT_EEspclsr3stdE7declvalIT0_EEEEOS5_DpOS6_, symObjAddr: 0xB42A8, symBinAddr: 0x10011AAB8, symSize: 0xA0 }
  - { offset: 0x72833, size: 0x8, addend: 0x0, symName: __ZNSt3__18__invokeB8ne180100IRNS_10__identityEJRcEEEDTclclsr3stdE7declvalIT_EEspclsr3stdE7declvalIT0_EEEEOS4_DpOS5_, symObjAddr: 0xB4348, symBinAddr: 0x10011AB58, symSize: 0xA0 }
  - { offset: 0x72884, size: 0x8, addend: 0x0, symName: __ZNSt3__19make_pairB8ne180100IRPKcS2_EENS_4pairINS_18__unwrap_ref_decayIT_E4typeENS5_IT0_E4typeEEEOS6_OS9_, symObjAddr: 0xB43E8, symBinAddr: 0x10011ABF8, symSize: 0x1D8 }
  - { offset: 0x72960, size: 0x8, addend: 0x0, symName: __ZNSt3__18distanceB8ne180100INS_11__wrap_iterIPcEEEENS_15iterator_traitsIT_E15difference_typeES5_S5_, symObjAddr: 0xB6758, symBinAddr: 0x10011CF68, symSize: 0x48 }
  - { offset: 0x729A3, size: 0x8, addend: 0x0, symName: __ZNSt3__110__distanceB8ne180100INS_11__wrap_iterIPcEEEENS_15iterator_traitsIT_E15difference_typeES5_S5_NS_26random_access_iterator_tagE, symObjAddr: 0xB6D18, symBinAddr: 0x10011D528, symSize: 0x190 }
  - { offset: 0x729FA, size: 0x8, addend: 0x0, symName: __ZNSt3__1miB8ne180100IPcS1_EEDTmicldtfp_4baseEcldtfp0_4baseEERKNS_11__wrap_iterIT_EERKNS3_IT0_EE, symObjAddr: 0xB6EA8, symBinAddr: 0x10011D6B8, symSize: 0x88 }
  - { offset: 0x72A46, size: 0x8, addend: 0x0, symName: __ZNSt3__1neB8ne180100IPcEEbRKNS_11__wrap_iterIT_EES6_, symObjAddr: 0xB6FB8, symBinAddr: 0x10011D7C8, symSize: 0x98 }
  - { offset: 0x72A89, size: 0x8, addend: 0x0, symName: __ZNSt3__1eqB8ne180100IPcEEbRKNS_11__wrap_iterIT_EES6_, symObjAddr: 0xB7228, symBinAddr: 0x10011DA38, symSize: 0x98 }
  - { offset: 0x72ACC, size: 0x8, addend: 0x0, symName: __ZNSt3__142__uninitialized_allocator_move_if_noexceptB8ne180100INS_9allocatorINS_12basic_stringIcNS_11char_traitsIcEENS1_IcEEEEEENS_16reverse_iteratorIPS6_EESA_SA_EET2_RT_T0_T1_SB_, symObjAddr: 0xB9678, symBinAddr: 0x10011FE88, symSize: 0x580 }
  - { offset: 0x72B80, size: 0x8, addend: 0x0, symName: __ZNSt3__14swapB8ne180100IPNS_12basic_stringIcNS_11char_traitsIcEENS_9allocatorIcEEEEEENS_9enable_ifIXaasr21is_move_constructibleIT_EE5valuesr18is_move_assignableIS9_EE5valueEvE4typeERS9_SC_, symObjAddr: 0xB9BF8, symBinAddr: 0x100120408, symSize: 0x170 }
  - { offset: 0x72BD1, size: 0x8, addend: 0x0, symName: __ZNSt3__122__make_exception_guardB8ne180100INS_29_AllocatorDestroyRangeReverseINS_9allocatorINS_12basic_stringIcNS_11char_traitsIcEENS2_IcEEEEEENS_16reverse_iteratorIPS7_EEEEEENS_28__exception_guard_exceptionsIT_EESE_, symObjAddr: 0xB9D68, symBinAddr: 0x100120578, symSize: 0x1F8 }
  - { offset: 0x72C0A, size: 0x8, addend: 0x0, symName: __ZNSt3__114__construct_atB8ne180100INS_12basic_stringIcNS_11char_traitsIcEENS_9allocatorIcEEEEJS6_EPS6_EEPT_S9_DpOT0_, symObjAddr: 0xBA878, symBinAddr: 0x100121088, symSize: 0x70 }
  - { offset: 0x72C5D, size: 0x8, addend: 0x0, symName: __ZNSt3__112construct_atB8ne180100INS_12basic_stringIcNS_11char_traitsIcEENS_9allocatorIcEEEEJS6_EPS6_EEPT_S9_DpOT0_, symObjAddr: 0xBA8E8, symBinAddr: 0x1001210F8, symSize: 0xD8 }
  - { offset: 0x72CCF, size: 0x8, addend: 0x0, symName: __ZNSt3__119__allocator_destroyB8ne180100INS_9allocatorINS_12basic_stringIcNS_11char_traitsIcEENS1_IcEEEEEENS_16reverse_iteratorINS8_IPS6_EEEESB_EEvRT_T0_T1_, symObjAddr: 0xBAE08, symBinAddr: 0x100121618, symSize: 0x2F8 }
  - { offset: 0x72D3B, size: 0x8, addend: 0x0, symName: __ZNSt3__1neB8ne180100INS_16reverse_iteratorIPNS_12basic_stringIcNS_11char_traitsIcEENS_9allocatorIcEEEEEES9_EEbRKNS1_IT_EERKNS1_IT0_EEQrqXnecldtfp_4baseEcldtfp0_4baseERNS_14convertible_toIbEEE, symObjAddr: 0xBB168, symBinAddr: 0x100121978, symSize: 0x220 }
  - { offset: 0x72D89, size: 0x8, addend: 0x0, symName: __ZNSt3__112__to_addressB8ne180100INS_16reverse_iteratorINS1_IPNS_12basic_stringIcNS_11char_traitsIcEENS_9allocatorIcEEEEEEEEvEEu7__decayIDTclsr19__to_address_helperIT_EE6__callclsr3stdE7declvalIRKSB_EEEEESD_, symObjAddr: 0xBB388, symBinAddr: 0x100121B98, symSize: 0x58 }
  - { offset: 0x72DE9, size: 0x8, addend: 0x0, symName: __ZNSt3__14prevB8ne180100INS_16reverse_iteratorIPNS_12basic_stringIcNS_11char_traitsIcEENS_9allocatorIcEEEEEETnNS_9enable_ifIXsr29__has_input_iterator_categoryIT_EE5valueEiE4typeELi0EEESB_SB_NS_15iterator_traitsISB_E15difference_typeE, symObjAddr: 0xBB748, symBinAddr: 0x100121F58, symSize: 0x1E0 }
  - { offset: 0x72E38, size: 0x8, addend: 0x0, symName: __ZNSt3__19__advanceB8ne180100INS_16reverse_iteratorIPNS_12basic_stringIcNS_11char_traitsIcEENS_9allocatorIcEEEEEEEEvRT_NS_15iterator_traitsISA_E15difference_typeENS_26random_access_iterator_tagE, symObjAddr: 0xBB998, symBinAddr: 0x1001221A8, symSize: 0x68 }
  - { offset: 0x72E83, size: 0x8, addend: 0x0, symName: __ZNSt3__119__throw_regex_errorB8ne180100ILNS_15regex_constants10error_typeE2EEEvv, symObjAddr: 0xBC428, symBinAddr: 0x100122C38, symSize: 0x98 }
  - { offset: 0x72EA8, size: 0x8, addend: 0x0, symName: __ZNSt3__19make_pairB8ne180100INS_12basic_stringIcNS_11char_traitsIcEENS_9allocatorIcEEEES6_EENS_4pairINS_18__unwrap_ref_decayIT_E4typeENS8_IT0_E4typeEEEOS9_OSC_, symObjAddr: 0xBD748, symBinAddr: 0x100123F58, symSize: 0xD8 }
  - { offset: 0x72EF8, size: 0x8, addend: 0x0, symName: __ZNSt3__119__throw_regex_errorB8ne180100ILNS_15regex_constants10error_typeE9EEEvv, symObjAddr: 0xBDE88, symBinAddr: 0x100124698, symSize: 0x98 }
  - { offset: 0x72F1D, size: 0x8, addend: 0x0, symName: __ZNSt3__114__construct_atB8ne180100INS_4pairINS_12basic_stringIcNS_11char_traitsIcEENS_9allocatorIcEEEES7_EEJS8_EPS8_EEPT_SB_DpOT0_, symObjAddr: 0xBEFD8, symBinAddr: 0x1001257E8, symSize: 0x70 }
  - { offset: 0x72F97, size: 0x8, addend: 0x0, symName: __ZNSt3__112construct_atB8ne180100INS_4pairINS_12basic_stringIcNS_11char_traitsIcEENS_9allocatorIcEEEES7_EEJS8_EPS8_EEPT_SB_DpOT0_, symObjAddr: 0xBF048, symBinAddr: 0x100125858, symSize: 0xD8 }
  - { offset: 0x73009, size: 0x8, addend: 0x0, symName: __ZNSt3__119__allocate_at_leastB8ne180100INS_9allocatorINS_4pairINS_12basic_stringIcNS_11char_traitsIcEENS1_IcEEEES7_EEEEEENS_19__allocation_resultINS_16allocator_traitsIT_E7pointerEEERSC_m, symObjAddr: 0xC0CC8, symBinAddr: 0x1001274D8, symSize: 0x38 }
  - { offset: 0x7304C, size: 0x8, addend: 0x0, symName: __ZNSt3__142__uninitialized_allocator_move_if_noexceptB8ne180100INS_9allocatorINS_4pairINS_12basic_stringIcNS_11char_traitsIcEENS1_IcEEEES7_EEEENS_16reverse_iteratorIPS8_EESC_SC_EET2_RT_T0_T1_SD_, symObjAddr: 0xC1348, symBinAddr: 0x100127B58, symSize: 0x578 }
  - { offset: 0x73100, size: 0x8, addend: 0x0, symName: __ZNSt3__14swapB8ne180100IPNS_4pairINS_12basic_stringIcNS_11char_traitsIcEENS_9allocatorIcEEEES7_EEEENS_9enable_ifIXaasr21is_move_constructibleIT_EE5valuesr18is_move_assignableISB_EE5valueEvE4typeERSB_SE_, symObjAddr: 0xC19A8, symBinAddr: 0x1001281B8, symSize: 0x168 }
  - { offset: 0x73151, size: 0x8, addend: 0x0, symName: __ZNSt3__122__make_exception_guardB8ne180100INS_29_AllocatorDestroyRangeReverseINS_9allocatorINS_4pairINS_12basic_stringIcNS_11char_traitsIcEENS2_IcEEEES8_EEEENS_16reverse_iteratorIPS9_EEEEEENS_28__exception_guard_exceptionsIT_EESG_, symObjAddr: 0xC1C78, symBinAddr: 0x100128488, symSize: 0x1F8 }
  - { offset: 0x7318A, size: 0x8, addend: 0x0, symName: __ZNSt3__1neB8ne180100IPNS_4pairINS_12basic_stringIcNS_11char_traitsIcEENS_9allocatorIcEEEES7_EES9_EEbRKNS_16reverse_iteratorIT_EERKNSA_IT0_EEQrqXnecldtfp_4baseEcldtfp0_4baseERNS_14convertible_toIbEEE, symObjAddr: 0xC1EE8, symBinAddr: 0x1001286F8, symSize: 0xA0 }
  - { offset: 0x731D6, size: 0x8, addend: 0x0, symName: __ZNSt3__112__to_addressB8ne180100INS_16reverse_iteratorIPNS_4pairINS_12basic_stringIcNS_11char_traitsIcEENS_9allocatorIcEEEES8_EEEEvEEu7__decayIDTclsr19__to_address_helperIT_EE6__callclsr3stdE7declvalIRKSC_EEEEESE_, symObjAddr: 0xC1F88, symBinAddr: 0x100128798, symSize: 0x58 }
  - { offset: 0x73236, size: 0x8, addend: 0x0, symName: __ZNSt3__14prevB8ne180100IPNS_4pairINS_12basic_stringIcNS_11char_traitsIcEENS_9allocatorIcEEEES7_EETnNS_9enable_ifIXsr29__has_input_iterator_categoryIT_EE5valueEiE4typeELi0EEESB_SB_NS_15iterator_traitsISB_E15difference_typeE, symObjAddr: 0xC2A48, symBinAddr: 0x100129258, symSize: 0x190 }
  - { offset: 0x73285, size: 0x8, addend: 0x0, symName: __ZNSt3__19__advanceB8ne180100IPNS_4pairINS_12basic_stringIcNS_11char_traitsIcEENS_9allocatorIcEEEES7_EEEEvRT_NS_15iterator_traitsISA_E15difference_typeENS_26random_access_iterator_tagE, symObjAddr: 0xC2C48, symBinAddr: 0x100129458, symSize: 0xF8 }
  - { offset: 0x732CF, size: 0x8, addend: 0x0, symName: __ZNSt3__119__allocator_destroyB8ne180100INS_9allocatorINS_4pairINS_12basic_stringIcNS_11char_traitsIcEENS1_IcEEEES7_EEEENS_16reverse_iteratorINSA_IPS8_EEEESD_EEvRT_T0_T1_, symObjAddr: 0xC3188, symBinAddr: 0x100129998, symSize: 0x2F8 }
  - { offset: 0x7333B, size: 0x8, addend: 0x0, symName: __ZNSt3__1neB8ne180100INS_16reverse_iteratorIPNS_4pairINS_12basic_stringIcNS_11char_traitsIcEENS_9allocatorIcEEEES8_EEEESB_EEbRKNS1_IT_EERKNS1_IT0_EEQrqXnecldtfp_4baseEcldtfp0_4baseERNS_14convertible_toIbEEE, symObjAddr: 0xC34E8, symBinAddr: 0x100129CF8, symSize: 0x220 }
  - { offset: 0x73389, size: 0x8, addend: 0x0, symName: __ZNSt3__112__to_addressB8ne180100INS_16reverse_iteratorINS1_IPNS_4pairINS_12basic_stringIcNS_11char_traitsIcEENS_9allocatorIcEEEES8_EEEEEEvEEu7__decayIDTclsr19__to_address_helperIT_EE6__callclsr3stdE7declvalIRKSD_EEEEESF_, symObjAddr: 0xC3708, symBinAddr: 0x100129F18, symSize: 0x58 }
  - { offset: 0x733E9, size: 0x8, addend: 0x0, symName: __ZNSt3__14prevB8ne180100INS_16reverse_iteratorIPNS_4pairINS_12basic_stringIcNS_11char_traitsIcEENS_9allocatorIcEEEES8_EEEETnNS_9enable_ifIXsr29__has_input_iterator_categoryIT_EE5valueEiE4typeELi0EEESD_SD_NS_15iterator_traitsISD_E15difference_typeE, symObjAddr: 0xC3AC8, symBinAddr: 0x10012A2D8, symSize: 0x1E0 }
  - { offset: 0x73438, size: 0x8, addend: 0x0, symName: __ZNSt3__19__advanceB8ne180100INS_16reverse_iteratorIPNS_4pairINS_12basic_stringIcNS_11char_traitsIcEENS_9allocatorIcEEEES8_EEEEEEvRT_NS_15iterator_traitsISC_E15difference_typeENS_26random_access_iterator_tagE, symObjAddr: 0xC3D18, symBinAddr: 0x10012A528, symSize: 0x68 }
  - { offset: 0x73482, size: 0x8, addend: 0x0, symName: __ZNSt3__19make_pairB8ne180100IccEENS_4pairINS_18__unwrap_ref_decayIT_E4typeENS2_IT0_E4typeEEEOS3_OS6_, symObjAddr: 0xC4B28, symBinAddr: 0x10012B338, symSize: 0x1A0 }
  - { offset: 0x734D3, size: 0x8, addend: 0x0, symName: __ZNSt3__19make_pairB8ne180100IRcS1_EENS_4pairINS_18__unwrap_ref_decayIT_E4typeENS3_IT0_E4typeEEEOS4_OS7_, symObjAddr: 0xC4CC8, symBinAddr: 0x10012B4D8, symSize: 0x198 }
  - { offset: 0x73524, size: 0x8, addend: 0x0, symName: __ZNSt3__114__construct_atB8ne180100INS_4pairIccEEJS2_EPS2_EEPT_S5_DpOT0_, symObjAddr: 0xC5EB8, symBinAddr: 0x10012C6C8, symSize: 0x60 }
  - { offset: 0x7359E, size: 0x8, addend: 0x0, symName: __ZNSt3__112construct_atB8ne180100INS_4pairIccEEJS2_EPS2_EEPT_S5_DpOT0_, symObjAddr: 0xC5F18, symBinAddr: 0x10012C728, symSize: 0x78 }
  - { offset: 0x73610, size: 0x8, addend: 0x0, symName: __ZNSt3__119__allocate_at_leastB8ne180100INS_9allocatorINS_4pairIccEEEEEENS_19__allocation_resultINS_16allocator_traitsIT_E7pointerEEERS7_m, symObjAddr: 0xC7968, symBinAddr: 0x10012E178, symSize: 0x38 }
  - { offset: 0x73653, size: 0x8, addend: 0x0, symName: __ZNSt3__142__uninitialized_allocator_move_if_noexceptB8ne180100INS_9allocatorINS_4pairIccEEEENS_16reverse_iteratorIPS3_EES7_S7_EET2_RT_T0_T1_S8_, symObjAddr: 0xC7FE8, symBinAddr: 0x10012E7F8, symSize: 0x568 }
  - { offset: 0x73707, size: 0x8, addend: 0x0, symName: __ZNSt3__14swapB8ne180100IPNS_4pairIccEEEENS_9enable_ifIXaasr21is_move_constructibleIT_EE5valuesr18is_move_assignableIS5_EE5valueEvE4typeERS5_S8_, symObjAddr: 0xC8638, symBinAddr: 0x10012EE48, symSize: 0x168 }
  - { offset: 0x73758, size: 0x8, addend: 0x0, symName: __ZNSt3__122__make_exception_guardB8ne180100INS_29_AllocatorDestroyRangeReverseINS_9allocatorINS_4pairIccEEEENS_16reverse_iteratorIPS4_EEEEEENS_28__exception_guard_exceptionsIT_EESB_, symObjAddr: 0xC88F8, symBinAddr: 0x10012F108, symSize: 0x1F8 }
  - { offset: 0x73791, size: 0x8, addend: 0x0, symName: __ZNSt3__1neB8ne180100IPNS_4pairIccEES3_EEbRKNS_16reverse_iteratorIT_EERKNS4_IT0_EEQrqXnecldtfp_4baseEcldtfp0_4baseERNS_14convertible_toIbEEE, symObjAddr: 0xC8B68, symBinAddr: 0x10012F378, symSize: 0xA0 }
  - { offset: 0x737DD, size: 0x8, addend: 0x0, symName: __ZNSt3__112__to_addressB8ne180100INS_16reverse_iteratorIPNS_4pairIccEEEEvEEu7__decayIDTclsr19__to_address_helperIT_EE6__callclsr3stdE7declvalIRKS6_EEEEES8_, symObjAddr: 0xC8C08, symBinAddr: 0x10012F418, symSize: 0x58 }
  - { offset: 0x7383D, size: 0x8, addend: 0x0, symName: __ZNSt3__14prevB8ne180100IPNS_4pairIccEETnNS_9enable_ifIXsr29__has_input_iterator_categoryIT_EE5valueEiE4typeELi0EEES5_S5_NS_15iterator_traitsIS5_E15difference_typeE, symObjAddr: 0xC96B8, symBinAddr: 0x10012FEC8, symSize: 0x190 }
  - { offset: 0x7388C, size: 0x8, addend: 0x0, symName: __ZNSt3__19__advanceB8ne180100IPNS_4pairIccEEEEvRT_NS_15iterator_traitsIS4_E15difference_typeENS_26random_access_iterator_tagE, symObjAddr: 0xC98B8, symBinAddr: 0x1001300C8, symSize: 0xF8 }
  - { offset: 0x738D6, size: 0x8, addend: 0x0, symName: __ZNSt3__119__allocator_destroyB8ne180100INS_9allocatorINS_4pairIccEEEENS_16reverse_iteratorINS5_IPS3_EEEES8_EEvRT_T0_T1_, symObjAddr: 0xC9DF8, symBinAddr: 0x100130608, symSize: 0x2F8 }
  - { offset: 0x73942, size: 0x8, addend: 0x0, symName: __ZNSt3__1neB8ne180100INS_16reverse_iteratorIPNS_4pairIccEEEES5_EEbRKNS1_IT_EERKNS1_IT0_EEQrqXnecldtfp_4baseEcldtfp0_4baseERNS_14convertible_toIbEEE, symObjAddr: 0xCA158, symBinAddr: 0x100130968, symSize: 0x220 }
  - { offset: 0x73990, size: 0x8, addend: 0x0, symName: __ZNSt3__112__to_addressB8ne180100INS_16reverse_iteratorINS1_IPNS_4pairIccEEEEEEvEEu7__decayIDTclsr19__to_address_helperIT_EE6__callclsr3stdE7declvalIRKS7_EEEEES9_, symObjAddr: 0xCA378, symBinAddr: 0x100130B88, symSize: 0x58 }
  - { offset: 0x739F0, size: 0x8, addend: 0x0, symName: __ZNSt3__14prevB8ne180100INS_16reverse_iteratorIPNS_4pairIccEEEETnNS_9enable_ifIXsr29__has_input_iterator_categoryIT_EE5valueEiE4typeELi0EEES7_S7_NS_15iterator_traitsIS7_E15difference_typeE, symObjAddr: 0xCA738, symBinAddr: 0x100130F48, symSize: 0x1E0 }
  - { offset: 0x73A3F, size: 0x8, addend: 0x0, symName: __ZNSt3__19__advanceB8ne180100INS_16reverse_iteratorIPNS_4pairIccEEEEEEvRT_NS_15iterator_traitsIS6_E15difference_typeENS_26random_access_iterator_tagE, symObjAddr: 0xCA988, symBinAddr: 0x100131198, symSize: 0x68 }
  - { offset: 0x73B96, size: 0x8, addend: 0x0, symName: __ZNSt3__119__throw_regex_errorB8ne180100ILNS_15regex_constants10error_typeE8EEEvv, symObjAddr: 0xCE1F8, symBinAddr: 0x100134A08, symSize: 0xA0 }
  - { offset: 0x73BBC, size: 0x8, addend: 0x0, symName: __ZNSt3__119__throw_regex_errorB8ne180100ILNS_15regex_constants10error_typeE7EEEvv, symObjAddr: 0xCE298, symBinAddr: 0x100134AA8, symSize: 0x98 }
  - { offset: 0x744FE, size: 0x8, addend: 0x0, symName: __ZNSt3__119__throw_regex_errorB8ne180100ILNS_15regex_constants10error_typeE15EEEvv, symObjAddr: 0xD38B8, symBinAddr: 0x10013A0C8, symSize: 0x98 }
  - { offset: 0x74597, size: 0x8, addend: 0x0, symName: __ZNSt3__14findB8ne180100IPKccEET_S3_S3_RKT0_, symObjAddr: 0xD7828, symBinAddr: 0x10013E038, symSize: 0x1C8 }
  - { offset: 0x74606, size: 0x8, addend: 0x0, symName: __ZNSt3__134__libcpp_atomic_refcount_decrementB8ne180100IlEET_RS1_, symObjAddr: 0xD7F58, symBinAddr: 0x10013E768, symSize: 0x78 }
  - { offset: 0x75E51, size: 0x8, addend: 0x0, symName: _.str.4, symObjAddr: 0xE5BC0, symBinAddr: 0x1001D1400, symSize: 0x0 }
  - { offset: 0x75E8A, size: 0x8, addend: 0x0, symName: _.str.6, symObjAddr: 0xE5BE0, symBinAddr: 0x1001D1420, symSize: 0x0 }
  - { offset: 0x75EC3, size: 0x8, addend: 0x0, symName: _.str.14, symObjAddr: 0xE5D80, symBinAddr: 0x1001D15C0, symSize: 0x0 }
  - { offset: 0x75EE0, size: 0x8, addend: 0x0, symName: _.str.15, symObjAddr: 0xE5DA0, symBinAddr: 0x1001D15E0, symSize: 0x0 }
  - { offset: 0x75EFD, size: 0x8, addend: 0x0, symName: _.str.16, symObjAddr: 0xE5DC0, symBinAddr: 0x1001D1600, symSize: 0x0 }
  - { offset: 0x75F1A, size: 0x8, addend: 0x0, symName: _.str.17, symObjAddr: 0xE5E00, symBinAddr: 0x1001D1640, symSize: 0x0 }
  - { offset: 0x75F37, size: 0x8, addend: 0x0, symName: _.str.18, symObjAddr: 0xE5E60, symBinAddr: 0x1001D16A0, symSize: 0x0 }
  - { offset: 0x75F54, size: 0x8, addend: 0x0, symName: _.str.19, symObjAddr: 0xE5EC0, symBinAddr: 0x1001D1700, symSize: 0x0 }
  - { offset: 0x75F71, size: 0x8, addend: 0x0, symName: _.str.20, symObjAddr: 0xE5F40, symBinAddr: 0x1001D1780, symSize: 0x0 }
  - { offset: 0x75F8E, size: 0x8, addend: 0x0, symName: _.str.21, symObjAddr: 0xE5FC0, symBinAddr: 0x1001D1800, symSize: 0x0 }
  - { offset: 0x75FAB, size: 0x8, addend: 0x0, symName: _.str.22, symObjAddr: 0xE6040, symBinAddr: 0x1001D1880, symSize: 0x0 }
  - { offset: 0x75FBC, size: 0x8, addend: 0x0, symName: _.str.23, symObjAddr: 0xE6060, symBinAddr: 0x1001D18A0, symSize: 0x0 }
  - { offset: 0x75FD9, size: 0x8, addend: 0x0, symName: _.str.24, symObjAddr: 0xE6080, symBinAddr: 0x1001D18C0, symSize: 0x0 }
  - { offset: 0x75FF6, size: 0x8, addend: 0x0, symName: _.str.25, symObjAddr: 0xE60E0, symBinAddr: 0x1001D1920, symSize: 0x0 }
  - { offset: 0x76007, size: 0x8, addend: 0x0, symName: _.str.26, symObjAddr: 0xE6100, symBinAddr: 0x1001D1940, symSize: 0x0 }
  - { offset: 0x7601A, size: 0x8, addend: 0x0, symName: _.str.37, symObjAddr: 0xE6120, symBinAddr: 0x1001D1960, symSize: 0x0 }
  - { offset: 0x76037, size: 0x8, addend: 0x0, symName: _.str.50, symObjAddr: 0xE6140, symBinAddr: 0x1001D1980, symSize: 0x0 }
  - { offset: 0x76054, size: 0x8, addend: 0x0, symName: _.str.51, symObjAddr: 0xE6160, symBinAddr: 0x1001D19A0, symSize: 0x0 }
  - { offset: 0x76071, size: 0x8, addend: 0x0, symName: _.str.52, symObjAddr: 0xE6180, symBinAddr: 0x1001D19C0, symSize: 0x0 }
  - { offset: 0x76089, size: 0x8, addend: 0x0, symName: _.str.69, symObjAddr: 0xE61A0, symBinAddr: 0x1001D19E0, symSize: 0x0 }
  - { offset: 0x7609C, size: 0x8, addend: 0x0, symName: _.str.73, symObjAddr: 0xE61C0, symBinAddr: 0x1001D1A00, symSize: 0x0 }
  - { offset: 0x760AD, size: 0x8, addend: 0x0, symName: _.str.84, symObjAddr: 0xE62C0, symBinAddr: 0x1001D1B00, symSize: 0x0 }
  - { offset: 0x760BE, size: 0x8, addend: 0x0, symName: _.str.85, symObjAddr: 0xE6300, symBinAddr: 0x1001D1B40, symSize: 0x0 }
  - { offset: 0x760DB, size: 0x8, addend: 0x0, symName: _.str.86, symObjAddr: 0xE6340, symBinAddr: 0x1001D1B80, symSize: 0x0 }
  - { offset: 0x760EC, size: 0x8, addend: 0x0, symName: _.str.87, symObjAddr: 0xE6380, symBinAddr: 0x1001D1BC0, symSize: 0x0 }
  - { offset: 0x760FD, size: 0x8, addend: 0x0, symName: _.str.88, symObjAddr: 0xE63C0, symBinAddr: 0x1001D1C00, symSize: 0x0 }
  - { offset: 0x7611A, size: 0x8, addend: 0x0, symName: _.str.89, symObjAddr: 0xE63E0, symBinAddr: 0x1001D1C20, symSize: 0x0 }
  - { offset: 0x76137, size: 0x8, addend: 0x0, symName: _.str.90, symObjAddr: 0xE6420, symBinAddr: 0x1001D1C60, symSize: 0x0 }
  - { offset: 0x76148, size: 0x8, addend: 0x0, symName: _.str.91, symObjAddr: 0xE6480, symBinAddr: 0x1001D1CC0, symSize: 0x0 }
  - { offset: 0x76159, size: 0x8, addend: 0x0, symName: _.str.92, symObjAddr: 0xE6500, symBinAddr: 0x1001D1D40, symSize: 0x0 }
  - { offset: 0x76176, size: 0x8, addend: 0x0, symName: _.str.93, symObjAddr: 0xE6560, symBinAddr: 0x1001D1DA0, symSize: 0x0 }
  - { offset: 0x76193, size: 0x8, addend: 0x0, symName: _.str.94, symObjAddr: 0xE65C0, symBinAddr: 0x1001D1E00, symSize: 0x0 }
  - { offset: 0x761B0, size: 0x8, addend: 0x0, symName: _.str.95, symObjAddr: 0xE6620, symBinAddr: 0x1001D1E60, symSize: 0x0 }
  - { offset: 0x761CD, size: 0x8, addend: 0x0, symName: _.str.96, symObjAddr: 0xE6680, symBinAddr: 0x1001D1EC0, symSize: 0x0 }
  - { offset: 0x761EA, size: 0x8, addend: 0x0, symName: _.str.97, symObjAddr: 0xE66E0, symBinAddr: 0x1001D1F20, symSize: 0x0 }
  - { offset: 0x761FB, size: 0x8, addend: 0x0, symName: _.str.98, symObjAddr: 0xE6740, symBinAddr: 0x1001D1F80, symSize: 0x0 }
  - { offset: 0x76218, size: 0x8, addend: 0x0, symName: _.str.99, symObjAddr: 0xE67A0, symBinAddr: 0x1001D1FE0, symSize: 0x0 }
  - { offset: 0x76229, size: 0x8, addend: 0x0, symName: _.str.100, symObjAddr: 0xE6800, symBinAddr: 0x1001D2040, symSize: 0x0 }
  - { offset: 0x7623A, size: 0x8, addend: 0x0, symName: _.str.101, symObjAddr: 0xE6880, symBinAddr: 0x1001D20C0, symSize: 0x0 }
  - { offset: 0x7624B, size: 0x8, addend: 0x0, symName: _.str.102, symObjAddr: 0xE6900, symBinAddr: 0x1001D2140, symSize: 0x0 }
  - { offset: 0x7625C, size: 0x8, addend: 0x0, symName: _.str.103, symObjAddr: 0xE6980, symBinAddr: 0x1001D21C0, symSize: 0x0 }
  - { offset: 0x76279, size: 0x8, addend: 0x0, symName: _.str.104, symObjAddr: 0xE6A00, symBinAddr: 0x1001D2240, symSize: 0x0 }
  - { offset: 0x76296, size: 0x8, addend: 0x0, symName: _.str.105, symObjAddr: 0xE6A60, symBinAddr: 0x1001D22A0, symSize: 0x0 }
  - { offset: 0x762B3, size: 0x8, addend: 0x0, symName: _.str.106, symObjAddr: 0xE6AC0, symBinAddr: 0x1001D2300, symSize: 0x0 }
  - { offset: 0x762D0, size: 0x8, addend: 0x0, symName: _.str.107, symObjAddr: 0xE6B20, symBinAddr: 0x1001D2360, symSize: 0x0 }
  - { offset: 0x762ED, size: 0x8, addend: 0x0, symName: _.str.108, symObjAddr: 0xE6B80, symBinAddr: 0x1001D23C0, symSize: 0x0 }
  - { offset: 0x762FE, size: 0x8, addend: 0x0, symName: _.str.109, symObjAddr: 0xE6BE0, symBinAddr: 0x1001D2420, symSize: 0x0 }
  - { offset: 0x7630F, size: 0x8, addend: 0x0, symName: _.str.110, symObjAddr: 0xE6C40, symBinAddr: 0x1001D2480, symSize: 0x0 }
  - { offset: 0x76320, size: 0x8, addend: 0x0, symName: _.str.111, symObjAddr: 0xE6CA0, symBinAddr: 0x1001D24E0, symSize: 0x0 }
  - { offset: 0x76331, size: 0x8, addend: 0x0, symName: _.str.112, symObjAddr: 0xE6D00, symBinAddr: 0x1001D2540, symSize: 0x0 }
  - { offset: 0x7634E, size: 0x8, addend: 0x0, symName: _.str.113, symObjAddr: 0xE6D60, symBinAddr: 0x1001D25A0, symSize: 0x0 }
  - { offset: 0x7635F, size: 0x8, addend: 0x0, symName: _.str.114, symObjAddr: 0xE6DC0, symBinAddr: 0x1001D2600, symSize: 0x0 }
  - { offset: 0x7637C, size: 0x8, addend: 0x0, symName: _.str.115, symObjAddr: 0xE6E20, symBinAddr: 0x1001D2660, symSize: 0x0 }
  - { offset: 0x76399, size: 0x8, addend: 0x0, symName: _.str.116, symObjAddr: 0xE6E80, symBinAddr: 0x1001D26C0, symSize: 0x0 }
  - { offset: 0x763AA, size: 0x8, addend: 0x0, symName: _.str.117, symObjAddr: 0xE6EE0, symBinAddr: 0x1001D2720, symSize: 0x0 }
  - { offset: 0x763C7, size: 0x8, addend: 0x0, symName: _.str.118, symObjAddr: 0xE6F40, symBinAddr: 0x1001D2780, symSize: 0x0 }
  - { offset: 0x763D8, size: 0x8, addend: 0x0, symName: _.str.119, symObjAddr: 0xE6FA0, symBinAddr: 0x1001D27E0, symSize: 0x0 }
  - { offset: 0x763E9, size: 0x8, addend: 0x0, symName: _.str.120, symObjAddr: 0xE70E0, symBinAddr: 0x1001D2920, symSize: 0x0 }
  - { offset: 0x763FA, size: 0x8, addend: 0x0, symName: _.str.121, symObjAddr: 0xE7100, symBinAddr: 0x1001D2940, symSize: 0x0 }
  - { offset: 0x7640B, size: 0x8, addend: 0x0, symName: _.str.122, symObjAddr: 0xE7120, symBinAddr: 0x1001D2960, symSize: 0x0 }
  - { offset: 0x7641C, size: 0x8, addend: 0x0, symName: _.str.123, symObjAddr: 0xE7140, symBinAddr: 0x1001D2980, symSize: 0x0 }
  - { offset: 0x7642D, size: 0x8, addend: 0x0, symName: _.str.124, symObjAddr: 0xE7160, symBinAddr: 0x1001D29A0, symSize: 0x0 }
  - { offset: 0x7643E, size: 0x8, addend: 0x0, symName: _.str.125, symObjAddr: 0xE7180, symBinAddr: 0x1001D29C0, symSize: 0x0 }
  - { offset: 0x7644F, size: 0x8, addend: 0x0, symName: _.str.126, symObjAddr: 0xE71C0, symBinAddr: 0x1001D2A00, symSize: 0x0 }
  - { offset: 0x7646C, size: 0x8, addend: 0x0, symName: _.str.127, symObjAddr: 0xE7200, symBinAddr: 0x1001D2A40, symSize: 0x0 }
  - { offset: 0x7647D, size: 0x8, addend: 0x0, symName: _.str.128, symObjAddr: 0xE7260, symBinAddr: 0x1001D2AA0, symSize: 0x0 }
  - { offset: 0x7649A, size: 0x8, addend: 0x0, symName: _.str.129, symObjAddr: 0xE72A0, symBinAddr: 0x1001D2AE0, symSize: 0x0 }
  - { offset: 0x764AB, size: 0x8, addend: 0x0, symName: _.str.130, symObjAddr: 0xE7300, symBinAddr: 0x1001D2B40, symSize: 0x0 }
  - { offset: 0x764BC, size: 0x8, addend: 0x0, symName: _.str.131, symObjAddr: 0xE7380, symBinAddr: 0x1001D2BC0, symSize: 0x0 }
  - { offset: 0x764D9, size: 0x8, addend: 0x0, symName: _.str.132, symObjAddr: 0xE7420, symBinAddr: 0x1001D2C60, symSize: 0x0 }
  - { offset: 0x764F6, size: 0x8, addend: 0x0, symName: _.str.133, symObjAddr: 0xE74C0, symBinAddr: 0x1001D2D00, symSize: 0x0 }
  - { offset: 0x76513, size: 0x8, addend: 0x0, symName: _.str.134, symObjAddr: 0xE7580, symBinAddr: 0x1001D2DC0, symSize: 0x0 }
  - { offset: 0x76530, size: 0x8, addend: 0x0, symName: _.str.135, symObjAddr: 0xE7600, symBinAddr: 0x1001D2E40, symSize: 0x0 }
  - { offset: 0x7654D, size: 0x8, addend: 0x0, symName: _.str.136, symObjAddr: 0xE76A0, symBinAddr: 0x1001D2EE0, symSize: 0x0 }
  - { offset: 0x7655E, size: 0x8, addend: 0x0, symName: _.str.137, symObjAddr: 0xE7720, symBinAddr: 0x1001D2F60, symSize: 0x0 }
  - { offset: 0x7657B, size: 0x8, addend: 0x0, symName: _.str.138, symObjAddr: 0xE77C0, symBinAddr: 0x1001D3000, symSize: 0x0 }
  - { offset: 0x7658C, size: 0x8, addend: 0x0, symName: _.str.139, symObjAddr: 0xE7860, symBinAddr: 0x1001D30A0, symSize: 0x0 }
  - { offset: 0x765A9, size: 0x8, addend: 0x0, symName: _.str.140, symObjAddr: 0xE78E0, symBinAddr: 0x1001D3120, symSize: 0x0 }
  - { offset: 0x765C6, size: 0x8, addend: 0x0, symName: _.str.141, symObjAddr: 0xE7980, symBinAddr: 0x1001D31C0, symSize: 0x0 }
  - { offset: 0x765D7, size: 0x8, addend: 0x0, symName: _.str.142, symObjAddr: 0xE7A00, symBinAddr: 0x1001D3240, symSize: 0x0 }
  - { offset: 0x765F4, size: 0x8, addend: 0x0, symName: _.str.143, symObjAddr: 0xE7AA0, symBinAddr: 0x1001D32E0, symSize: 0x0 }
  - { offset: 0x76611, size: 0x8, addend: 0x0, symName: _.str.144, symObjAddr: 0xE7B20, symBinAddr: 0x1001D3360, symSize: 0x0 }
  - { offset: 0x7662E, size: 0x8, addend: 0x0, symName: _.str.145, symObjAddr: 0xE7BA0, symBinAddr: 0x1001D33E0, symSize: 0x0 }
  - { offset: 0x7664B, size: 0x8, addend: 0x0, symName: _.str.146, symObjAddr: 0xE7C40, symBinAddr: 0x1001D3480, symSize: 0x0 }
  - { offset: 0x76668, size: 0x8, addend: 0x0, symName: _.str.147, symObjAddr: 0xE7CC0, symBinAddr: 0x1001D3500, symSize: 0x0 }
  - { offset: 0x76679, size: 0x8, addend: 0x0, symName: _.str.148, symObjAddr: 0xE7D40, symBinAddr: 0x1001D3580, symSize: 0x0 }
  - { offset: 0x7668A, size: 0x8, addend: 0x0, symName: _.str.149, symObjAddr: 0xE7DC0, symBinAddr: 0x1001D3600, symSize: 0x0 }
  - { offset: 0x7669B, size: 0x8, addend: 0x0, symName: _.str.150, symObjAddr: 0xE7E40, symBinAddr: 0x1001D3680, symSize: 0x0 }
  - { offset: 0x766AC, size: 0x8, addend: 0x0, symName: _.str.151, symObjAddr: 0xE7EC0, symBinAddr: 0x1001D3700, symSize: 0x0 }
  - { offset: 0x766C9, size: 0x8, addend: 0x0, symName: _.str.152, symObjAddr: 0xE7F60, symBinAddr: 0x1001D37A0, symSize: 0x0 }
  - { offset: 0x766E6, size: 0x8, addend: 0x0, symName: _.str.153, symObjAddr: 0xE7FE0, symBinAddr: 0x1001D3820, symSize: 0x0 }
  - { offset: 0x766F7, size: 0x8, addend: 0x0, symName: _.str.154, symObjAddr: 0xE8080, symBinAddr: 0x1001D38C0, symSize: 0x0 }
  - { offset: 0x76714, size: 0x8, addend: 0x0, symName: _.str.155, symObjAddr: 0xE8100, symBinAddr: 0x1001D3940, symSize: 0x0 }
  - { offset: 0x76731, size: 0x8, addend: 0x0, symName: _.str.156, symObjAddr: 0xE81A0, symBinAddr: 0x1001D39E0, symSize: 0x0 }
  - { offset: 0x7674E, size: 0x8, addend: 0x0, symName: _.str.157, symObjAddr: 0xE8220, symBinAddr: 0x1001D3A60, symSize: 0x0 }
  - { offset: 0x7675F, size: 0x8, addend: 0x0, symName: _.str.158, symObjAddr: 0xE82C0, symBinAddr: 0x1001D3B00, symSize: 0x0 }
  - { offset: 0x7677E, size: 0x8, addend: 0x0, symName: _.str.159, symObjAddr: 0xE8340, symBinAddr: 0x1001D3B80, symSize: 0x0 }
  - { offset: 0x76791, size: 0x8, addend: 0x0, symName: _.str.160, symObjAddr: 0xE83C0, symBinAddr: 0x1001D3C00, symSize: 0x0 }
  - { offset: 0x767A4, size: 0x8, addend: 0x0, symName: _.str.161, symObjAddr: 0xE8460, symBinAddr: 0x1001D3CA0, symSize: 0x0 }
  - { offset: 0x767C3, size: 0x8, addend: 0x0, symName: _.str.162, symObjAddr: 0xE84E0, symBinAddr: 0x1001D3D20, symSize: 0x0 }
  - { offset: 0x767E2, size: 0x8, addend: 0x0, symName: _.str.163, symObjAddr: 0xE8580, symBinAddr: 0x1001D3DC0, symSize: 0x0 }
  - { offset: 0x76801, size: 0x8, addend: 0x0, symName: _.str.164, symObjAddr: 0xE8620, symBinAddr: 0x1001D3E60, symSize: 0x0 }
  - { offset: 0x76820, size: 0x8, addend: 0x0, symName: _.str.165, symObjAddr: 0xE86A0, symBinAddr: 0x1001D3EE0, symSize: 0x0 }
  - { offset: 0x7683F, size: 0x8, addend: 0x0, symName: _.str.166, symObjAddr: 0xE8760, symBinAddr: 0x1001D3FA0, symSize: 0x0 }
  - { offset: 0x76852, size: 0x8, addend: 0x0, symName: _.str.167, symObjAddr: 0xE8800, symBinAddr: 0x1001D4040, symSize: 0x0 }
  - { offset: 0x76865, size: 0x8, addend: 0x0, symName: _.str.168, symObjAddr: 0xE8860, symBinAddr: 0x1001D40A0, symSize: 0x0 }
  - { offset: 0x76878, size: 0x8, addend: 0x0, symName: _.str.169, symObjAddr: 0xE8900, symBinAddr: 0x1001D4140, symSize: 0x0 }
  - { offset: 0x7688B, size: 0x8, addend: 0x0, symName: _.str.171, symObjAddr: 0xE8920, symBinAddr: 0x1001D4160, symSize: 0x0 }
  - { offset: 0x77AB7, size: 0x8, addend: 0x0, symName: __ZNSt3__16vectorINS_7__stateIcEENS_9allocatorIS2_EEE26__swap_out_circular_bufferERNS_14__split_bufferIS2_RS4_EE, symObjAddr: 0x2FB80, symBinAddr: 0x100096FE0, symSize: 0x6C0 }
  - { offset: 0x77B54, size: 0x8, addend: 0x0, symName: __ZNSt3__16vectorINS_9sub_matchIPKcEENS_9allocatorIS4_EEE26__swap_out_circular_bufferERNS_14__split_bufferIS4_RS6_EE, symObjAddr: 0x37C20, symBinAddr: 0x10009F080, symSize: 0x6C0 }
  - { offset: 0x77BEC, size: 0x8, addend: 0x0, symName: __ZNSt3__16vectorINS_4pairImPKcEENS_9allocatorIS4_EEE26__swap_out_circular_bufferERNS_14__split_bufferIS4_RS6_EE, symObjAddr: 0x3E9B0, symBinAddr: 0x1000A5E10, symSize: 0x6C0 }
  - { offset: 0x77DC0, size: 0x8, addend: 0x0, symName: __ZNSt3__16vectorINS_9sub_matchINS_11__wrap_iterIPKcEEEENS_9allocatorIS6_EEE26__swap_out_circular_bufferERNS_14__split_bufferIS6_RS8_EE, symObjAddr: 0x65B70, symBinAddr: 0x1000CCDC0, symSize: 0x6C0 }
  - { offset: 0x77E82, size: 0x8, addend: 0x0, symName: __ZNSt3__16vectorIcNS_9allocatorIcEEE26__swap_out_circular_bufferERNS_14__split_bufferIcRS2_EE, symObjAddr: 0xA6470, symBinAddr: 0x10010CC80, symSize: 0x6C0 }
  - { offset: 0x77EDA, size: 0x8, addend: 0x0, symName: __ZNSt3__16vectorINS_12basic_stringIcNS_11char_traitsIcEENS_9allocatorIcEEEENS4_IS6_EEE26__swap_out_circular_bufferERNS_14__split_bufferIS6_RS7_EE, symObjAddr: 0xB83C0, symBinAddr: 0x10011EBD0, symSize: 0x6C0 }
  - { offset: 0x77F5D, size: 0x8, addend: 0x0, symName: __ZNSt3__16vectorINS_4pairINS_12basic_stringIcNS_11char_traitsIcEENS_9allocatorIcEEEES7_EENS5_IS8_EEE26__swap_out_circular_bufferERNS_14__split_bufferIS8_RS9_EE, symObjAddr: 0xBFA90, symBinAddr: 0x1001262A0, symSize: 0x6C0 }
  - { offset: 0x77FF5, size: 0x8, addend: 0x0, symName: __ZNSt3__16vectorINS_4pairIccEENS_9allocatorIS2_EEE26__swap_out_circular_bufferERNS_14__split_bufferIS2_RS4_EE, symObjAddr: 0xC6740, symBinAddr: 0x10012CF50, symSize: 0x6C0 }
  - { offset: 0x780B7, size: 0x8, addend: 0x0, symName: __ZN7testing8internal16SuiteApiResolverIN12_GLOBAL__N_112SearchEngineEE19GetSetUpCaseOrSuiteEPKci, symObjAddr: 0xF8, symBinAddr: 0x1000711A8, symSize: 0x4F0 }
  - { offset: 0x7810C, size: 0x8, addend: 0x0, symName: __ZN7testing8internal16SuiteApiResolverIN12_GLOBAL__N_112SearchEngineEE22GetTearDownCaseOrSuiteEPKci, symObjAddr: 0x5E8, symBinAddr: 0x100071698, symSize: 0x4D8 }
  - { offset: 0x78166, size: 0x8, addend: 0x0, symName: __ZN7testing8internal15TestFactoryImplIN12_GLOBAL__N_129SearchEngine_MissingFile_TestEEC1Ev, symObjAddr: 0xAC0, symBinAddr: 0x100071B70, symSize: 0x50 }
  - { offset: 0x78198, size: 0x8, addend: 0x0, symName: __ZN7testing8internal15TestFactoryImplIN12_GLOBAL__N_127SearchEngine_cplusplus_TestEEC1Ev, symObjAddr: 0xB60, symBinAddr: 0x100071BC0, symSize: 0x50 }
  - { offset: 0x781CA, size: 0x8, addend: 0x0, symName: __ZN7testing8internal15TestFactoryImplIN12_GLOBAL__N_128SearchEngine_uiccs_news_TestEEC1Ev, symObjAddr: 0xBB0, symBinAddr: 0x100071C10, symSize: 0x50 }
  - { offset: 0x781FD, size: 0x8, addend: 0x0, symName: __ZN7testing8internal15TestFactoryImplIN12_GLOBAL__N_129SearchEngine_MissingFile_TestEEC2Ev, symObjAddr: 0x1E30, symBinAddr: 0x100071C60, symSize: 0xC0 }
  - { offset: 0x7822A, size: 0x8, addend: 0x0, symName: __ZN7testing8internal15TestFactoryImplIN12_GLOBAL__N_129SearchEngine_MissingFile_TestEED1Ev, symObjAddr: 0x1F80, symBinAddr: 0x100071D20, symSize: 0x50 }
  - { offset: 0x78257, size: 0x8, addend: 0x0, symName: __ZN7testing8internal15TestFactoryImplIN12_GLOBAL__N_129SearchEngine_MissingFile_TestEED0Ev, symObjAddr: 0x1FD0, symBinAddr: 0x100071D70, symSize: 0x60 }
  - { offset: 0x78284, size: 0x8, addend: 0x0, symName: __ZN7testing8internal15TestFactoryImplIN12_GLOBAL__N_129SearchEngine_MissingFile_TestEE10CreateTestEv, symObjAddr: 0x2030, symBinAddr: 0x100071DD0, symSize: 0xF0 }
  - { offset: 0x782AA, size: 0x8, addend: 0x0, symName: __ZN7testing8internal15TestFactoryImplIN12_GLOBAL__N_129SearchEngine_MissingFile_TestEED2Ev, symObjAddr: 0x21C0, symBinAddr: 0x100071EC0, symSize: 0x50 }
  - { offset: 0x782D7, size: 0x8, addend: 0x0, symName: __ZN12_GLOBAL__N_129SearchEngine_MissingFile_TestC1Ev, symObjAddr: 0x2260, symBinAddr: 0x100071F10, symSize: 0x50 }
  - { offset: 0x78301, size: 0x8, addend: 0x0, symName: __ZN12_GLOBAL__N_129SearchEngine_MissingFile_TestC2Ev, symObjAddr: 0x22B0, symBinAddr: 0x100071F60, symSize: 0xC0 }
  - { offset: 0x78330, size: 0x8, addend: 0x0, symName: __ZN12_GLOBAL__N_112SearchEngineC2Ev, symObjAddr: 0x2370, symBinAddr: 0x100072020, symSize: 0xC0 }
  - { offset: 0x7835C, size: 0x8, addend: 0x0, symName: __ZN12_GLOBAL__N_129SearchEngine_MissingFile_TestD1Ev, symObjAddr: 0x2430, symBinAddr: 0x1000720E0, symSize: 0x50 }
  - { offset: 0x78386, size: 0x8, addend: 0x0, symName: __ZN12_GLOBAL__N_129SearchEngine_MissingFile_TestD0Ev, symObjAddr: 0x2480, symBinAddr: 0x100072130, symSize: 0x60 }
  - { offset: 0x783B0, size: 0x8, addend: 0x0, symName: __ZN12_GLOBAL__N_129SearchEngine_MissingFile_Test8TestBodyEv, symObjAddr: 0x24E0, symBinAddr: 0x100072190, symSize: 0x1BA0 }
  - { offset: 0x7848B, size: 0x8, addend: 0x0, symName: __ZN12_GLOBAL__N_114CaptureCinCoutC2Ev, symObjAddr: 0x40D0, symBinAddr: 0x100073D30, symSize: 0xF20 }
  - { offset: 0x784B5, size: 0x8, addend: 0x0, symName: __ZN12_GLOBAL__N_112SearchEngineD1Ev, symObjAddr: 0x4FF0, symBinAddr: 0x100074C50, symSize: 0x50 }
  - { offset: 0x784E1, size: 0x8, addend: 0x0, symName: __ZN12_GLOBAL__N_112SearchEngineD0Ev, symObjAddr: 0x5040, symBinAddr: 0x100074CA0, symSize: 0x50 }
  - { offset: 0x7850D, size: 0x8, addend: 0x0, symName: __ZNSt3__19basic_iosIcNS_11char_traitsIcEEE5rdbufB8ne180100EPNS_15basic_streambufIcS2_EE, symObjAddr: 0x5510, symBinAddr: 0x100074CF0, symSize: 0x1A0 }
  - { offset: 0x78553, size: 0x8, addend: 0x0, symName: __ZNKSt3__118basic_stringstreamIcNS_11char_traitsIcEENS_9allocatorIcEEE5rdbufB8ne180100Ev, symObjAddr: 0x56B0, symBinAddr: 0x100074E90, symSize: 0xE0 }
  - { offset: 0x7857E, size: 0x8, addend: 0x0, symName: __ZN12_GLOBAL__N_114CaptureCinCoutD1Ev, symObjAddr: 0x5800, symBinAddr: 0x100074F70, symSize: 0x50 }
  - { offset: 0x785A8, size: 0x8, addend: 0x0, symName: __ZN12_GLOBAL__N_114CaptureCinCoutD0Ev, symObjAddr: 0x5850, symBinAddr: 0x100074FC0, symSize: 0x50 }
  - { offset: 0x785D8, size: 0x8, addend: 0x0, symName: __ZNSt3__18ios_base5rdbufB8ne180100EPv, symObjAddr: 0x6AA0, symBinAddr: 0x100075010, symSize: 0x1B0 }
  - { offset: 0x78612, size: 0x8, addend: 0x0, symName: __ZN12_GLOBAL__N_129SearchEngine_MissingFile_TestD2Ev, symObjAddr: 0x6FF0, symBinAddr: 0x1000751C0, symSize: 0x50 }
  - { offset: 0x7863C, size: 0x8, addend: 0x0, symName: __ZN12_GLOBAL__N_112SearchEngineD2Ev, symObjAddr: 0x7040, symBinAddr: 0x100075210, symSize: 0x50 }
  - { offset: 0x78668, size: 0x8, addend: 0x0, symName: __ZN12_GLOBAL__N_114CaptureCinCoutD2Ev, symObjAddr: 0x7090, symBinAddr: 0x100075260, symSize: 0x7C8 }
  - { offset: 0x78692, size: 0x8, addend: 0x0, symName: __ZNSt3__113basic_ostreamIcNS_11char_traitsIcEEElsB8ne180100EPFRS3_S4_E, symObjAddr: 0x7900, symBinAddr: 0x100075A30, symSize: 0x108 }
  - { offset: 0x786C6, size: 0x8, addend: 0x0, symName: __ZNSt3__16vectorINS_12basic_stringIcNS_11char_traitsIcEENS_9allocatorIcEEEENS4_IS6_EEEC1B8ne180100ESt16initializer_listIS6_E, symObjAddr: 0x7DC0, symBinAddr: 0x100075EF0, symSize: 0x60 }
  - { offset: 0x7872B, size: 0x8, addend: 0x0, symName: __ZNSt3__119basic_ostringstreamIcNS_11char_traitsIcEENS_9allocatorIcEEEC1B8ne180100Ev, symObjAddr: 0x7E20, symBinAddr: 0x100075F50, symSize: 0x2F0 }
  - { offset: 0x78755, size: 0x8, addend: 0x0, symName: __ZNSt3__16vectorINS_12basic_stringIcNS_11char_traitsIcEENS_9allocatorIcEEEENS4_IS6_EEE5beginB8ne180100Ev, symObjAddr: 0x8110, symBinAddr: 0x100076240, symSize: 0x90 }
  - { offset: 0x7877B, size: 0x8, addend: 0x0, symName: __ZNSt3__16vectorINS_12basic_stringIcNS_11char_traitsIcEENS_9allocatorIcEEEENS4_IS6_EEE3endB8ne180100Ev, symObjAddr: 0x81A0, symBinAddr: 0x1000762D0, symSize: 0x98 }
  - { offset: 0x787A1, size: 0x8, addend: 0x0, symName: __ZNKSt3__111__wrap_iterIPNS_12basic_stringIcNS_11char_traitsIcEENS_9allocatorIcEEEEEdeB8ne180100Ev, symObjAddr: 0x82D0, symBinAddr: 0x100076400, symSize: 0xB8 }
  - { offset: 0x787C7, size: 0x8, addend: 0x0, symName: __ZNSt3__111__wrap_iterIPNS_12basic_stringIcNS_11char_traitsIcEENS_9allocatorIcEEEEEppB8ne180100Ev, symObjAddr: 0x8480, symBinAddr: 0x1000764C0, symSize: 0x130 }
  - { offset: 0x787ED, size: 0x8, addend: 0x0, symName: __ZNKRSt3__119basic_ostringstreamIcNS_11char_traitsIcEENS_9allocatorIcEEE3strB8ne180100Ev, symObjAddr: 0x85B0, symBinAddr: 0x1000765F0, symSize: 0x1D0 }
  - { offset: 0x7881E, size: 0x8, addend: 0x0, symName: __ZN7testing15AssertionResultC1IbEERKT_PNSt3__19enable_ifIXntsr3std14is_convertibleIS2_S0_EE5valueEvE4typeE, symObjAddr: 0x8F70, symBinAddr: 0x100076DE0, symSize: 0x60 }
  - { offset: 0x78881, size: 0x8, addend: 0x0, symName: __ZN7testing7MessagelsIA72_cEERS0_RKT_, symObjAddr: 0x9090, symBinAddr: 0x100076E40, symSize: 0x120 }
  - { offset: 0x788C5, size: 0x8, addend: 0x0, symName: __ZN7testing7MessagelsEPFRNSt3__113basic_ostreamIcNS1_11char_traitsIcEEEES6_E, symObjAddr: 0x91B0, symBinAddr: 0x100076F60, symSize: 0x1C0 }
  - { offset: 0x78910, size: 0x8, addend: 0x0, symName: __ZN7testing7MessagelsIA13_cEERS0_RKT_, symObjAddr: 0x9370, symBinAddr: 0x100077120, symSize: 0x120 }
  - { offset: 0x7899C, size: 0x8, addend: 0x0, symName: __ZN7testing7MessagelsIA5_cEERS0_RKT_, symObjAddr: 0x95F0, symBinAddr: 0x100077240, symSize: 0x120 }
  - { offset: 0x789E5, size: 0x8, addend: 0x0, symName: __ZNSt3__119basic_ostringstreamIcNS_11char_traitsIcEENS_9allocatorIcEEED1Ev, symObjAddr: 0x9800, symBinAddr: 0x100077360, symSize: 0x70 }
  - { offset: 0x78A12, size: 0x8, addend: 0x0, symName: __ZNSt3__16vectorINS_12basic_stringIcNS_11char_traitsIcEENS_9allocatorIcEEEENS4_IS6_EEED1B8ne180100Ev, symObjAddr: 0x9870, symBinAddr: 0x1000773D0, symSize: 0x58 }
  - { offset: 0x78A57, size: 0x8, addend: 0x0, symName: __ZNSt3__16vectorINS_12basic_stringIcNS_11char_traitsIcEENS_9allocatorIcEEEENS4_IS6_EEEC2B8ne180100ESt16initializer_listIS6_E, symObjAddr: 0xCF30, symBinAddr: 0x100077430, symSize: 0x4A0 }
  - { offset: 0x78AB5, size: 0x8, addend: 0x0, symName: __ZNSt3__117__compressed_pairIPNS_12basic_stringIcNS_11char_traitsIcEENS_9allocatorIcEEEENS4_IS6_EEEC1B8ne180100IDnNS_18__default_init_tagEEEOT_OT0_, symObjAddr: 0xD3D0, symBinAddr: 0x1000778D0, symSize: 0x68 }
  - { offset: 0x78B0D, size: 0x8, addend: 0x0, symName: __ZNSt3__16vectorINS_12basic_stringIcNS_11char_traitsIcEENS_9allocatorIcEEEENS4_IS6_EEE16__destroy_vectorC1B8ne180100ERS8_, symObjAddr: 0xD4B0, symBinAddr: 0x1000779B0, symSize: 0x60 }
  - { offset: 0x78B46, size: 0x8, addend: 0x0, symName: __ZNKSt16initializer_listINSt3__112basic_stringIcNS0_11char_traitsIcEENS0_9allocatorIcEEEEE4sizeB8ne180100Ev, symObjAddr: 0xD510, symBinAddr: 0x100077A10, symSize: 0x80 }
  - { offset: 0x78B6C, size: 0x8, addend: 0x0, symName: __ZNSt3__16vectorINS_12basic_stringIcNS_11char_traitsIcEENS_9allocatorIcEEEENS4_IS6_EEE11__vallocateB8ne180100Em, symObjAddr: 0xD590, symBinAddr: 0x100077A90, symSize: 0x430 }
  - { offset: 0x78BB6, size: 0x8, addend: 0x0, symName: __ZNSt3__16vectorINS_12basic_stringIcNS_11char_traitsIcEENS_9allocatorIcEEEENS4_IS6_EEE18__construct_at_endIPKS6_SB_EEvT_T0_m, symObjAddr: 0xD9C0, symBinAddr: 0x100077EC0, symSize: 0x390 }
  - { offset: 0x78C32, size: 0x8, addend: 0x0, symName: __ZNSt3__128__exception_guard_exceptionsINS_6vectorINS_12basic_stringIcNS_11char_traitsIcEENS_9allocatorIcEEEENS5_IS7_EEE16__destroy_vectorEE10__completeB8ne180100Ev, symObjAddr: 0xDEE0, symBinAddr: 0x100078250, symSize: 0xA0 }
  - { offset: 0x78C58, size: 0x8, addend: 0x0, symName: __ZNSt3__128__exception_guard_exceptionsINS_6vectorINS_12basic_stringIcNS_11char_traitsIcEENS_9allocatorIcEEEENS5_IS7_EEE16__destroy_vectorEED1B8ne180100Ev, symObjAddr: 0xDF80, symBinAddr: 0x1000782F0, symSize: 0x50 }
  - { offset: 0x78C82, size: 0x8, addend: 0x0, symName: __ZNSt3__117__compressed_pairIPNS_12basic_stringIcNS_11char_traitsIcEENS_9allocatorIcEEEENS4_IS6_EEEC2B8ne180100IDnNS_18__default_init_tagEEEOT_OT0_, symObjAddr: 0xDFD0, symBinAddr: 0x100078340, symSize: 0xF0 }
  - { offset: 0x78CDA, size: 0x8, addend: 0x0, symName: __ZNSt3__122__compressed_pair_elemIPNS_12basic_stringIcNS_11char_traitsIcEENS_9allocatorIcEEEELi0ELb0EEC2B8ne180100IDnvEEOT_, symObjAddr: 0xE0C0, symBinAddr: 0x100078430, symSize: 0x80 }
  - { offset: 0x78D1C, size: 0x8, addend: 0x0, symName: __ZNSt3__122__compressed_pair_elemINS_9allocatorINS_12basic_stringIcNS_11char_traitsIcEENS1_IcEEEEEELi1ELb1EEC2B8ne180100ENS_18__default_init_tagE, symObjAddr: 0xE140, symBinAddr: 0x1000784B0, symSize: 0x60 }
  - { offset: 0x78D51, size: 0x8, addend: 0x0, symName: __ZNSt3__19allocatorINS_12basic_stringIcNS_11char_traitsIcEENS0_IcEEEEEC2B8ne180100Ev, symObjAddr: 0xE1A0, symBinAddr: 0x100078510, symSize: 0x60 }
  - { offset: 0x78D7B, size: 0x8, addend: 0x0, symName: __ZNSt3__116__non_trivial_ifILb1ENS_9allocatorINS_12basic_stringIcNS_11char_traitsIcEENS1_IcEEEEEEEC2B8ne180100Ev, symObjAddr: 0xE200, symBinAddr: 0x100078570, symSize: 0x40 }
  - { offset: 0x78DA5, size: 0x8, addend: 0x0, symName: __ZNSt3__128__exception_guard_exceptionsINS_6vectorINS_12basic_stringIcNS_11char_traitsIcEENS_9allocatorIcEEEENS5_IS7_EEE16__destroy_vectorEEC1B8ne180100ESA_, symObjAddr: 0xE240, symBinAddr: 0x1000785B0, symSize: 0x60 }
  - { offset: 0x78DDD, size: 0x8, addend: 0x0, symName: __ZNSt3__128__exception_guard_exceptionsINS_6vectorINS_12basic_stringIcNS_11char_traitsIcEENS_9allocatorIcEEEENS5_IS7_EEE16__destroy_vectorEEC2B8ne180100ESA_, symObjAddr: 0xE2A0, symBinAddr: 0x100078610, symSize: 0xB0 }
  - { offset: 0x78E15, size: 0x8, addend: 0x0, symName: __ZNSt3__16vectorINS_12basic_stringIcNS_11char_traitsIcEENS_9allocatorIcEEEENS4_IS6_EEE16__destroy_vectorC2B8ne180100ERS8_, symObjAddr: 0xE350, symBinAddr: 0x1000786C0, symSize: 0xC0 }
  - { offset: 0x78E4E, size: 0x8, addend: 0x0, symName: __ZNKSt3__16vectorINS_12basic_stringIcNS_11char_traitsIcEENS_9allocatorIcEEEENS4_IS6_EEE8max_sizeEv, symObjAddr: 0xE410, symBinAddr: 0x100078780, symSize: 0x280 }
  - { offset: 0x78E75, size: 0x8, addend: 0x0, symName: __ZNKSt3__16vectorINS_12basic_stringIcNS_11char_traitsIcEENS_9allocatorIcEEEENS4_IS6_EEE20__throw_length_errorB8ne180100Ev, symObjAddr: 0xE690, symBinAddr: 0x100078A00, symSize: 0x78 }
  - { offset: 0x78E9B, size: 0x8, addend: 0x0, symName: __ZNSt3__16vectorINS_12basic_stringIcNS_11char_traitsIcEENS_9allocatorIcEEEENS4_IS6_EEE7__allocB8ne180100Ev, symObjAddr: 0xE740, symBinAddr: 0x100078AB0, symSize: 0xB0 }
  - { offset: 0x78EC1, size: 0x8, addend: 0x0, symName: __ZNSt3__16vectorINS_12basic_stringIcNS_11char_traitsIcEENS_9allocatorIcEEEENS4_IS6_EEE9__end_capB8ne180100Ev, symObjAddr: 0xE7F0, symBinAddr: 0x100078B60, symSize: 0xC0 }
  - { offset: 0x78EE7, size: 0x8, addend: 0x0, symName: __ZNKSt3__16vectorINS_12basic_stringIcNS_11char_traitsIcEENS_9allocatorIcEEEENS4_IS6_EEE14__annotate_newB8ne180100Em, symObjAddr: 0xE8B0, symBinAddr: 0x100078C20, symSize: 0x158 }
  - { offset: 0x78F27, size: 0x8, addend: 0x0, symName: __ZNSt3__116allocator_traitsINS_9allocatorINS_12basic_stringIcNS_11char_traitsIcEENS1_IcEEEEEEE8max_sizeB8ne180100IS7_vvEEmRKS7_, symObjAddr: 0xEAD8, symBinAddr: 0x100078D78, symSize: 0x48 }
  - { offset: 0x78F53, size: 0x8, addend: 0x0, symName: __ZNKSt3__16vectorINS_12basic_stringIcNS_11char_traitsIcEENS_9allocatorIcEEEENS4_IS6_EEE7__allocB8ne180100Ev, symObjAddr: 0xEB20, symBinAddr: 0x100078DC0, symSize: 0xB8 }
  - { offset: 0x78F79, size: 0x8, addend: 0x0, symName: __ZNSt3__114numeric_limitsIlE3maxB8ne180100Ev, symObjAddr: 0xEBD8, symBinAddr: 0x100078E78, symSize: 0x20 }
  - { offset: 0x78F8D, size: 0x8, addend: 0x0, symName: __ZNKSt3__117__compressed_pairIPNS_12basic_stringIcNS_11char_traitsIcEENS_9allocatorIcEEEENS4_IS6_EEE6secondB8ne180100Ev, symObjAddr: 0xEF10, symBinAddr: 0x100078EA0, symSize: 0xC0 }
  - { offset: 0x78FB3, size: 0x8, addend: 0x0, symName: __ZNKSt3__122__compressed_pair_elemINS_9allocatorINS_12basic_stringIcNS_11char_traitsIcEENS1_IcEEEEEELi1ELb1EE5__getB8ne180100Ev, symObjAddr: 0xEFD0, symBinAddr: 0x100078F60, symSize: 0x68 }
  - { offset: 0x78FD9, size: 0x8, addend: 0x0, symName: __ZNSt3__123__libcpp_numeric_limitsIlLb1EE3maxB8ne180100Ev, symObjAddr: 0xF038, symBinAddr: 0x100078FC8, symSize: 0x20 }
  - { offset: 0x78FED, size: 0x8, addend: 0x0, symName: __ZNSt12length_errorC1B8ne180100EPKc, symObjAddr: 0xF100, symBinAddr: 0x100079090, symSize: 0x60 }
  - { offset: 0x79025, size: 0x8, addend: 0x0, symName: __ZNSt12length_errorC2B8ne180100EPKc, symObjAddr: 0xF160, symBinAddr: 0x1000790F0, symSize: 0xD0 }
  - { offset: 0x7905D, size: 0x8, addend: 0x0, symName: __ZNSt3__19allocatorINS_12basic_stringIcNS_11char_traitsIcEENS0_IcEEEEE8allocateB8ne180100Em, symObjAddr: 0xF230, symBinAddr: 0x1000791C0, symSize: 0xB8 }
  - { offset: 0x79091, size: 0x8, addend: 0x0, symName: __ZNSt3__117__compressed_pairIPNS_12basic_stringIcNS_11char_traitsIcEENS_9allocatorIcEEEENS4_IS6_EEE6secondB8ne180100Ev, symObjAddr: 0xF490, symBinAddr: 0x100079280, symSize: 0xC0 }
  - { offset: 0x790B7, size: 0x8, addend: 0x0, symName: __ZNSt3__122__compressed_pair_elemINS_9allocatorINS_12basic_stringIcNS_11char_traitsIcEENS1_IcEEEEEELi1ELb1EE5__getB8ne180100Ev, symObjAddr: 0xF550, symBinAddr: 0x100079340, symSize: 0x60 }
  - { offset: 0x790DD, size: 0x8, addend: 0x0, symName: __ZNSt3__117__compressed_pairIPNS_12basic_stringIcNS_11char_traitsIcEENS_9allocatorIcEEEENS4_IS6_EEE5firstB8ne180100Ev, symObjAddr: 0xF5B0, symBinAddr: 0x1000793A0, symSize: 0xE0 }
  - { offset: 0x79103, size: 0x8, addend: 0x0, symName: __ZNKSt3__16vectorINS_12basic_stringIcNS_11char_traitsIcEENS_9allocatorIcEEEENS4_IS6_EEE31__annotate_contiguous_containerB8ne180100EPKvSA_, symObjAddr: 0xF710, symBinAddr: 0x100079480, symSize: 0x100 }
  - { offset: 0x79165, size: 0x8, addend: 0x0, symName: __ZNKSt3__16vectorINS_12basic_stringIcNS_11char_traitsIcEENS_9allocatorIcEEEENS4_IS6_EEE4dataB8ne180100Ev, symObjAddr: 0xF810, symBinAddr: 0x100079580, symSize: 0x80 }
  - { offset: 0x7918B, size: 0x8, addend: 0x0, symName: __ZNKSt3__16vectorINS_12basic_stringIcNS_11char_traitsIcEENS_9allocatorIcEEEENS4_IS6_EEE8capacityB8ne180100Ev, symObjAddr: 0xF890, symBinAddr: 0x100079600, symSize: 0x108 }
  - { offset: 0x791B1, size: 0x8, addend: 0x0, symName: __ZNKSt3__16vectorINS_12basic_stringIcNS_11char_traitsIcEENS_9allocatorIcEEEENS4_IS6_EEE9__end_capB8ne180100Ev, symObjAddr: 0xF9B0, symBinAddr: 0x100079720, symSize: 0xC0 }
  - { offset: 0x791D7, size: 0x8, addend: 0x0, symName: __ZNKSt3__117__compressed_pairIPNS_12basic_stringIcNS_11char_traitsIcEENS_9allocatorIcEEEENS4_IS6_EEE5firstB8ne180100Ev, symObjAddr: 0xFA70, symBinAddr: 0x1000797E0, symSize: 0xE0 }
  - { offset: 0x79218, size: 0x8, addend: 0x0, symName: __ZNSt3__16vectorINS_12basic_stringIcNS_11char_traitsIcEENS_9allocatorIcEEEENS4_IS6_EEE21_ConstructTransactionC1B8ne180100ERS8_m, symObjAddr: 0xFBD0, symBinAddr: 0x1000798C0, symSize: 0x68 }
  - { offset: 0x79260, size: 0x8, addend: 0x0, symName: __ZNSt3__16vectorINS_12basic_stringIcNS_11char_traitsIcEENS_9allocatorIcEEEENS4_IS6_EEE21_ConstructTransactionD1B8ne180100Ev, symObjAddr: 0xFE60, symBinAddr: 0x100079B50, symSize: 0x50 }
  - { offset: 0x7928A, size: 0x8, addend: 0x0, symName: __ZNSt3__16vectorINS_12basic_stringIcNS_11char_traitsIcEENS_9allocatorIcEEEENS4_IS6_EEE21_ConstructTransactionC2B8ne180100ERS8_m, symObjAddr: 0xFEB0, symBinAddr: 0x100079BA0, symSize: 0x2C0 }
  - { offset: 0x792D2, size: 0x8, addend: 0x0, symName: __ZNKSt3__16vectorINS_12basic_stringIcNS_11char_traitsIcEENS_9allocatorIcEEEENS4_IS6_EEE19__annotate_increaseB8ne180100Em, symObjAddr: 0x10170, symBinAddr: 0x100079E60, symSize: 0x1C0 }
  - { offset: 0x79307, size: 0x8, addend: 0x0, symName: __ZNKSt3__16vectorINS_12basic_stringIcNS_11char_traitsIcEENS_9allocatorIcEEEENS4_IS6_EEE4sizeB8ne180100Ev, symObjAddr: 0x10330, symBinAddr: 0x10007A020, symSize: 0xD8 }
  - { offset: 0x79349, size: 0x8, addend: 0x0, symName: __ZNSt3__119__unwrap_range_implIPKNS_12basic_stringIcNS_11char_traitsIcEENS_9allocatorIcEEEES8_E8__unwrapB8ne180100ES8_S8_, symObjAddr: 0x109E8, symBinAddr: 0x10007A6D8, symSize: 0x1F0 }
  - { offset: 0x79382, size: 0x8, addend: 0x0, symName: __ZNSt3__14pairIPKNS_12basic_stringIcNS_11char_traitsIcEENS_9allocatorIcEEEES8_EC1B8ne180100IS8_S8_TnNS_9enable_ifIXclsr10_CheckArgsE17__enable_implicitIT_T0_EEEiE4typeELi0EEEOSC_OSD_, symObjAddr: 0x10C00, symBinAddr: 0x10007A8F0, symSize: 0x68 }
  - { offset: 0x793E0, size: 0x8, addend: 0x0, symName: __ZNSt3__118__unwrap_iter_implIPKNS_12basic_stringIcNS_11char_traitsIcEENS_9allocatorIcEEEELb1EE8__unwrapB8ne180100ES8_, symObjAddr: 0x10C68, symBinAddr: 0x10007A958, symSize: 0x30 }
  - { offset: 0x79403, size: 0x8, addend: 0x0, symName: __ZNSt3__14pairIPKNS_12basic_stringIcNS_11char_traitsIcEENS_9allocatorIcEEEES8_EC2B8ne180100IS8_S8_TnNS_9enable_ifIXclsr10_CheckArgsE17__enable_implicitIT_T0_EEEiE4typeELi0EEEOSC_OSD_, symObjAddr: 0x10CB0, symBinAddr: 0x10007A9A0, symSize: 0x198 }
  - { offset: 0x79461, size: 0x8, addend: 0x0, symName: __ZNSt3__129_AllocatorDestroyRangeReverseINS_9allocatorINS_12basic_stringIcNS_11char_traitsIcEENS1_IcEEEEEEPS6_EC1B8ne180100ERS7_RS8_SB_, symObjAddr: 0x11040, symBinAddr: 0x10007AD30, symSize: 0x78 }
  - { offset: 0x794B8, size: 0x8, addend: 0x0, symName: __ZNSt3__116allocator_traitsINS_9allocatorINS_12basic_stringIcNS_11char_traitsIcEENS1_IcEEEEEEE9constructB8ne180100IS6_JRKS6_EvvEEvRS7_PT_DpOT0_, symObjAddr: 0x110B8, symBinAddr: 0x10007ADA8, symSize: 0x68 }
  - { offset: 0x7950D, size: 0x8, addend: 0x0, symName: __ZNSt3__128__exception_guard_exceptionsINS_29_AllocatorDestroyRangeReverseINS_9allocatorINS_12basic_stringIcNS_11char_traitsIcEENS2_IcEEEEEEPS7_EEE10__completeB8ne180100Ev, symObjAddr: 0x11120, symBinAddr: 0x10007AE10, symSize: 0xA0 }
  - { offset: 0x79533, size: 0x8, addend: 0x0, symName: __ZNSt3__128__exception_guard_exceptionsINS_29_AllocatorDestroyRangeReverseINS_9allocatorINS_12basic_stringIcNS_11char_traitsIcEENS2_IcEEEEEEPS7_EEED1B8ne180100Ev, symObjAddr: 0x111C0, symBinAddr: 0x10007AEB0, symSize: 0x50 }
  - { offset: 0x7955D, size: 0x8, addend: 0x0, symName: __ZNSt3__128__exception_guard_exceptionsINS_29_AllocatorDestroyRangeReverseINS_9allocatorINS_12basic_stringIcNS_11char_traitsIcEENS2_IcEEEEEEPS7_EEEC1B8ne180100ESA_, symObjAddr: 0x11210, symBinAddr: 0x10007AF00, symSize: 0x280 }
  - { offset: 0x7959A, size: 0x8, addend: 0x0, symName: __ZNSt3__128__exception_guard_exceptionsINS_29_AllocatorDestroyRangeReverseINS_9allocatorINS_12basic_stringIcNS_11char_traitsIcEENS2_IcEEEEEEPS7_EEEC2B8ne180100ESA_, symObjAddr: 0x11490, symBinAddr: 0x10007B180, symSize: 0x220 }
  - { offset: 0x795D7, size: 0x8, addend: 0x0, symName: __ZNSt3__129_AllocatorDestroyRangeReverseINS_9allocatorINS_12basic_stringIcNS_11char_traitsIcEENS1_IcEEEEEEPS6_EC2B8ne180100ERS7_RS8_SB_, symObjAddr: 0x116B0, symBinAddr: 0x10007B3A0, symSize: 0x198 }
  - { offset: 0x7962E, size: 0x8, addend: 0x0, symName: __ZNSt3__128__exception_guard_exceptionsINS_29_AllocatorDestroyRangeReverseINS_9allocatorINS_12basic_stringIcNS_11char_traitsIcEENS2_IcEEEEEEPS7_EEED2B8ne180100Ev, symObjAddr: 0x11990, symBinAddr: 0x10007B540, symSize: 0x120 }
  - { offset: 0x79658, size: 0x8, addend: 0x0, symName: __ZNKSt3__129_AllocatorDestroyRangeReverseINS_9allocatorINS_12basic_stringIcNS_11char_traitsIcEENS1_IcEEEEEEPS6_EclB8ne180100Ev, symObjAddr: 0x11AB0, symBinAddr: 0x10007B660, symSize: 0x2E8 }
  - { offset: 0x7967F, size: 0x8, addend: 0x0, symName: __ZNSt3__116reverse_iteratorIPNS_12basic_stringIcNS_11char_traitsIcEENS_9allocatorIcEEEEEC1B8ne180100ES7_, symObjAddr: 0x11F90, symBinAddr: 0x10007BB40, symSize: 0x68 }
  - { offset: 0x796B7, size: 0x8, addend: 0x0, symName: __ZNSt3__116allocator_traitsINS_9allocatorINS_12basic_stringIcNS_11char_traitsIcEENS1_IcEEEEEEE7destroyB8ne180100IS6_vvEEvRS7_PT_, symObjAddr: 0x12098, symBinAddr: 0x10007BC48, symSize: 0x30 }
  - { offset: 0x796F2, size: 0x8, addend: 0x0, symName: __ZNSt3__116reverse_iteratorIPNS_12basic_stringIcNS_11char_traitsIcEENS_9allocatorIcEEEEEppB8ne180100Ev, symObjAddr: 0x12120, symBinAddr: 0x10007BCD0, symSize: 0x130 }
  - { offset: 0x79718, size: 0x8, addend: 0x0, symName: __ZNKSt3__116reverse_iteratorIPNS_12basic_stringIcNS_11char_traitsIcEENS_9allocatorIcEEEEE4baseB8ne180100Ev, symObjAddr: 0x12250, symBinAddr: 0x10007BE00, symSize: 0x88 }
  - { offset: 0x79744, size: 0x8, addend: 0x0, symName: __ZNSt3__119__to_address_helperINS_16reverse_iteratorIPNS_12basic_stringIcNS_11char_traitsIcEENS_9allocatorIcEEEEEEvE6__callB8ne180100ERKS9_, symObjAddr: 0x12338, symBinAddr: 0x10007BE88, symSize: 0x68 }
  - { offset: 0x79767, size: 0x8, addend: 0x0, symName: __ZNKSt3__116reverse_iteratorIPNS_12basic_stringIcNS_11char_traitsIcEENS_9allocatorIcEEEEEptB8ne180100EvQoo12is_pointer_vIT_ErQS9__XcldtfpK_onptEE, symObjAddr: 0x123A0, symBinAddr: 0x10007BEF0, symSize: 0x98 }
  - { offset: 0x7978D, size: 0x8, addend: 0x0, symName: __ZNSt3__116reverse_iteratorIPNS_12basic_stringIcNS_11char_traitsIcEENS_9allocatorIcEEEEEC2B8ne180100ES7_, symObjAddr: 0x12750, symBinAddr: 0x10007C280, symSize: 0xD8 }
  - { offset: 0x797C5, size: 0x8, addend: 0x0, symName: __ZNSt3__118__unwrap_iter_implIPNS_12basic_stringIcNS_11char_traitsIcEENS_9allocatorIcEEEELb1EE8__unwrapB8ne180100ES7_, symObjAddr: 0x12828, symBinAddr: 0x10007C358, symSize: 0x30 }
  - { offset: 0x797E8, size: 0x8, addend: 0x0, symName: __ZNSt3__118__unwrap_iter_implIPNS_12basic_stringIcNS_11char_traitsIcEENS_9allocatorIcEEEELb1EE8__rewrapB8ne180100ES7_S7_, symObjAddr: 0x12858, symBinAddr: 0x10007C388, symSize: 0xB8 }
  - { offset: 0x79819, size: 0x8, addend: 0x0, symName: __ZNSt3__16vectorINS_12basic_stringIcNS_11char_traitsIcEENS_9allocatorIcEEEENS4_IS6_EEE21_ConstructTransactionD2B8ne180100Ev, symObjAddr: 0x12910, symBinAddr: 0x10007C440, symSize: 0x2F0 }
  - { offset: 0x79843, size: 0x8, addend: 0x0, symName: __ZNKSt3__16vectorINS_12basic_stringIcNS_11char_traitsIcEENS_9allocatorIcEEEENS4_IS6_EEE17__annotate_shrinkB8ne180100Em, symObjAddr: 0x12C00, symBinAddr: 0x10007C730, symSize: 0x150 }
  - { offset: 0x79878, size: 0x8, addend: 0x0, symName: __ZNSt3__128__exception_guard_exceptionsINS_6vectorINS_12basic_stringIcNS_11char_traitsIcEENS_9allocatorIcEEEENS5_IS7_EEE16__destroy_vectorEED2B8ne180100Ev, symObjAddr: 0x12D50, symBinAddr: 0x10007C880, symSize: 0x120 }
  - { offset: 0x798A2, size: 0x8, addend: 0x0, symName: __ZNSt3__16vectorINS_12basic_stringIcNS_11char_traitsIcEENS_9allocatorIcEEEENS4_IS6_EEE16__destroy_vectorclB8ne180100Ev, symObjAddr: 0x12E70, symBinAddr: 0x10007C9A0, symSize: 0x350 }
  - { offset: 0x798C8, size: 0x8, addend: 0x0, symName: __ZNSt3__16vectorINS_12basic_stringIcNS_11char_traitsIcEENS_9allocatorIcEEEENS4_IS6_EEE7__clearB8ne180100Ev, symObjAddr: 0x131C0, symBinAddr: 0x10007CCF0, symSize: 0x80 }
  - { offset: 0x798EE, size: 0x8, addend: 0x0, symName: __ZNKSt3__16vectorINS_12basic_stringIcNS_11char_traitsIcEENS_9allocatorIcEEEENS4_IS6_EEE17__annotate_deleteB8ne180100Ev, symObjAddr: 0x13240, symBinAddr: 0x10007CD70, symSize: 0x168 }
  - { offset: 0x79914, size: 0x8, addend: 0x0, symName: __ZNSt3__116allocator_traitsINS_9allocatorINS_12basic_stringIcNS_11char_traitsIcEENS1_IcEEEEEEE10deallocateB8ne180100ERS7_PS6_m, symObjAddr: 0x133A8, symBinAddr: 0x10007CED8, symSize: 0x38 }
  - { offset: 0x79956, size: 0x8, addend: 0x0, symName: __ZNSt3__16vectorINS_12basic_stringIcNS_11char_traitsIcEENS_9allocatorIcEEEENS4_IS6_EEE22__base_destruct_at_endB8ne180100EPS6_, symObjAddr: 0x133E0, symBinAddr: 0x10007CF10, symSize: 0x190 }
  - { offset: 0x7999A, size: 0x8, addend: 0x0, symName: __ZNSt3__19allocatorINS_12basic_stringIcNS_11char_traitsIcEENS0_IcEEEEE10deallocateB8ne180100EPS5_m, symObjAddr: 0x13570, symBinAddr: 0x10007D0A0, symSize: 0x78 }
  - { offset: 0x799DC, size: 0x8, addend: 0x0, symName: __ZNSt3__113basic_ostreamIcNS_11char_traitsIcEEEC2B8ne180100EPNS_15basic_streambufIcS2_EE, symObjAddr: 0x13710, symBinAddr: 0x10007D120, symSize: 0x320 }
  - { offset: 0x79A21, size: 0x8, addend: 0x0, symName: __ZNSt3__16vectorINS_12basic_stringIcNS_11char_traitsIcEENS_9allocatorIcEEEENS4_IS6_EEE11__make_iterB8ne180100EPS6_, symObjAddr: 0x13A30, symBinAddr: 0x10007D440, symSize: 0x190 }
  - { offset: 0x79A58, size: 0x8, addend: 0x0, symName: __ZNSt3__111__wrap_iterIPNS_12basic_stringIcNS_11char_traitsIcEENS_9allocatorIcEEEEEC1B8ne180100ES7_, symObjAddr: 0x13BC0, symBinAddr: 0x10007D5D0, symSize: 0x60 }
  - { offset: 0x79A90, size: 0x8, addend: 0x0, symName: __ZNSt3__111__wrap_iterIPNS_12basic_stringIcNS_11char_traitsIcEENS_9allocatorIcEEEEEC2B8ne180100ES7_, symObjAddr: 0x13C20, symBinAddr: 0x10007D630, symSize: 0x98 }
  - { offset: 0x79AC8, size: 0x8, addend: 0x0, symName: __ZNKSt3__111__wrap_iterIPNS_12basic_stringIcNS_11char_traitsIcEENS_9allocatorIcEEEEE4baseB8ne180100Ev, symObjAddr: 0x13D50, symBinAddr: 0x10007D760, symSize: 0x80 }
  - { offset: 0x79AF3, size: 0x8, addend: 0x0, symName: __ZNSt3__111basic_regexIcNS_12regex_traitsIcEEEC1B8ne180100EPKcNS_15regex_constants18syntax_option_typeE, symObjAddr: 0x166C0, symBinAddr: 0x10007DEA0, symSize: 0x90 }
  - { offset: 0x79B40, size: 0x8, addend: 0x0, symName: __ZNSt3__111basic_regexIcNS_12regex_traitsIcEEED1Ev, symObjAddr: 0x16750, symBinAddr: 0x10007DF30, symSize: 0x58 }
  - { offset: 0x79B6D, size: 0x8, addend: 0x0, symName: __ZNKSt3__112basic_stringIcNS_11char_traitsIcEENS_9allocatorIcEEE5beginB8ne180100Ev, symObjAddr: 0x17A20, symBinAddr: 0x10007EE80, symSize: 0x90 }
  - { offset: 0x79B93, size: 0x8, addend: 0x0, symName: __ZNKSt3__112basic_stringIcNS_11char_traitsIcEENS_9allocatorIcEEE3endB8ne180100Ev, symObjAddr: 0x17AB0, symBinAddr: 0x10007EF10, symSize: 0xD0 }
  - { offset: 0x79C2F, size: 0x8, addend: 0x0, symName: __ZNSt3__114regex_iteratorINS_11__wrap_iterIPKcEEcNS_12regex_traitsIcEEEC1ES4_S4_RKNS_11basic_regexIcS6_EENS_15regex_constants15match_flag_typeE, symObjAddr: 0x17B80, symBinAddr: 0x10007EFE0, symSize: 0xA0 }
  - { offset: 0x79C95, size: 0x8, addend: 0x0, symName: __ZNSt3__114regex_iteratorINS_11__wrap_iterIPKcEEcNS_12regex_traitsIcEEEC1Ev, symObjAddr: 0x17C20, symBinAddr: 0x10007F080, symSize: 0x50 }
  - { offset: 0x79CBF, size: 0x8, addend: 0x0, symName: __ZNKSt3__114regex_iteratorINS_11__wrap_iterIPKcEEcNS_12regex_traitsIcEEEeqERKS7_, symObjAddr: 0x17C70, symBinAddr: 0x10007F0D0, symSize: 0x5F8 }
  - { offset: 0x79CF4, size: 0x8, addend: 0x0, symName: __ZNSt3__19sub_matchINS_11__wrap_iterIPKcEEEC1B8ne180100Ev, symObjAddr: 0x18370, symBinAddr: 0x10007F7D0, symSize: 0x50 }
  - { offset: 0x79D1E, size: 0x8, addend: 0x0, symName: __ZNKSt3__114regex_iteratorINS_11__wrap_iterIPKcEEcNS_12regex_traitsIcEEEptB8ne180100Ev, symObjAddr: 0x183C0, symBinAddr: 0x10007F820, symSize: 0x50 }
  - { offset: 0x79D44, size: 0x8, addend: 0x0, symName: __ZNKSt3__113match_resultsINS_11__wrap_iterIPKcEENS_9allocatorINS_9sub_matchIS4_EEEEE6prefixB8ne180100Ev, symObjAddr: 0x18410, symBinAddr: 0x10007F870, symSize: 0x90 }
  - { offset: 0x79D6A, size: 0x8, addend: 0x0, symName: __ZNKSt3__113match_resultsINS_11__wrap_iterIPKcEENS_9allocatorINS_9sub_matchIS4_EEEEE6formatINS_20back_insert_iteratorINS_12basic_stringIcNS_11char_traitsIcEENS5_IcEEEEEEEET_SI_S3_S3_NS_15regex_constants15match_flag_typeE, symObjAddr: 0x184A0, symBinAddr: 0x10007F900, symSize: 0x1E40 }
  - { offset: 0x79E19, size: 0x8, addend: 0x0, symName: __ZNKSt3__113match_resultsINS_11__wrap_iterIPKcEENS_9allocatorINS_9sub_matchIS4_EEEEE6suffixB8ne180100Ev, symObjAddr: 0x1A2E0, symBinAddr: 0x100081740, symSize: 0x90 }
  - { offset: 0x79E44, size: 0x8, addend: 0x0, symName: __ZNSt3__19sub_matchINS_11__wrap_iterIPKcEEEaSERKS5_, symObjAddr: 0x1A370, symBinAddr: 0x1000817D0, symSize: 0x200 }
  - { offset: 0x79E76, size: 0x8, addend: 0x0, symName: __ZNSt3__114regex_iteratorINS_11__wrap_iterIPKcEEcNS_12regex_traitsIcEEEppEv, symObjAddr: 0x1A570, symBinAddr: 0x1000819D0, symSize: 0xB80 }
  - { offset: 0x79EB5, size: 0x8, addend: 0x0, symName: __ZNSt3__114regex_iteratorINS_11__wrap_iterIPKcEEcNS_12regex_traitsIcEEED1Ev, symObjAddr: 0x1B0F0, symBinAddr: 0x100082550, symSize: 0x50 }
  - { offset: 0x79EE2, size: 0x8, addend: 0x0, symName: __ZNSt3__114regex_iteratorINS_11__wrap_iterIPKcEEcNS_12regex_traitsIcEEEC2ES4_S4_RKNS_11basic_regexIcS6_EENS_15regex_constants15match_flag_typeE, symObjAddr: 0x1B140, symBinAddr: 0x1000825A0, symSize: 0x320 }
  - { offset: 0x79F48, size: 0x8, addend: 0x0, symName: __ZNSt3__113match_resultsINS_11__wrap_iterIPKcEENS_9allocatorINS_9sub_matchIS4_EEEEEC1Ev, symObjAddr: 0x1B460, symBinAddr: 0x1000828C0, symSize: 0x198 }
  - { offset: 0x79F78, size: 0x8, addend: 0x0, symName: __ZNSt3__113match_resultsINS_11__wrap_iterIPKcEENS_9allocatorINS_9sub_matchIS4_EEEEED1Ev, symObjAddr: 0x1BB40, symBinAddr: 0x100082FA0, symSize: 0x50 }
  - { offset: 0x79FA5, size: 0x8, addend: 0x0, symName: __ZNSt3__19allocatorINS_9sub_matchINS_11__wrap_iterIPKcEEEEEC1B8ne180100Ev, symObjAddr: 0x1BB90, symBinAddr: 0x100082FF0, symSize: 0x40 }
  - { offset: 0x79FCF, size: 0x8, addend: 0x0, symName: __ZNSt3__113match_resultsINS_11__wrap_iterIPKcEENS_9allocatorINS_9sub_matchIS4_EEEEEC1ERKS8_, symObjAddr: 0x1BBD0, symBinAddr: 0x100083030, symSize: 0x60 }
  - { offset: 0x7A008, size: 0x8, addend: 0x0, symName: __ZNSt3__19allocatorINS_9sub_matchINS_11__wrap_iterIPKcEEEEEC2B8ne180100Ev, symObjAddr: 0x1BC30, symBinAddr: 0x100083090, symSize: 0x60 }
  - { offset: 0x7A032, size: 0x8, addend: 0x0, symName: __ZNSt3__116__non_trivial_ifILb1ENS_9allocatorINS_9sub_matchINS_11__wrap_iterIPKcEEEEEEEC2B8ne180100Ev, symObjAddr: 0x1BC90, symBinAddr: 0x1000830F0, symSize: 0x40 }
  - { offset: 0x7A05C, size: 0x8, addend: 0x0, symName: __ZNSt3__113match_resultsINS_11__wrap_iterIPKcEENS_9allocatorINS_9sub_matchIS4_EEEEEC2ERKS8_, symObjAddr: 0x1BCD0, symBinAddr: 0x100083130, symSize: 0x130 }
  - { offset: 0x7A095, size: 0x8, addend: 0x0, symName: __ZNSt3__16vectorINS_9sub_matchINS_11__wrap_iterIPKcEEEENS_9allocatorIS6_EEEC1B8ne180100ERKS8_, symObjAddr: 0x1BE00, symBinAddr: 0x100083260, symSize: 0x60 }
  - { offset: 0x7A0CE, size: 0x8, addend: 0x0, symName: __ZNSt3__111__wrap_iterIPKcEC1B8ne180100Ev, symObjAddr: 0x1BE60, symBinAddr: 0x1000832C0, symSize: 0x50 }
  - { offset: 0x7A0F8, size: 0x8, addend: 0x0, symName: __ZNSt3__16vectorINS_9sub_matchINS_11__wrap_iterIPKcEEEENS_9allocatorIS6_EEED1B8ne180100Ev, symObjAddr: 0x1BEB0, symBinAddr: 0x100083310, symSize: 0x50 }
  - { offset: 0x7A122, size: 0x8, addend: 0x0, symName: __ZNSt3__16vectorINS_9sub_matchINS_11__wrap_iterIPKcEEEENS_9allocatorIS6_EEEC2B8ne180100ERKS8_, symObjAddr: 0x1BF00, symBinAddr: 0x100083360, symSize: 0x250 }
  - { offset: 0x7A15D, size: 0x8, addend: 0x0, symName: __ZNSt3__117__compressed_pairIPNS_9sub_matchINS_11__wrap_iterIPKcEEEENS_9allocatorIS6_EEEC1B8ne180100IDnRKS9_EEOT_OT0_, symObjAddr: 0x1C150, symBinAddr: 0x1000835B0, symSize: 0x60 }
  - { offset: 0x7A1B5, size: 0x8, addend: 0x0, symName: __ZNSt3__117__compressed_pairIPNS_9sub_matchINS_11__wrap_iterIPKcEEEENS_9allocatorIS6_EEEC2B8ne180100IDnRKS9_EEOT_OT0_, symObjAddr: 0x1C1B0, symBinAddr: 0x100083610, symSize: 0x110 }
  - { offset: 0x7A20D, size: 0x8, addend: 0x0, symName: __ZNSt3__122__compressed_pair_elemIPNS_9sub_matchINS_11__wrap_iterIPKcEEEELi0ELb0EEC2B8ne180100IDnvEEOT_, symObjAddr: 0x1C2C0, symBinAddr: 0x100083720, symSize: 0x80 }
  - { offset: 0x7A24F, size: 0x8, addend: 0x0, symName: __ZNSt3__122__compressed_pair_elemINS_9allocatorINS_9sub_matchINS_11__wrap_iterIPKcEEEEEELi1ELb1EEC2B8ne180100IRKS8_vEEOT_, symObjAddr: 0x1C340, symBinAddr: 0x1000837A0, symSize: 0x40 }
  - { offset: 0x7A291, size: 0x8, addend: 0x0, symName: __ZNSt3__111__wrap_iterIPKcEC2B8ne180100Ev, symObjAddr: 0x1C380, symBinAddr: 0x1000837E0, symSize: 0x80 }
  - { offset: 0x7A2BB, size: 0x8, addend: 0x0, symName: __ZNSt3__16vectorINS_9sub_matchINS_11__wrap_iterIPKcEEEENS_9allocatorIS6_EEED2B8ne180100Ev, symObjAddr: 0x1C400, symBinAddr: 0x100083860, symSize: 0x1E0 }
  - { offset: 0x7A2E6, size: 0x8, addend: 0x0, symName: __ZNSt3__16vectorINS_9sub_matchINS_11__wrap_iterIPKcEEEENS_9allocatorIS6_EEE16__destroy_vectorC1B8ne180100ERS9_, symObjAddr: 0x1C5E0, symBinAddr: 0x100083A40, symSize: 0x60 }
  - { offset: 0x7A31F, size: 0x8, addend: 0x0, symName: __ZNSt3__16vectorINS_9sub_matchINS_11__wrap_iterIPKcEEEENS_9allocatorIS6_EEE16__destroy_vectorclB8ne180100Ev, symObjAddr: 0x1C640, symBinAddr: 0x100083AA0, symSize: 0x350 }
  - { offset: 0x7A345, size: 0x8, addend: 0x0, symName: __ZNSt3__16vectorINS_9sub_matchINS_11__wrap_iterIPKcEEEENS_9allocatorIS6_EEE16__destroy_vectorC2B8ne180100ERS9_, symObjAddr: 0x1C990, symBinAddr: 0x100083DF0, symSize: 0xC0 }
  - { offset: 0x7A37E, size: 0x8, addend: 0x0, symName: __ZNSt3__16vectorINS_9sub_matchINS_11__wrap_iterIPKcEEEENS_9allocatorIS6_EEE7__clearB8ne180100Ev, symObjAddr: 0x1CA50, symBinAddr: 0x100083EB0, symSize: 0x80 }
  - { offset: 0x7A3A4, size: 0x8, addend: 0x0, symName: __ZNKSt3__16vectorINS_9sub_matchINS_11__wrap_iterIPKcEEEENS_9allocatorIS6_EEE17__annotate_deleteB8ne180100Ev, symObjAddr: 0x1CAD0, symBinAddr: 0x100083F30, symSize: 0x168 }
  - { offset: 0x7A3CA, size: 0x8, addend: 0x0, symName: __ZNSt3__116allocator_traitsINS_9allocatorINS_9sub_matchINS_11__wrap_iterIPKcEEEEEEE10deallocateB8ne180100ERS8_PS7_m, symObjAddr: 0x1CC38, symBinAddr: 0x100084098, symSize: 0x38 }
  - { offset: 0x7A40C, size: 0x8, addend: 0x0, symName: __ZNSt3__16vectorINS_9sub_matchINS_11__wrap_iterIPKcEEEENS_9allocatorIS6_EEE7__allocB8ne180100Ev, symObjAddr: 0x1CC70, symBinAddr: 0x1000840D0, symSize: 0xB0 }
  - { offset: 0x7A432, size: 0x8, addend: 0x0, symName: __ZNKSt3__16vectorINS_9sub_matchINS_11__wrap_iterIPKcEEEENS_9allocatorIS6_EEE8capacityB8ne180100Ev, symObjAddr: 0x1CD20, symBinAddr: 0x100084180, symSize: 0x100 }
  - { offset: 0x7A458, size: 0x8, addend: 0x0, symName: __ZNSt3__16vectorINS_9sub_matchINS_11__wrap_iterIPKcEEEENS_9allocatorIS6_EEE22__base_destruct_at_endB8ne180100EPS6_, symObjAddr: 0x1CE20, symBinAddr: 0x100084280, symSize: 0x198 }
  - { offset: 0x7A49C, size: 0x8, addend: 0x0, symName: __ZNSt3__116allocator_traitsINS_9allocatorINS_9sub_matchINS_11__wrap_iterIPKcEEEEEEE7destroyB8ne180100IS7_vvEEvRS8_PT_, symObjAddr: 0x1CFB8, symBinAddr: 0x100084418, symSize: 0x30 }
  - { offset: 0x7A4D7, size: 0x8, addend: 0x0, symName: __ZNKSt3__16vectorINS_9sub_matchINS_11__wrap_iterIPKcEEEENS_9allocatorIS6_EEE31__annotate_contiguous_containerB8ne180100EPKvSB_, symObjAddr: 0x1D020, symBinAddr: 0x100084480, symSize: 0x100 }
  - { offset: 0x7A539, size: 0x8, addend: 0x0, symName: __ZNKSt3__16vectorINS_9sub_matchINS_11__wrap_iterIPKcEEEENS_9allocatorIS6_EEE4dataB8ne180100Ev, symObjAddr: 0x1D120, symBinAddr: 0x100084580, symSize: 0x80 }
  - { offset: 0x7A55F, size: 0x8, addend: 0x0, symName: __ZNKSt3__16vectorINS_9sub_matchINS_11__wrap_iterIPKcEEEENS_9allocatorIS6_EEE4sizeB8ne180100Ev, symObjAddr: 0x1D1A0, symBinAddr: 0x100084600, symSize: 0xD0 }
  - { offset: 0x7A585, size: 0x8, addend: 0x0, symName: __ZNSt3__19allocatorINS_9sub_matchINS_11__wrap_iterIPKcEEEEE10deallocateB8ne180100EPS6_m, symObjAddr: 0x1D270, symBinAddr: 0x1000846D0, symSize: 0x70 }
  - { offset: 0x7A5C7, size: 0x8, addend: 0x0, symName: __ZNSt3__117__compressed_pairIPNS_9sub_matchINS_11__wrap_iterIPKcEEEENS_9allocatorIS6_EEE6secondB8ne180100Ev, symObjAddr: 0x1D2E0, symBinAddr: 0x100084740, symSize: 0xC0 }
  - { offset: 0x7A5ED, size: 0x8, addend: 0x0, symName: __ZNSt3__122__compressed_pair_elemINS_9allocatorINS_9sub_matchINS_11__wrap_iterIPKcEEEEEELi1ELb1EE5__getB8ne180100Ev, symObjAddr: 0x1D3A0, symBinAddr: 0x100084800, symSize: 0x60 }
  - { offset: 0x7A613, size: 0x8, addend: 0x0, symName: __ZNKSt3__16vectorINS_9sub_matchINS_11__wrap_iterIPKcEEEENS_9allocatorIS6_EEE9__end_capB8ne180100Ev, symObjAddr: 0x1D400, symBinAddr: 0x100084860, symSize: 0xC0 }
  - { offset: 0x7A639, size: 0x8, addend: 0x0, symName: __ZNKSt3__117__compressed_pairIPNS_9sub_matchINS_11__wrap_iterIPKcEEEENS_9allocatorIS6_EEE5firstB8ne180100Ev, symObjAddr: 0x1D4C0, symBinAddr: 0x100084920, symSize: 0xE0 }
  - { offset: 0x7A65F, size: 0x8, addend: 0x0, symName: __ZNKSt3__122__compressed_pair_elemIPNS_9sub_matchINS_11__wrap_iterIPKcEEEELi0ELb0EE5__getB8ne180100Ev, symObjAddr: 0x1D5A0, symBinAddr: 0x100084A00, symSize: 0x80 }
  - { offset: 0x7A6BA, size: 0x8, addend: 0x0, symName: __ZNSt3__113match_resultsIPKcNS_9allocatorINS_9sub_matchIS2_EEEEEC1Ev, symObjAddr: 0x1D620, symBinAddr: 0x100084A80, symSize: 0x190 }
  - { offset: 0x7A6EB, size: 0x8, addend: 0x0, symName: __ZNKSt3__111basic_regexIcNS_12regex_traitsIcEEE8__searchINS_9allocatorINS_9sub_matchIPKcEEEEEEbS8_S8_RNS_13match_resultsIS8_T_EENS_15regex_constants15match_flag_typeE, symObjAddr: 0x1D7B0, symBinAddr: 0x100084C10, symSize: 0x2620 }
  - { offset: 0x7A75E, size: 0x8, addend: 0x0, symName: __ZNKSt3__111__wrap_iterIPKcE4baseB8ne180100Ev, symObjAddr: 0x1FDD0, symBinAddr: 0x100087230, symSize: 0x80 }
  - { offset: 0x7A78A, size: 0x8, addend: 0x0, symName: __ZNSt3__113match_resultsINS_11__wrap_iterIPKcEENS_9allocatorINS_9sub_matchIS4_EEEEE8__assignB8ne180100IS3_NS5_INS6_IS3_EEEEEEvS4_S4_RKNS0_IT_T0_EEb, symObjAddr: 0x1FE50, symBinAddr: 0x1000872B0, symSize: 0x1710 }
  - { offset: 0x7A82F, size: 0x8, addend: 0x0, symName: __ZNSt3__113match_resultsIPKcNS_9allocatorINS_9sub_matchIS2_EEEEED1Ev, symObjAddr: 0x21560, symBinAddr: 0x1000889C0, symSize: 0x50 }
  - { offset: 0x7A85C, size: 0x8, addend: 0x0, symName: __ZNSt3__19allocatorINS_9sub_matchIPKcEEEC1B8ne180100Ev, symObjAddr: 0x215B0, symBinAddr: 0x100088A10, symSize: 0x40 }
  - { offset: 0x7A886, size: 0x8, addend: 0x0, symName: __ZNSt3__113match_resultsIPKcNS_9allocatorINS_9sub_matchIS2_EEEEEC1ERKS6_, symObjAddr: 0x215F0, symBinAddr: 0x100088A50, symSize: 0x60 }
  - { offset: 0x7A8BF, size: 0x8, addend: 0x0, symName: __ZNSt3__19allocatorINS_9sub_matchIPKcEEEC2B8ne180100Ev, symObjAddr: 0x21650, symBinAddr: 0x100088AB0, symSize: 0x60 }
  - { offset: 0x7A8E9, size: 0x8, addend: 0x0, symName: __ZNSt3__116__non_trivial_ifILb1ENS_9allocatorINS_9sub_matchIPKcEEEEEC2B8ne180100Ev, symObjAddr: 0x216B0, symBinAddr: 0x100088B10, symSize: 0x40 }
  - { offset: 0x7A913, size: 0x8, addend: 0x0, symName: __ZNSt3__113match_resultsIPKcNS_9allocatorINS_9sub_matchIS2_EEEEEC2ERKS6_, symObjAddr: 0x216F0, symBinAddr: 0x100088B50, symSize: 0x160 }
  - { offset: 0x7A94C, size: 0x8, addend: 0x0, symName: __ZNSt3__16vectorINS_9sub_matchIPKcEENS_9allocatorIS4_EEEC1B8ne180100ERKS6_, symObjAddr: 0x21850, symBinAddr: 0x100088CB0, symSize: 0x60 }
  - { offset: 0x7A985, size: 0x8, addend: 0x0, symName: __ZNSt3__19sub_matchIPKcEC1B8ne180100Ev, symObjAddr: 0x218B0, symBinAddr: 0x100088D10, symSize: 0x50 }
  - { offset: 0x7A9AF, size: 0x8, addend: 0x0, symName: __ZNSt3__16vectorINS_9sub_matchIPKcEENS_9allocatorIS4_EEED1B8ne180100Ev, symObjAddr: 0x21900, symBinAddr: 0x100088D60, symSize: 0x50 }
  - { offset: 0x7A9D9, size: 0x8, addend: 0x0, symName: __ZNSt3__16vectorINS_9sub_matchIPKcEENS_9allocatorIS4_EEEC2B8ne180100ERKS6_, symObjAddr: 0x21950, symBinAddr: 0x100088DB0, symSize: 0x250 }
  - { offset: 0x7AA14, size: 0x8, addend: 0x0, symName: __ZNSt3__117__compressed_pairIPNS_9sub_matchIPKcEENS_9allocatorIS4_EEEC1B8ne180100IDnRKS7_EEOT_OT0_, symObjAddr: 0x21BA0, symBinAddr: 0x100089000, symSize: 0x60 }
  - { offset: 0x7AA6C, size: 0x8, addend: 0x0, symName: __ZNSt3__117__compressed_pairIPNS_9sub_matchIPKcEENS_9allocatorIS4_EEEC2B8ne180100IDnRKS7_EEOT_OT0_, symObjAddr: 0x21C00, symBinAddr: 0x100089060, symSize: 0x110 }
  - { offset: 0x7AAC4, size: 0x8, addend: 0x0, symName: __ZNSt3__122__compressed_pair_elemIPNS_9sub_matchIPKcEELi0ELb0EEC2B8ne180100IDnvEEOT_, symObjAddr: 0x21D10, symBinAddr: 0x100089170, symSize: 0x80 }
  - { offset: 0x7AB06, size: 0x8, addend: 0x0, symName: __ZNSt3__122__compressed_pair_elemINS_9allocatorINS_9sub_matchIPKcEEEELi1ELb1EEC2B8ne180100IRKS6_vEEOT_, symObjAddr: 0x21D90, symBinAddr: 0x1000891F0, symSize: 0x40 }
  - { offset: 0x7AB48, size: 0x8, addend: 0x0, symName: __ZNSt3__19sub_matchIPKcEC2B8ne180100Ev, symObjAddr: 0x21DD0, symBinAddr: 0x100089230, symSize: 0xD0 }
  - { offset: 0x7AB72, size: 0x8, addend: 0x0, symName: __ZNSt3__14pairIPKcS2_EC2B8ne180100ILb1ETnNS_9enable_ifIXclsr13_CheckArgsDepIXT_EEE25__enable_implicit_defaultEEiE4typeELi0EEEv, symObjAddr: 0x21EA0, symBinAddr: 0x100089300, symSize: 0xC0 }
  - { offset: 0x7ABAC, size: 0x8, addend: 0x0, symName: __ZNSt3__16vectorINS_9sub_matchIPKcEENS_9allocatorIS4_EEED2B8ne180100Ev, symObjAddr: 0x21F60, symBinAddr: 0x1000893C0, symSize: 0x1E0 }
  - { offset: 0x7ABD7, size: 0x8, addend: 0x0, symName: __ZNSt3__16vectorINS_9sub_matchIPKcEENS_9allocatorIS4_EEE16__destroy_vectorC1B8ne180100ERS7_, symObjAddr: 0x22140, symBinAddr: 0x1000895A0, symSize: 0x60 }
  - { offset: 0x7AC10, size: 0x8, addend: 0x0, symName: __ZNSt3__16vectorINS_9sub_matchIPKcEENS_9allocatorIS4_EEE16__destroy_vectorclB8ne180100Ev, symObjAddr: 0x221A0, symBinAddr: 0x100089600, symSize: 0x350 }
  - { offset: 0x7AC36, size: 0x8, addend: 0x0, symName: __ZNSt3__16vectorINS_9sub_matchIPKcEENS_9allocatorIS4_EEE16__destroy_vectorC2B8ne180100ERS7_, symObjAddr: 0x224F0, symBinAddr: 0x100089950, symSize: 0xC0 }
  - { offset: 0x7AC6F, size: 0x8, addend: 0x0, symName: __ZNSt3__16vectorINS_9sub_matchIPKcEENS_9allocatorIS4_EEE7__clearB8ne180100Ev, symObjAddr: 0x225B0, symBinAddr: 0x100089A10, symSize: 0x80 }
  - { offset: 0x7AC95, size: 0x8, addend: 0x0, symName: __ZNKSt3__16vectorINS_9sub_matchIPKcEENS_9allocatorIS4_EEE17__annotate_deleteB8ne180100Ev, symObjAddr: 0x22630, symBinAddr: 0x100089A90, symSize: 0x168 }
  - { offset: 0x7ACBB, size: 0x8, addend: 0x0, symName: __ZNSt3__116allocator_traitsINS_9allocatorINS_9sub_matchIPKcEEEEE10deallocateB8ne180100ERS6_PS5_m, symObjAddr: 0x22798, symBinAddr: 0x100089BF8, symSize: 0x38 }
  - { offset: 0x7ACFD, size: 0x8, addend: 0x0, symName: __ZNSt3__16vectorINS_9sub_matchIPKcEENS_9allocatorIS4_EEE7__allocB8ne180100Ev, symObjAddr: 0x227D0, symBinAddr: 0x100089C30, symSize: 0xB0 }
  - { offset: 0x7AD23, size: 0x8, addend: 0x0, symName: __ZNKSt3__16vectorINS_9sub_matchIPKcEENS_9allocatorIS4_EEE8capacityB8ne180100Ev, symObjAddr: 0x22880, symBinAddr: 0x100089CE0, symSize: 0x100 }
  - { offset: 0x7AD49, size: 0x8, addend: 0x0, symName: __ZNSt3__16vectorINS_9sub_matchIPKcEENS_9allocatorIS4_EEE22__base_destruct_at_endB8ne180100EPS4_, symObjAddr: 0x22980, symBinAddr: 0x100089DE0, symSize: 0x198 }
  - { offset: 0x7AD8D, size: 0x8, addend: 0x0, symName: __ZNSt3__116allocator_traitsINS_9allocatorINS_9sub_matchIPKcEEEEE7destroyB8ne180100IS5_vvEEvRS6_PT_, symObjAddr: 0x22B18, symBinAddr: 0x100089F78, symSize: 0x30 }
  - { offset: 0x7ADC8, size: 0x8, addend: 0x0, symName: __ZNKSt3__16vectorINS_9sub_matchIPKcEENS_9allocatorIS4_EEE31__annotate_contiguous_containerB8ne180100EPKvS9_, symObjAddr: 0x22B80, symBinAddr: 0x100089FE0, symSize: 0x100 }
  - { offset: 0x7AE2A, size: 0x8, addend: 0x0, symName: __ZNKSt3__16vectorINS_9sub_matchIPKcEENS_9allocatorIS4_EEE4dataB8ne180100Ev, symObjAddr: 0x22C80, symBinAddr: 0x10008A0E0, symSize: 0x80 }
  - { offset: 0x7AE50, size: 0x8, addend: 0x0, symName: __ZNKSt3__16vectorINS_9sub_matchIPKcEENS_9allocatorIS4_EEE4sizeB8ne180100Ev, symObjAddr: 0x22D00, symBinAddr: 0x10008A160, symSize: 0xD0 }
  - { offset: 0x7AE76, size: 0x8, addend: 0x0, symName: __ZNSt3__19allocatorINS_9sub_matchIPKcEEE10deallocateB8ne180100EPS4_m, symObjAddr: 0x22DD0, symBinAddr: 0x10008A230, symSize: 0x70 }
  - { offset: 0x7AEB8, size: 0x8, addend: 0x0, symName: __ZNSt3__117__compressed_pairIPNS_9sub_matchIPKcEENS_9allocatorIS4_EEE6secondB8ne180100Ev, symObjAddr: 0x22E40, symBinAddr: 0x10008A2A0, symSize: 0xC0 }
  - { offset: 0x7AEDE, size: 0x8, addend: 0x0, symName: __ZNSt3__122__compressed_pair_elemINS_9allocatorINS_9sub_matchIPKcEEEELi1ELb1EE5__getB8ne180100Ev, symObjAddr: 0x22F00, symBinAddr: 0x10008A360, symSize: 0x60 }
  - { offset: 0x7AF04, size: 0x8, addend: 0x0, symName: __ZNKSt3__16vectorINS_9sub_matchIPKcEENS_9allocatorIS4_EEE9__end_capB8ne180100Ev, symObjAddr: 0x22F60, symBinAddr: 0x10008A3C0, symSize: 0xC0 }
  - { offset: 0x7AF2A, size: 0x8, addend: 0x0, symName: __ZNKSt3__117__compressed_pairIPNS_9sub_matchIPKcEENS_9allocatorIS4_EEE5firstB8ne180100Ev, symObjAddr: 0x23020, symBinAddr: 0x10008A480, symSize: 0xE0 }
  - { offset: 0x7AF50, size: 0x8, addend: 0x0, symName: __ZNKSt3__122__compressed_pair_elemIPNS_9sub_matchIPKcEELi0ELb0EE5__getB8ne180100Ev, symObjAddr: 0x23100, symBinAddr: 0x10008A560, symSize: 0x88 }
  - { offset: 0x7AF76, size: 0x8, addend: 0x0, symName: __ZNSt3__113match_resultsIPKcNS_9allocatorINS_9sub_matchIS2_EEEEE6__initEjS2_S2_b, symObjAddr: 0x233A0, symBinAddr: 0x10008A800, symSize: 0x7A0 }
  - { offset: 0x7AFD8, size: 0x8, addend: 0x0, symName: __ZNKSt3__111basic_regexIcNS_12regex_traitsIcEEE10mark_countB8ne180100Ev, symObjAddr: 0x23B40, symBinAddr: 0x10008AFA0, symSize: 0xA0 }
  - { offset: 0x7AFFE, size: 0x8, addend: 0x0, symName: __ZNKSt3__111basic_regexIcNS_12regex_traitsIcEEE16__match_at_startINS_9allocatorINS_9sub_matchIPKcEEEEEEbS8_S8_RNS_13match_resultsIS8_T_EENS_15regex_constants15match_flag_typeEb, symObjAddr: 0x23BE0, symBinAddr: 0x10008B040, symSize: 0x3A0 }
  - { offset: 0x7B078, size: 0x8, addend: 0x0, symName: __ZNKSt3__113match_resultsIPKcNS_9allocatorINS_9sub_matchIS2_EEEEEixB8ne180100Em, symObjAddr: 0x23F80, symBinAddr: 0x10008B3E0, symSize: 0x138 }
  - { offset: 0x7B0AD, size: 0x8, addend: 0x0, symName: __ZNSt3__16vectorINS_9sub_matchIPKcEENS_9allocatorIS4_EEE6assignEmRKS4_, symObjAddr: 0x24200, symBinAddr: 0x10008B660, symSize: 0x4D0 }
  - { offset: 0x7B111, size: 0x8, addend: 0x0, symName: __ZNKSt3__113match_resultsIPKcNS_9allocatorINS_9sub_matchIS2_EEEEE4sizeB8ne180100Ev, symObjAddr: 0x246D0, symBinAddr: 0x10008BB30, symSize: 0x80 }
  - { offset: 0x7B137, size: 0x8, addend: 0x0, symName: __ZNSt3__16vectorINS_9sub_matchIPKcEENS_9allocatorIS4_EEE5clearB8ne180100Ev, symObjAddr: 0x24750, symBinAddr: 0x10008BBB0, symSize: 0x70 }
  - { offset: 0x7B171, size: 0x8, addend: 0x0, symName: __ZNSt3__19sub_matchIPKcEaSERKS3_, symObjAddr: 0x247C0, symBinAddr: 0x10008BC20, symSize: 0x200 }
  - { offset: 0x7B1A3, size: 0x8, addend: 0x0, symName: __ZNSt3__14pairIPKcS2_EaSB8ne180100ERKS3_, symObjAddr: 0x249C0, symBinAddr: 0x10008BE20, symSize: 0x1B8 }
  - { offset: 0x7B1D8, size: 0x8, addend: 0x0, symName: __ZNKSt3__111basic_regexIcNS_12regex_traitsIcEEE21__match_at_start_ecmaINS_9allocatorINS_9sub_matchIPKcEEEEEEbS8_S8_RNS_13match_resultsIS8_T_EENS_15regex_constants15match_flag_typeEb, symObjAddr: 0x24BC0, symBinAddr: 0x10008C020, symSize: 0x1FE0 }
  - { offset: 0x7B305, size: 0x8, addend: 0x0, symName: __ZNKSt3__111basic_regexIcNS_12regex_traitsIcEEE29__match_at_start_posix_nosubsINS_9allocatorINS_9sub_matchIPKcEEEEEEbS8_S8_RNS_13match_resultsIS8_T_EENS_15regex_constants15match_flag_typeEb, symObjAddr: 0x26BA0, symBinAddr: 0x10008E000, symSize: 0x1F40 }
  - { offset: 0x7B431, size: 0x8, addend: 0x0, symName: __ZNKSt3__111basic_regexIcNS_12regex_traitsIcEEE27__match_at_start_posix_subsINS_9allocatorINS_9sub_matchIPKcEEEEEEbS8_S8_RNS_13match_resultsIS8_T_EENS_15regex_constants15match_flag_typeEb, symObjAddr: 0x28AE0, symBinAddr: 0x10008FF40, symSize: 0x22F0 }
  - { offset: 0x7B59B, size: 0x8, addend: 0x0, symName: __ZNSt3__16vectorINS_7__stateIcEENS_9allocatorIS2_EEEC1B8ne180100Ev, symObjAddr: 0x2ADD0, symBinAddr: 0x100092230, symSize: 0x50 }
  - { offset: 0x7B5C5, size: 0x8, addend: 0x0, symName: __ZNKSt3__110shared_ptrINS_13__empty_stateIcEEE3getB8ne180100Ev, symObjAddr: 0x2AE20, symBinAddr: 0x100092280, symSize: 0x80 }
  - { offset: 0x7B5EB, size: 0x8, addend: 0x0, symName: __ZNSt3__16vectorINS_7__stateIcEENS_9allocatorIS2_EEE9push_backB8ne180100EOS2_, symObjAddr: 0x2AEA0, symBinAddr: 0x100092300, symSize: 0x230 }
  - { offset: 0x7B62F, size: 0x8, addend: 0x0, symName: __ZNSt3__17__stateIcEC1B8ne180100Ev, symObjAddr: 0x2B0D0, symBinAddr: 0x100092530, symSize: 0x50 }
  - { offset: 0x7B659, size: 0x8, addend: 0x0, symName: __ZNSt3__17__stateIcED1Ev, symObjAddr: 0x2B120, symBinAddr: 0x100092580, symSize: 0x50 }
  - { offset: 0x7B686, size: 0x8, addend: 0x0, symName: __ZNSt3__16vectorINS_7__stateIcEENS_9allocatorIS2_EEE4backB8ne180100Ev, symObjAddr: 0x2B170, symBinAddr: 0x1000925D0, symSize: 0x100 }
  - { offset: 0x7B6AC, size: 0x8, addend: 0x0, symName: __ZNSt3__16vectorINS_9sub_matchIPKcEENS_9allocatorIS4_EEE6resizeEmRKS4_, symObjAddr: 0x2B270, symBinAddr: 0x1000926D0, symSize: 0x170 }
  - { offset: 0x7B6FF, size: 0x8, addend: 0x0, symName: __ZNSt3__16vectorINS_4pairImPKcEENS_9allocatorIS4_EEE6resizeEm, symObjAddr: 0x2B3E0, symBinAddr: 0x100092840, symSize: 0x130 }
  - { offset: 0x7B743, size: 0x8, addend: 0x0, symName: __ZNKSt3__111basic_regexIcNS_12regex_traitsIcEEE12__loop_countB8ne180100Ev, symObjAddr: 0x2B510, symBinAddr: 0x100092970, symSize: 0xA8 }
  - { offset: 0x7B769, size: 0x8, addend: 0x0, symName: __ZNSt3__16vectorINS_7__stateIcEENS_9allocatorIS2_EEE8pop_backEv, symObjAddr: 0x2B650, symBinAddr: 0x100092AB0, symSize: 0xE0 }
  - { offset: 0x7B78F, size: 0x8, addend: 0x0, symName: __ZNSt3__16vectorINS_9sub_matchIPKcEENS_9allocatorIS4_EEEixB8ne180100Em, symObjAddr: 0x2B730, symBinAddr: 0x100092B90, symSize: 0x118 }
  - { offset: 0x7B7CA, size: 0x8, addend: 0x0, symName: __ZNSt3__17__stateIcEC1ERKS1_, symObjAddr: 0x2B9A0, symBinAddr: 0x100092E00, symSize: 0x68 }
  - { offset: 0x7B800, size: 0x8, addend: 0x0, symName: __ZNKSt3__16vectorINS_7__stateIcEENS_9allocatorIS2_EEE5emptyB8ne180100Ev, symObjAddr: 0x2BAA0, symBinAddr: 0x100092F00, symSize: 0xC0 }
  - { offset: 0x7B826, size: 0x8, addend: 0x0, symName: __ZNSt3__16vectorINS_7__stateIcEENS_9allocatorIS2_EEED1B8ne180100Ev, symObjAddr: 0x2BB60, symBinAddr: 0x100092FC0, symSize: 0x50 }
  - { offset: 0x7B850, size: 0x8, addend: 0x0, symName: __ZNSt3__16vectorINS_7__stateIcEENS_9allocatorIS2_EEEC2B8ne180100Ev, symObjAddr: 0x2BBB0, symBinAddr: 0x100093010, symSize: 0x240 }
  - { offset: 0x7B87B, size: 0x8, addend: 0x0, symName: __ZNSt3__117__compressed_pairIPNS_7__stateIcEENS_9allocatorIS2_EEEC1B8ne180100IDnNS_18__default_init_tagEEEOT_OT0_, symObjAddr: 0x2BDF0, symBinAddr: 0x100093250, symSize: 0x60 }
  - { offset: 0x7B8D3, size: 0x8, addend: 0x0, symName: __ZNSt3__117__compressed_pairIPNS_7__stateIcEENS_9allocatorIS2_EEEC2B8ne180100IDnNS_18__default_init_tagEEEOT_OT0_, symObjAddr: 0x2BE50, symBinAddr: 0x1000932B0, symSize: 0xF0 }
  - { offset: 0x7B92B, size: 0x8, addend: 0x0, symName: __ZNSt3__122__compressed_pair_elemIPNS_7__stateIcEELi0ELb0EEC2B8ne180100IDnvEEOT_, symObjAddr: 0x2BF40, symBinAddr: 0x1000933A0, symSize: 0x80 }
  - { offset: 0x7B96D, size: 0x8, addend: 0x0, symName: __ZNSt3__122__compressed_pair_elemINS_9allocatorINS_7__stateIcEEEELi1ELb1EEC2B8ne180100ENS_18__default_init_tagE, symObjAddr: 0x2BFC0, symBinAddr: 0x100093420, symSize: 0x60 }
  - { offset: 0x7B9A2, size: 0x8, addend: 0x0, symName: __ZNSt3__19allocatorINS_7__stateIcEEEC2B8ne180100Ev, symObjAddr: 0x2C020, symBinAddr: 0x100093480, symSize: 0x60 }
  - { offset: 0x7B9CC, size: 0x8, addend: 0x0, symName: __ZNSt3__116__non_trivial_ifILb1ENS_9allocatorINS_7__stateIcEEEEEC2B8ne180100Ev, symObjAddr: 0x2C080, symBinAddr: 0x1000934E0, symSize: 0x40 }
  - { offset: 0x7B9F6, size: 0x8, addend: 0x0, symName: __ZNSt3__16vectorINS_7__stateIcEENS_9allocatorIS2_EEE9__end_capB8ne180100Ev, symObjAddr: 0x2C0C0, symBinAddr: 0x100093520, symSize: 0xC0 }
  - { offset: 0x7BA22, size: 0x8, addend: 0x0, symName: __ZNSt3__16vectorINS_7__stateIcEENS_9allocatorIS2_EEE22__construct_one_at_endB8ne180100IJS2_EEEvDpOT_, symObjAddr: 0x2C180, symBinAddr: 0x1000935E0, symSize: 0x3F0 }
  - { offset: 0x7BA77, size: 0x8, addend: 0x0, symName: __ZNSt3__16vectorINS_7__stateIcEENS_9allocatorIS2_EEE21__push_back_slow_pathIS2_EEPS2_OT_, symObjAddr: 0x2C570, symBinAddr: 0x1000939D0, symSize: 0x4E0 }
  - { offset: 0x7BADA, size: 0x8, addend: 0x0, symName: __ZNSt3__117__compressed_pairIPNS_7__stateIcEENS_9allocatorIS2_EEE5firstB8ne180100Ev, symObjAddr: 0x2CA50, symBinAddr: 0x100093EB0, symSize: 0xE0 }
  - { offset: 0x7BB00, size: 0x8, addend: 0x0, symName: __ZNSt3__122__compressed_pair_elemIPNS_7__stateIcEELi0ELb0EE5__getB8ne180100Ev, symObjAddr: 0x2CB30, symBinAddr: 0x100093F90, symSize: 0x80 }
  - { offset: 0x7BB41, size: 0x8, addend: 0x0, symName: __ZNSt3__16vectorINS_7__stateIcEENS_9allocatorIS2_EEE21_ConstructTransactionC1B8ne180100ERS5_m, symObjAddr: 0x2CBB0, symBinAddr: 0x100094010, symSize: 0x68 }
  - { offset: 0x7BB89, size: 0x8, addend: 0x0, symName: __ZNSt3__116allocator_traitsINS_9allocatorINS_7__stateIcEEEEE9constructB8ne180100IS3_JS3_EvvEEvRS4_PT_DpOT0_, symObjAddr: 0x2CC18, symBinAddr: 0x100094078, symSize: 0x68 }
  - { offset: 0x7BBDE, size: 0x8, addend: 0x0, symName: __ZNSt3__16vectorINS_7__stateIcEENS_9allocatorIS2_EEE7__allocB8ne180100Ev, symObjAddr: 0x2CC80, symBinAddr: 0x1000940E0, symSize: 0xB8 }
  - { offset: 0x7BC04, size: 0x8, addend: 0x0, symName: __ZNSt3__16vectorINS_7__stateIcEENS_9allocatorIS2_EEE21_ConstructTransactionD1B8ne180100Ev, symObjAddr: 0x2CD50, symBinAddr: 0x1000941B0, symSize: 0x50 }
  - { offset: 0x7BC2E, size: 0x8, addend: 0x0, symName: __ZNSt3__16vectorINS_7__stateIcEENS_9allocatorIS2_EEE21_ConstructTransactionC2B8ne180100ERS5_m, symObjAddr: 0x2CDA0, symBinAddr: 0x100094200, symSize: 0x2C0 }
  - { offset: 0x7BC76, size: 0x8, addend: 0x0, symName: __ZNKSt3__16vectorINS_7__stateIcEENS_9allocatorIS2_EEE19__annotate_increaseB8ne180100Em, symObjAddr: 0x2D060, symBinAddr: 0x1000944C0, symSize: 0x1E0 }
  - { offset: 0x7BCAB, size: 0x8, addend: 0x0, symName: __ZNKSt3__16vectorINS_7__stateIcEENS_9allocatorIS2_EEE31__annotate_contiguous_containerB8ne180100EPKvS7_, symObjAddr: 0x2D240, symBinAddr: 0x1000946A0, symSize: 0x100 }
  - { offset: 0x7BD0D, size: 0x8, addend: 0x0, symName: __ZNKSt3__16vectorINS_7__stateIcEENS_9allocatorIS2_EEE4dataB8ne180100Ev, symObjAddr: 0x2D340, symBinAddr: 0x1000947A0, symSize: 0x80 }
  - { offset: 0x7BD33, size: 0x8, addend: 0x0, symName: __ZNKSt3__16vectorINS_7__stateIcEENS_9allocatorIS2_EEE4sizeB8ne180100Ev, symObjAddr: 0x2D3C0, symBinAddr: 0x100094820, symSize: 0xD0 }
  - { offset: 0x7BD59, size: 0x8, addend: 0x0, symName: __ZNKSt3__16vectorINS_7__stateIcEENS_9allocatorIS2_EEE8capacityB8ne180100Ev, symObjAddr: 0x2D490, symBinAddr: 0x1000948F0, symSize: 0x100 }
  - { offset: 0x7BD7F, size: 0x8, addend: 0x0, symName: __ZNKSt3__16vectorINS_7__stateIcEENS_9allocatorIS2_EEE9__end_capB8ne180100Ev, symObjAddr: 0x2D590, symBinAddr: 0x1000949F0, symSize: 0xC0 }
  - { offset: 0x7BDA5, size: 0x8, addend: 0x0, symName: __ZNKSt3__117__compressed_pairIPNS_7__stateIcEENS_9allocatorIS2_EEE5firstB8ne180100Ev, symObjAddr: 0x2D650, symBinAddr: 0x100094AB0, symSize: 0xE0 }
  - { offset: 0x7BDCB, size: 0x8, addend: 0x0, symName: __ZNKSt3__122__compressed_pair_elemIPNS_7__stateIcEELi0ELb0EE5__getB8ne180100Ev, symObjAddr: 0x2D730, symBinAddr: 0x100094B90, symSize: 0x88 }
  - { offset: 0x7BDF1, size: 0x8, addend: 0x0, symName: __ZNSt3__17__stateIcEC1EOS1_, symObjAddr: 0x2D900, symBinAddr: 0x100094D60, symSize: 0x60 }
  - { offset: 0x7BE27, size: 0x8, addend: 0x0, symName: __ZNSt3__17__stateIcEC2EOS1_, symObjAddr: 0x2D960, symBinAddr: 0x100094DC0, symSize: 0x180 }
  - { offset: 0x7BE5D, size: 0x8, addend: 0x0, symName: __ZNSt3__16vectorINS_9sub_matchIPKcEENS_9allocatorIS4_EEEC1B8ne180100EOS7_, symObjAddr: 0x2DAE0, symBinAddr: 0x100094F40, symSize: 0x60 }
  - { offset: 0x7BE96, size: 0x8, addend: 0x0, symName: __ZNSt3__16vectorINS_4pairImPKcEENS_9allocatorIS4_EEEC1B8ne180100EOS7_, symObjAddr: 0x2DB40, symBinAddr: 0x100094FA0, symSize: 0x60 }
  - { offset: 0x7BECF, size: 0x8, addend: 0x0, symName: __ZNSt3__16vectorINS_9sub_matchIPKcEENS_9allocatorIS4_EEEC2B8ne180100EOS7_, symObjAddr: 0x2DBA0, symBinAddr: 0x100095000, symSize: 0x680 }
  - { offset: 0x7BF10, size: 0x8, addend: 0x0, symName: __ZNSt3__117__compressed_pairIPNS_9sub_matchIPKcEENS_9allocatorIS4_EEEC1B8ne180100IDnS7_EEOT_OT0_, symObjAddr: 0x2E220, symBinAddr: 0x100095680, symSize: 0x60 }
  - { offset: 0x7BF68, size: 0x8, addend: 0x0, symName: __ZNSt3__16vectorINS_9sub_matchIPKcEENS_9allocatorIS4_EEE9__end_capB8ne180100Ev, symObjAddr: 0x2E280, symBinAddr: 0x1000956E0, symSize: 0xC0 }
  - { offset: 0x7BF8E, size: 0x8, addend: 0x0, symName: __ZNSt3__117__compressed_pairIPNS_9sub_matchIPKcEENS_9allocatorIS4_EEEC2B8ne180100IDnS7_EEOT_OT0_, symObjAddr: 0x2E340, symBinAddr: 0x1000957A0, symSize: 0x110 }
  - { offset: 0x7BFE6, size: 0x8, addend: 0x0, symName: __ZNSt3__122__compressed_pair_elemINS_9allocatorINS_9sub_matchIPKcEEEELi1ELb1EEC2B8ne180100IS6_vEEOT_, symObjAddr: 0x2E450, symBinAddr: 0x1000958B0, symSize: 0x40 }
  - { offset: 0x7C028, size: 0x8, addend: 0x0, symName: __ZNSt3__117__compressed_pairIPNS_9sub_matchIPKcEENS_9allocatorIS4_EEE5firstB8ne180100Ev, symObjAddr: 0x2E490, symBinAddr: 0x1000958F0, symSize: 0xE0 }
  - { offset: 0x7C04E, size: 0x8, addend: 0x0, symName: __ZNSt3__122__compressed_pair_elemIPNS_9sub_matchIPKcEELi0ELb0EE5__getB8ne180100Ev, symObjAddr: 0x2E570, symBinAddr: 0x1000959D0, symSize: 0x80 }
